ARM GAS  C:\Users\n-is\AppData\Local\Temp\cckhL24t.s 			page 1


   1              		.cpu cortex-m4
   2              		.eabi_attribute 27, 1
   3              		.eabi_attribute 28, 1
   4              		.eabi_attribute 20, 1
   5              		.eabi_attribute 21, 1
   6              		.eabi_attribute 23, 3
   7              		.eabi_attribute 24, 1
   8              		.eabi_attribute 25, 1
   9              		.eabi_attribute 26, 1
  10              		.eabi_attribute 30, 1
  11              		.eabi_attribute 34, 1
  12              		.eabi_attribute 18, 4
  13              		.file	"adc.c"
  14              		.text
  15              	.Ltext0:
  16              		.cfi_sections	.debug_frame
  17              		.section	.text.MX_ADC1_Init,"ax",%progbits
  18              		.align	1
  19              		.global	MX_ADC1_Init
  20              		.syntax unified
  21              		.thumb
  22              		.thumb_func
  23              		.fpu fpv4-sp-d16
  25              	MX_ADC1_Init:
  26              	.LFB126:
  27              		.file 1 "Core/Src/adc.c"
   1:Core/Src/adc.c **** /**
   2:Core/Src/adc.c ****   ******************************************************************************
   3:Core/Src/adc.c ****   * File Name          : ADC.c
   4:Core/Src/adc.c ****   * Description        : This file provides code for the configuration
   5:Core/Src/adc.c ****   *                      of the ADC instances.
   6:Core/Src/adc.c ****   ******************************************************************************
   7:Core/Src/adc.c ****   ** This notice applies to any and all portions of this file
   8:Core/Src/adc.c ****   * that are not between comment pairs USER CODE BEGIN and
   9:Core/Src/adc.c ****   * USER CODE END. Other portions of this file, whether 
  10:Core/Src/adc.c ****   * inserted by the user or by software development tools
  11:Core/Src/adc.c ****   * are owned by their respective copyright owners.
  12:Core/Src/adc.c ****   *
  13:Core/Src/adc.c ****   * COPYRIGHT(c) 2018 STMicroelectronics
  14:Core/Src/adc.c ****   *
  15:Core/Src/adc.c ****   * Redistribution and use in source and binary forms, with or without modification,
  16:Core/Src/adc.c ****   * are permitted provided that the following conditions are met:
  17:Core/Src/adc.c ****   *   1. Redistributions of source code must retain the above copyright notice,
  18:Core/Src/adc.c ****   *      this list of conditions and the following disclaimer.
  19:Core/Src/adc.c ****   *   2. Redistributions in binary form must reproduce the above copyright notice,
  20:Core/Src/adc.c ****   *      this list of conditions and the following disclaimer in the documentation
  21:Core/Src/adc.c ****   *      and/or other materials provided with the distribution.
  22:Core/Src/adc.c ****   *   3. Neither the name of STMicroelectronics nor the names of its contributors
  23:Core/Src/adc.c ****   *      may be used to endorse or promote products derived from this software
  24:Core/Src/adc.c ****   *      without specific prior written permission.
  25:Core/Src/adc.c ****   *
  26:Core/Src/adc.c ****   * THIS SOFTWARE IS PROVIDED BY THE COPYRIGHT HOLDERS AND CONTRIBUTORS "AS IS"
  27:Core/Src/adc.c ****   * AND ANY EXPRESS OR IMPLIED WARRANTIES, INCLUDING, BUT NOT LIMITED TO, THE
  28:Core/Src/adc.c ****   * IMPLIED WARRANTIES OF MERCHANTABILITY AND FITNESS FOR A PARTICULAR PURPOSE ARE
  29:Core/Src/adc.c ****   * DISCLAIMED. IN NO EVENT SHALL THE COPYRIGHT HOLDER OR CONTRIBUTORS BE LIABLE
  30:Core/Src/adc.c ****   * FOR ANY DIRECT, INDIRECT, INCIDENTAL, SPECIAL, EXEMPLARY, OR CONSEQUENTIAL
  31:Core/Src/adc.c ****   * DAMAGES (INCLUDING, BUT NOT LIMITED TO, PROCUREMENT OF SUBSTITUTE GOODS OR
ARM GAS  C:\Users\n-is\AppData\Local\Temp\cckhL24t.s 			page 2


  32:Core/Src/adc.c ****   * SERVICES; LOSS OF USE, DATA, OR PROFITS; OR BUSINESS INTERRUPTION) HOWEVER
  33:Core/Src/adc.c ****   * CAUSED AND ON ANY THEORY OF LIABILITY, WHETHER IN CONTRACT, STRICT LIABILITY,
  34:Core/Src/adc.c ****   * OR TORT (INCLUDING NEGLIGENCE OR OTHERWISE) ARISING IN ANY WAY OUT OF THE USE
  35:Core/Src/adc.c ****   * OF THIS SOFTWARE, EVEN IF ADVISED OF THE POSSIBILITY OF SUCH DAMAGE.
  36:Core/Src/adc.c ****   *
  37:Core/Src/adc.c ****   ******************************************************************************
  38:Core/Src/adc.c ****   */
  39:Core/Src/adc.c **** 
  40:Core/Src/adc.c **** /* Includes ------------------------------------------------------------------*/
  41:Core/Src/adc.c **** #include "adc.h"
  42:Core/Src/adc.c **** 
  43:Core/Src/adc.c **** #include "gpio.h"
  44:Core/Src/adc.c **** 
  45:Core/Src/adc.c **** /* USER CODE BEGIN 0 */
  46:Core/Src/adc.c **** 
  47:Core/Src/adc.c **** /* USER CODE END 0 */
  48:Core/Src/adc.c **** 
  49:Core/Src/adc.c **** ADC_HandleTypeDef hadc1;
  50:Core/Src/adc.c **** 
  51:Core/Src/adc.c **** /* ADC1 init function */
  52:Core/Src/adc.c **** void MX_ADC1_Init(void)
  53:Core/Src/adc.c **** {
  28              		.loc 1 53 0
  29              		.cfi_startproc
  30              		@ args = 0, pretend = 0, frame = 16
  31              		@ frame_needed = 0, uses_anonymous_args = 0
  32 0000 00B5     		push	{lr}
  33              	.LCFI0:
  34              		.cfi_def_cfa_offset 4
  35              		.cfi_offset 14, -4
  36 0002 85B0     		sub	sp, sp, #20
  37              	.LCFI1:
  38              		.cfi_def_cfa_offset 24
  54:Core/Src/adc.c ****   ADC_ChannelConfTypeDef sConfig;
  55:Core/Src/adc.c **** 
  56:Core/Src/adc.c ****     /**Configure the global features of the ADC (Clock, Resolution, Data Alignment and number of co
  57:Core/Src/adc.c ****     */
  58:Core/Src/adc.c ****   hadc1.Instance = ADC1;
  39              		.loc 1 58 0
  40 0004 1648     		ldr	r0, .L7
  41 0006 174B     		ldr	r3, .L7+4
  42 0008 0360     		str	r3, [r0]
  59:Core/Src/adc.c ****   hadc1.Init.ClockPrescaler = ADC_CLOCK_SYNC_PCLK_DIV4;
  43              		.loc 1 59 0
  44 000a 4FF48033 		mov	r3, #65536
  45 000e 4360     		str	r3, [r0, #4]
  60:Core/Src/adc.c ****   hadc1.Init.Resolution = ADC_RESOLUTION_12B;
  46              		.loc 1 60 0
  47 0010 0023     		movs	r3, #0
  48 0012 8360     		str	r3, [r0, #8]
  61:Core/Src/adc.c ****   hadc1.Init.ScanConvMode = DISABLE;
  49              		.loc 1 61 0
  50 0014 0361     		str	r3, [r0, #16]
  62:Core/Src/adc.c ****   hadc1.Init.ContinuousConvMode = DISABLE;
  51              		.loc 1 62 0
  52 0016 8361     		str	r3, [r0, #24]
  63:Core/Src/adc.c ****   hadc1.Init.DiscontinuousConvMode = DISABLE;
ARM GAS  C:\Users\n-is\AppData\Local\Temp\cckhL24t.s 			page 3


  53              		.loc 1 63 0
  54 0018 0362     		str	r3, [r0, #32]
  64:Core/Src/adc.c ****   hadc1.Init.ExternalTrigConvEdge = ADC_EXTERNALTRIGCONVEDGE_NONE;
  55              		.loc 1 64 0
  56 001a C362     		str	r3, [r0, #44]
  65:Core/Src/adc.c ****   hadc1.Init.ExternalTrigConv = ADC_SOFTWARE_START;
  57              		.loc 1 65 0
  58 001c 124A     		ldr	r2, .L7+8
  59 001e 8262     		str	r2, [r0, #40]
  66:Core/Src/adc.c ****   hadc1.Init.DataAlign = ADC_DATAALIGN_RIGHT;
  60              		.loc 1 66 0
  61 0020 C360     		str	r3, [r0, #12]
  67:Core/Src/adc.c ****   hadc1.Init.NbrOfConversion = 1;
  62              		.loc 1 67 0
  63 0022 0122     		movs	r2, #1
  64 0024 C261     		str	r2, [r0, #28]
  68:Core/Src/adc.c ****   hadc1.Init.DMAContinuousRequests = DISABLE;
  65              		.loc 1 68 0
  66 0026 0363     		str	r3, [r0, #48]
  69:Core/Src/adc.c ****   hadc1.Init.EOCSelection = ADC_EOC_SINGLE_CONV;
  67              		.loc 1 69 0
  68 0028 4261     		str	r2, [r0, #20]
  70:Core/Src/adc.c ****   if (HAL_ADC_Init(&hadc1) != HAL_OK)
  69              		.loc 1 70 0
  70 002a FFF7FEFF 		bl	HAL_ADC_Init
  71              	.LVL0:
  72 002e 68B9     		cbnz	r0, .L5
  73              	.L2:
  71:Core/Src/adc.c ****   {
  72:Core/Src/adc.c ****     _Error_Handler(__FILE__, __LINE__);
  73:Core/Src/adc.c ****   }
  74:Core/Src/adc.c **** 
  75:Core/Src/adc.c ****     /**Configure for the selected ADC regular channel its corresponding rank in the sequencer and i
  76:Core/Src/adc.c ****     */
  77:Core/Src/adc.c ****   sConfig.Channel = ADC_CHANNEL_14;
  74              		.loc 1 77 0
  75 0030 0E23     		movs	r3, #14
  76 0032 0093     		str	r3, [sp]
  78:Core/Src/adc.c ****   sConfig.Rank = 1;
  77              		.loc 1 78 0
  78 0034 0123     		movs	r3, #1
  79 0036 0193     		str	r3, [sp, #4]
  79:Core/Src/adc.c ****   sConfig.SamplingTime = ADC_SAMPLETIME_3CYCLES;
  80              		.loc 1 79 0
  81 0038 0023     		movs	r3, #0
  82 003a 0293     		str	r3, [sp, #8]
  80:Core/Src/adc.c ****   if (HAL_ADC_ConfigChannel(&hadc1, &sConfig) != HAL_OK)
  83              		.loc 1 80 0
  84 003c 6946     		mov	r1, sp
  85 003e 0848     		ldr	r0, .L7
  86 0040 FFF7FEFF 		bl	HAL_ADC_ConfigChannel
  87              	.LVL1:
  88 0044 38B9     		cbnz	r0, .L6
  89              	.L1:
  81:Core/Src/adc.c ****   {
  82:Core/Src/adc.c ****     _Error_Handler(__FILE__, __LINE__);
  83:Core/Src/adc.c ****   }
ARM GAS  C:\Users\n-is\AppData\Local\Temp\cckhL24t.s 			page 4


  84:Core/Src/adc.c **** 
  85:Core/Src/adc.c **** }
  90              		.loc 1 85 0
  91 0046 05B0     		add	sp, sp, #20
  92              	.LCFI2:
  93              		.cfi_remember_state
  94              		.cfi_def_cfa_offset 4
  95              		@ sp needed
  96 0048 5DF804FB 		ldr	pc, [sp], #4
  97              	.L5:
  98              	.LCFI3:
  99              		.cfi_restore_state
  72:Core/Src/adc.c ****   }
 100              		.loc 1 72 0
 101 004c 4821     		movs	r1, #72
 102 004e 0748     		ldr	r0, .L7+12
 103 0050 FFF7FEFF 		bl	_Error_Handler
 104              	.LVL2:
 105 0054 ECE7     		b	.L2
 106              	.L6:
  82:Core/Src/adc.c ****   }
 107              		.loc 1 82 0
 108 0056 5221     		movs	r1, #82
 109 0058 0448     		ldr	r0, .L7+12
 110 005a FFF7FEFF 		bl	_Error_Handler
 111              	.LVL3:
 112              		.loc 1 85 0
 113 005e F2E7     		b	.L1
 114              	.L8:
 115              		.align	2
 116              	.L7:
 117 0060 00000000 		.word	hadc1
 118 0064 00200140 		.word	1073815552
 119 0068 0100000F 		.word	251658241
 120 006c 00000000 		.word	.LC0
 121              		.cfi_endproc
 122              	.LFE126:
 124              		.section	.text.HAL_ADC_MspInit,"ax",%progbits
 125              		.align	1
 126              		.global	HAL_ADC_MspInit
 127              		.syntax unified
 128              		.thumb
 129              		.thumb_func
 130              		.fpu fpv4-sp-d16
 132              	HAL_ADC_MspInit:
 133              	.LFB127:
  86:Core/Src/adc.c **** 
  87:Core/Src/adc.c **** void HAL_ADC_MspInit(ADC_HandleTypeDef* adcHandle)
  88:Core/Src/adc.c **** {
 134              		.loc 1 88 0
 135              		.cfi_startproc
 136              		@ args = 0, pretend = 0, frame = 24
 137              		@ frame_needed = 0, uses_anonymous_args = 0
 138              	.LVL4:
  89:Core/Src/adc.c **** 
  90:Core/Src/adc.c ****   GPIO_InitTypeDef GPIO_InitStruct;
  91:Core/Src/adc.c ****   if(adcHandle->Instance==ADC1)
ARM GAS  C:\Users\n-is\AppData\Local\Temp\cckhL24t.s 			page 5


 139              		.loc 1 91 0
 140 0000 0268     		ldr	r2, [r0]
 141 0002 0F4B     		ldr	r3, .L16
 142 0004 9A42     		cmp	r2, r3
 143 0006 00D0     		beq	.L15
 144 0008 7047     		bx	lr
 145              	.L15:
  88:Core/Src/adc.c **** 
 146              		.loc 1 88 0
 147 000a 00B5     		push	{lr}
 148              	.LCFI4:
 149              		.cfi_def_cfa_offset 4
 150              		.cfi_offset 14, -4
 151 000c 87B0     		sub	sp, sp, #28
 152              	.LCFI5:
 153              		.cfi_def_cfa_offset 32
 154              	.LBB2:
  92:Core/Src/adc.c ****   {
  93:Core/Src/adc.c ****   /* USER CODE BEGIN ADC1_MspInit 0 */
  94:Core/Src/adc.c **** 
  95:Core/Src/adc.c ****   /* USER CODE END ADC1_MspInit 0 */
  96:Core/Src/adc.c ****     /* ADC1 clock enable */
  97:Core/Src/adc.c ****     __HAL_RCC_ADC1_CLK_ENABLE();
 155              		.loc 1 97 0
 156 000e 0021     		movs	r1, #0
 157 0010 0091     		str	r1, [sp]
 158 0012 03F58C33 		add	r3, r3, #71680
 159 0016 5A6C     		ldr	r2, [r3, #68]
 160 0018 42F48072 		orr	r2, r2, #256
 161 001c 5A64     		str	r2, [r3, #68]
 162 001e 5B6C     		ldr	r3, [r3, #68]
 163 0020 03F48073 		and	r3, r3, #256
 164 0024 0093     		str	r3, [sp]
 165 0026 009B     		ldr	r3, [sp]
 166              	.LBE2:
  98:Core/Src/adc.c ****   
  99:Core/Src/adc.c ****     /**ADC1 GPIO Configuration    
 100:Core/Src/adc.c ****     PC4     ------> ADC1_IN14 
 101:Core/Src/adc.c ****     */
 102:Core/Src/adc.c ****     GPIO_InitStruct.Pin = GPIO_PIN_4;
 167              		.loc 1 102 0
 168 0028 1023     		movs	r3, #16
 169 002a 0193     		str	r3, [sp, #4]
 103:Core/Src/adc.c ****     GPIO_InitStruct.Mode = GPIO_MODE_ANALOG;
 170              		.loc 1 103 0
 171 002c 0323     		movs	r3, #3
 172 002e 0293     		str	r3, [sp, #8]
 104:Core/Src/adc.c ****     GPIO_InitStruct.Pull = GPIO_NOPULL;
 173              		.loc 1 104 0
 174 0030 0391     		str	r1, [sp, #12]
 105:Core/Src/adc.c ****     HAL_GPIO_Init(GPIOC, &GPIO_InitStruct);
 175              		.loc 1 105 0
 176 0032 01A9     		add	r1, sp, #4
 177 0034 0348     		ldr	r0, .L16+4
 178              	.LVL5:
 179 0036 FFF7FEFF 		bl	HAL_GPIO_Init
 180              	.LVL6:
ARM GAS  C:\Users\n-is\AppData\Local\Temp\cckhL24t.s 			page 6


 106:Core/Src/adc.c **** 
 107:Core/Src/adc.c ****   /* USER CODE BEGIN ADC1_MspInit 1 */
 108:Core/Src/adc.c **** 
 109:Core/Src/adc.c ****   /* USER CODE END ADC1_MspInit 1 */
 110:Core/Src/adc.c ****   }
 111:Core/Src/adc.c **** }
 181              		.loc 1 111 0
 182 003a 07B0     		add	sp, sp, #28
 183              	.LCFI6:
 184              		.cfi_def_cfa_offset 4
 185              		@ sp needed
 186 003c 5DF804FB 		ldr	pc, [sp], #4
 187              	.L17:
 188              		.align	2
 189              	.L16:
 190 0040 00200140 		.word	1073815552
 191 0044 00080240 		.word	1073874944
 192              		.cfi_endproc
 193              	.LFE127:
 195              		.section	.text.HAL_ADC_MspDeInit,"ax",%progbits
 196              		.align	1
 197              		.global	HAL_ADC_MspDeInit
 198              		.syntax unified
 199              		.thumb
 200              		.thumb_func
 201              		.fpu fpv4-sp-d16
 203              	HAL_ADC_MspDeInit:
 204              	.LFB128:
 112:Core/Src/adc.c **** 
 113:Core/Src/adc.c **** void HAL_ADC_MspDeInit(ADC_HandleTypeDef* adcHandle)
 114:Core/Src/adc.c **** {
 205              		.loc 1 114 0
 206              		.cfi_startproc
 207              		@ args = 0, pretend = 0, frame = 0
 208              		@ frame_needed = 0, uses_anonymous_args = 0
 209              	.LVL7:
 210 0000 08B5     		push	{r3, lr}
 211              	.LCFI7:
 212              		.cfi_def_cfa_offset 8
 213              		.cfi_offset 3, -8
 214              		.cfi_offset 14, -4
 115:Core/Src/adc.c **** 
 116:Core/Src/adc.c ****   if(adcHandle->Instance==ADC1)
 215              		.loc 1 116 0
 216 0002 0268     		ldr	r2, [r0]
 217 0004 064B     		ldr	r3, .L22
 218 0006 9A42     		cmp	r2, r3
 219 0008 00D0     		beq	.L21
 220              	.LVL8:
 221              	.L18:
 117:Core/Src/adc.c ****   {
 118:Core/Src/adc.c ****   /* USER CODE BEGIN ADC1_MspDeInit 0 */
 119:Core/Src/adc.c **** 
 120:Core/Src/adc.c ****   /* USER CODE END ADC1_MspDeInit 0 */
 121:Core/Src/adc.c ****     /* Peripheral clock disable */
 122:Core/Src/adc.c ****     __HAL_RCC_ADC1_CLK_DISABLE();
 123:Core/Src/adc.c ****   
ARM GAS  C:\Users\n-is\AppData\Local\Temp\cckhL24t.s 			page 7


 124:Core/Src/adc.c ****     /**ADC1 GPIO Configuration    
 125:Core/Src/adc.c ****     PC4     ------> ADC1_IN14 
 126:Core/Src/adc.c ****     */
 127:Core/Src/adc.c ****     HAL_GPIO_DeInit(GPIOC, GPIO_PIN_4);
 128:Core/Src/adc.c **** 
 129:Core/Src/adc.c ****   /* USER CODE BEGIN ADC1_MspDeInit 1 */
 130:Core/Src/adc.c **** 
 131:Core/Src/adc.c ****   /* USER CODE END ADC1_MspDeInit 1 */
 132:Core/Src/adc.c ****   }
 133:Core/Src/adc.c **** } 
 222              		.loc 1 133 0
 223 000a 08BD     		pop	{r3, pc}
 224              	.LVL9:
 225              	.L21:
 122:Core/Src/adc.c ****   
 226              		.loc 1 122 0
 227 000c 054A     		ldr	r2, .L22+4
 228 000e 536C     		ldr	r3, [r2, #68]
 229 0010 23F48073 		bic	r3, r3, #256
 230 0014 5364     		str	r3, [r2, #68]
 127:Core/Src/adc.c **** 
 231              		.loc 1 127 0
 232 0016 1021     		movs	r1, #16
 233 0018 0348     		ldr	r0, .L22+8
 234              	.LVL10:
 235 001a FFF7FEFF 		bl	HAL_GPIO_DeInit
 236              	.LVL11:
 237              		.loc 1 133 0
 238 001e F4E7     		b	.L18
 239              	.L23:
 240              		.align	2
 241              	.L22:
 242 0020 00200140 		.word	1073815552
 243 0024 00380240 		.word	1073887232
 244 0028 00080240 		.word	1073874944
 245              		.cfi_endproc
 246              	.LFE128:
 248              		.comm	hadc1,72,4
 249              		.section	.rodata.MX_ADC1_Init.str1.4,"aMS",%progbits,1
 250              		.align	2
 251              	.LC0:
 252 0000 436F7265 		.ascii	"Core/Src/adc.c\000"
 252      2F537263 
 252      2F616463 
 252      2E6300
 253              		.text
 254              	.Letext0:
 255              		.file 2 "c:\\program files (x86)\\gnu tools arm embedded\\7 2018-q2-update\\arm-none-eabi\\include
 256              		.file 3 "c:\\program files (x86)\\gnu tools arm embedded\\7 2018-q2-update\\arm-none-eabi\\include
 257              		.file 4 "Drivers/CMSIS/Include/core_cm4.h"
 258              		.file 5 "Drivers/CMSIS/Device/ST/STM32F4xx/Include/system_stm32f4xx.h"
 259              		.file 6 "Drivers/CMSIS/Device/ST/STM32F4xx/Include/stm32f407xx.h"
 260              		.file 7 "c:\\program files (x86)\\gnu tools arm embedded\\7 2018-q2-update\\arm-none-eabi\\include
 261              		.file 8 "c:\\program files (x86)\\gnu tools arm embedded\\7 2018-q2-update\\arm-none-eabi\\include
 262              		.file 9 "c:\\program files (x86)\\gnu tools arm embedded\\7 2018-q2-update\\lib\\gcc\\arm-none-eab
 263              		.file 10 "c:\\program files (x86)\\gnu tools arm embedded\\7 2018-q2-update\\arm-none-eabi\\includ
 264              		.file 11 "Drivers/CMSIS/Device/ST/STM32F4xx/Include/stm32f4xx.h"
ARM GAS  C:\Users\n-is\AppData\Local\Temp\cckhL24t.s 			page 8


 265              		.file 12 "Drivers/STM32F4xx_HAL_Driver/Inc/stm32f4xx_hal_def.h"
 266              		.file 13 "Drivers/STM32F4xx_HAL_Driver/Inc/stm32f4xx_hal_gpio.h"
 267              		.file 14 "Drivers/STM32F4xx_HAL_Driver/Inc/stm32f4xx_hal_dma.h"
 268              		.file 15 "Drivers/STM32F4xx_HAL_Driver/Inc/stm32f4xx_hal_adc.h"
 269              		.file 16 "Core/Inc/adc.h"
ARM GAS  C:\Users\n-is\AppData\Local\Temp\cckhL24t.s 			page 9

