ARM GAS  C:\Users\n-is\AppData\Local\Temp\ccz9DQ8a.s 			page 1


   1              		.cpu cortex-m4
   2              		.eabi_attribute 27, 1
   3              		.eabi_attribute 28, 1
   4              		.eabi_attribute 20, 1
   5              		.eabi_attribute 21, 1
   6              		.eabi_attribute 23, 3
   7              		.eabi_attribute 24, 1
   8              		.eabi_attribute 25, 1
   9              		.eabi_attribute 26, 1
  10              		.eabi_attribute 30, 1
  11              		.eabi_attribute 34, 1
  12              		.eabi_attribute 18, 4
  13              		.file	"main.c"
  14              		.text
  15              	.Ltext0:
  16              		.cfi_sections	.debug_frame
  17              		.section	.text.set_DutyCycle,"ax",%progbits
  18              		.align	1
  19              		.global	set_DutyCycle
  20              		.syntax unified
  21              		.thumb
  22              		.thumb_func
  23              		.fpu fpv4-sp-d16
  25              	set_DutyCycle:
  26              	.LFB126:
  27              		.file 1 "Core/Src/main.c"
   1:Core/Src/main.c **** 
   2:Core/Src/main.c **** /**
   3:Core/Src/main.c ****   ******************************************************************************
   4:Core/Src/main.c ****   * @file           : main.c
   5:Core/Src/main.c ****   * @brief          : Main program body
   6:Core/Src/main.c ****   ******************************************************************************
   7:Core/Src/main.c ****   ** This notice applies to any and all portions of this file
   8:Core/Src/main.c ****   * that are not between comment pairs USER CODE BEGIN and
   9:Core/Src/main.c ****   * USER CODE END. Other portions of this file, whether 
  10:Core/Src/main.c ****   * inserted by the user or by software development tools
  11:Core/Src/main.c ****   * are owned by their respective copyright owners.
  12:Core/Src/main.c ****   *
  13:Core/Src/main.c ****   * COPYRIGHT(c) 2018 STMicroelectronics
  14:Core/Src/main.c ****   *
  15:Core/Src/main.c ****   * Redistribution and use in source and binary forms, with or without modification,
  16:Core/Src/main.c ****   * are permitted provided that the following conditions are met:
  17:Core/Src/main.c ****   *   1. Redistributions of source code must retain the above copyright notice,
  18:Core/Src/main.c ****   *      this list of conditions and the following disclaimer.
  19:Core/Src/main.c ****   *   2. Redistributions in binary form must reproduce the above copyright notice,
  20:Core/Src/main.c ****   *      this list of conditions and the following disclaimer in the documentation
  21:Core/Src/main.c ****   *      and/or other materials provided with the distribution.
  22:Core/Src/main.c ****   *   3. Neither the name of STMicroelectronics nor the names of its contributors
  23:Core/Src/main.c ****   *      may be used to endorse or promote products derived from this software
  24:Core/Src/main.c ****   *      without specific prior written permission.
  25:Core/Src/main.c ****   *
  26:Core/Src/main.c ****   * THIS SOFTWARE IS PROVIDED BY THE COPYRIGHT HOLDERS AND CONTRIBUTORS "AS IS"
  27:Core/Src/main.c ****   * AND ANY EXPRESS OR IMPLIED WARRANTIES, INCLUDING, BUT NOT LIMITED TO, THE
  28:Core/Src/main.c ****   * IMPLIED WARRANTIES OF MERCHANTABILITY AND FITNESS FOR A PARTICULAR PURPOSE ARE
  29:Core/Src/main.c ****   * DISCLAIMED. IN NO EVENT SHALL THE COPYRIGHT HOLDER OR CONTRIBUTORS BE LIABLE
  30:Core/Src/main.c ****   * FOR ANY DIRECT, INDIRECT, INCIDENTAL, SPECIAL, EXEMPLARY, OR CONSEQUENTIAL
  31:Core/Src/main.c ****   * DAMAGES (INCLUDING, BUT NOT LIMITED TO, PROCUREMENT OF SUBSTITUTE GOODS OR
ARM GAS  C:\Users\n-is\AppData\Local\Temp\ccz9DQ8a.s 			page 2


  32:Core/Src/main.c ****   * SERVICES; LOSS OF USE, DATA, OR PROFITS; OR BUSINESS INTERRUPTION) HOWEVER
  33:Core/Src/main.c ****   * CAUSED AND ON ANY THEORY OF LIABILITY, WHETHER IN CONTRACT, STRICT LIABILITY,
  34:Core/Src/main.c ****   * OR TORT (INCLUDING NEGLIGENCE OR OTHERWISE) ARISING IN ANY WAY OUT OF THE USE
  35:Core/Src/main.c ****   * OF THIS SOFTWARE, EVEN IF ADVISED OF THE POSSIBILITY OF SUCH DAMAGE.
  36:Core/Src/main.c ****   *
  37:Core/Src/main.c ****   ******************************************************************************
  38:Core/Src/main.c ****   */
  39:Core/Src/main.c **** /* Includes ------------------------------------------------------------------*/
  40:Core/Src/main.c **** #include "main.h"
  41:Core/Src/main.c **** #include "stm32f4xx_hal.h"
  42:Core/Src/main.c **** #include "adc.h"
  43:Core/Src/main.c **** #include "tim.h"
  44:Core/Src/main.c **** #include "usart.h"
  45:Core/Src/main.c **** #include "gpio.h"
  46:Core/Src/main.c **** 
  47:Core/Src/main.c **** /* USER CODE BEGIN Includes */
  48:Core/Src/main.c **** #include "defines.h"
  49:Core/Src/main.c **** /* USER CODE END Includes */
  50:Core/Src/main.c **** 
  51:Core/Src/main.c **** /* Private variables ---------------------------------------------------------*/
  52:Core/Src/main.c **** 
  53:Core/Src/main.c **** /* USER CODE BEGIN PV */
  54:Core/Src/main.c **** /* Private variables ---------------------------------------------------------*/
  55:Core/Src/main.c **** 
  56:Core/Src/main.c **** #define NUM_STEPS       (272)
  57:Core/Src/main.c **** 
  58:Core/Src/main.c **** float deltas[NUM_STEPS][2] = {
  59:Core/Src/main.c ****         { 0, 0 },
  60:Core/Src/main.c ****         { 0.1, 0 },
  61:Core/Src/main.c ****         { 0.1, 0.00333518672982534 },
  62:Core/Src/main.c ****         { 0.1, 0.00668153104781060 },
  63:Core/Src/main.c ****         { 0.1, 0.0100503781525921 },
  64:Core/Src/main.c ****         { 0.1, 0.0134534558799262 },
  65:Core/Src/main.c ****         { 0.1, 0.0169030850945703 },
  66:Core/Src/main.c ****         { 0.1, 0.0204124145231931 },
  67:Core/Src/main.c ****         { 0.1, 0.0239956909566871 },
  68:Core/Src/main.c ****         { 0.1, 0.0276685785546430 },
  69:Core/Src/main.c ****         { 0.1, 0.0314485451016576 },
  70:Core/Src/main.c ****         { 0.1, 0.0353553390593274 },
  71:Core/Src/main.c ****         { 0.1, 0.0394115900145010 },
  72:Core/Src/main.c ****         { 0.1, 0.0436435780471985 },
  73:Core/Src/main.c ****         { 0.1, 0.0480822368945951 },
  74:Core/Src/main.c ****         { 0.1, 0.0527644853011086 },
  75:Core/Src/main.c ****         { 0.1, 0.0577350269189626 },
  76:Core/Src/main.c ****         { 0.1, 0.0630488324991280 },
  77:Core/Src/main.c ****         { 0.1, 0.0687746384953325 },
  78:Core/Src/main.c ****         { 0.1, 0.0750000000000000 },
  79:Core/Src/main.c ****         { 0.1, 0.0818387935282501 },
  80:Core/Src/main.c ****         { 0.1, 0.0894427190999916 },
  81:Core/Src/main.c ****         { 0.1, 0.0980196058819607 },
  82:Core/Src/main.c ****         { 0.1, 0.107863874326001 },
  83:Core/Src/main.c ****         { 0.1, 0.119410050279768 },
  84:Core/Src/main.c ****         { 0.1, 0.133333333333333 },
  85:Core/Src/main.c ****         { 0.1, 0.150755672288882 },
  86:Core/Src/main.c ****         { 0.1, 0.173719807243076 },
  87:Core/Src/main.c ****         { 0.1, 0.206474160483506 },
  88:Core/Src/main.c ****         { 0.1, 0.259973473447873 },
ARM GAS  C:\Users\n-is\AppData\Local\Temp\ccz9DQ8a.s 			page 3


  89:Core/Src/main.c ****         { 0.1, 0.307547841844389 },
  90:Core/Src/main.c ****         { 0.1, 0.307547841844389 },
  91:Core/Src/main.c ****         { 0.1, 0.307547841844389 },
  92:Core/Src/main.c ****         { 0.1, 0.307547841844389 },
  93:Core/Src/main.c ****         { 0.1, 0.377547841844389 },
  94:Core/Src/main.c ****         { 0.1, 0.377547841844389 },
  95:Core/Src/main.c ****         { 0.1, 0.377547841844389 },
  96:Core/Src/main.c ****         { 0.1, 0.377547841844389 },
  97:Core/Src/main.c ****         { 0.1, 0.307547841844389 },
  98:Core/Src/main.c ****         { 0.1, 0.307547841844389 },
  99:Core/Src/main.c ****         { 0.1, 0.307547841844389 },
 100:Core/Src/main.c ****         { 0.1, 0.307547841844389 },
 101:Core/Src/main.c ****         { 0.1, 0.259973473447873 },
 102:Core/Src/main.c ****         { 0.1, 0.206474160483506 },
 103:Core/Src/main.c ****         { 0.1, 0.173719807243076 },
 104:Core/Src/main.c ****         { 0.1, 0.150755672288882 },
 105:Core/Src/main.c ****         { 0.1, 0.133333333333333 },
 106:Core/Src/main.c ****         { 0.1, 0.119410050279768 },
 107:Core/Src/main.c ****         { 0.1, 0.107863874326001 },
 108:Core/Src/main.c ****         { 0.1, 0.0980196058819607 },
 109:Core/Src/main.c ****         { 0.1, 0.0894427190999916 },
 110:Core/Src/main.c ****         { 0.1, 0.0818387935282501 },
 111:Core/Src/main.c ****         { 0.1, 0.0750000000000000 },
 112:Core/Src/main.c ****         { 0.1, 0.0687746384953325 },
 113:Core/Src/main.c ****         { 0.1, 0.0630488324991280 },
 114:Core/Src/main.c ****         { 0.1, 0.0577350269189626 },
 115:Core/Src/main.c ****         { 0.1, 0.0527644853011086 },
 116:Core/Src/main.c ****         { 0.1, 0.0480822368945951 },
 117:Core/Src/main.c ****         { 0.1, 0.0436435780471985 },
 118:Core/Src/main.c ****         { 0.1, 0.0394115900145010 },
 119:Core/Src/main.c ****         { 0.1, 0.0353553390593274 },
 120:Core/Src/main.c ****         { 0.1, 0.0314485451016576 },
 121:Core/Src/main.c ****         { 0.1, 0.0276685785546430 },
 122:Core/Src/main.c ****         { 0.1, 0.0239956909566871 },
 123:Core/Src/main.c ****         { 0.1, 0.0204124145231931 },
 124:Core/Src/main.c ****         { 0.1, 0.0169030850945703 },
 125:Core/Src/main.c ****         { 0.1, 0.0134534558799262 },
 126:Core/Src/main.c ****         { 0.1, 0.0100503781525921 },
 127:Core/Src/main.c ****         { 0.1, 0.00668153104781060 },
 128:Core/Src/main.c ****         { 0.1, 0.00333518672982534 },
 129:Core/Src/main.c ****         { 0.1, -0.00333518672982534 },
 130:Core/Src/main.c ****         { 0.1, -0.00668153104781060 },
 131:Core/Src/main.c ****         { 0.1, -0.0100503781525921 },
 132:Core/Src/main.c ****         { 0.1, -0.0134534558799262 },
 133:Core/Src/main.c ****         { 0.1, -0.0169030850945703 },
 134:Core/Src/main.c ****         { 0.1, -0.0204124145231931 },
 135:Core/Src/main.c ****         { 0.1, -0.0239956909566871 },
 136:Core/Src/main.c ****         { 0.1, -0.0276685785546430 },
 137:Core/Src/main.c ****         { 0.1, -0.0314485451016576 },
 138:Core/Src/main.c ****         { 0.1, -0.0353553390593274 },
 139:Core/Src/main.c ****         { 0.1, -0.0394115900145010 },
 140:Core/Src/main.c ****         { 0.1, -0.0436435780471985 },
 141:Core/Src/main.c ****         { 0.1, -0.0480822368945951 },
 142:Core/Src/main.c ****         { 0.1, -0.0527644853011086 },
 143:Core/Src/main.c ****         { 0.1, -0.0577350269189626 },
 144:Core/Src/main.c ****         { 0.1, -0.0630488324991280 },
 145:Core/Src/main.c ****         { 0.1, -0.0687746384953325 },
ARM GAS  C:\Users\n-is\AppData\Local\Temp\ccz9DQ8a.s 			page 4


 146:Core/Src/main.c ****         { 0.1, -0.0750000000000000 },
 147:Core/Src/main.c ****         { 0.1, -0.0818387935282501 },
 148:Core/Src/main.c ****         { 0.1, -0.0894427190999916 },
 149:Core/Src/main.c ****         { 0.1, -0.0980196058819607 },
 150:Core/Src/main.c ****         { 0.1, -0.107863874326001 },
 151:Core/Src/main.c ****         { 0.1, -0.119410050279768 },
 152:Core/Src/main.c ****         { 0.1, -0.133333333333333 },
 153:Core/Src/main.c ****         { 0.1, -0.150755672288882 },
 154:Core/Src/main.c ****         { 0.1, -0.173719807243076 },
 155:Core/Src/main.c ****         { 0.1, -0.206474160483506 },
 156:Core/Src/main.c ****         { 0.1, -0.259973473447873 },
 157:Core/Src/main.c ****         { 0.1, -0.307547841844389 },
 158:Core/Src/main.c ****         { 0.1, -0.307547841844389 },
 159:Core/Src/main.c ****         { 0.1, -0.307547841844389 },
 160:Core/Src/main.c ****         { 0.1, -0.307547841844389 },
 161:Core/Src/main.c ****         { 0.1, -0.377547841844389 },
 162:Core/Src/main.c ****         { 0.1, -0.377547841844389 },
 163:Core/Src/main.c ****         { 0.1, -0.307547841844389 },
 164:Core/Src/main.c ****         { 0.1, -0.307547841844389 },
 165:Core/Src/main.c ****         { 0.1, -0.307547841844389 },
 166:Core/Src/main.c ****         { 0.1, -0.307547841844389 },
 167:Core/Src/main.c ****         { 0.1, -0.259973473447873 },
 168:Core/Src/main.c ****         { 0.1, -0.206474160483506 },
 169:Core/Src/main.c ****         { 0.1, -0.173719807243076 },
 170:Core/Src/main.c ****         { 0.1, -0.150755672288882 },
 171:Core/Src/main.c ****         { 0.1, -0.133333333333333 },
 172:Core/Src/main.c ****         { 0.1, -0.119410050279768 },
 173:Core/Src/main.c ****         { 0.1, -0.107863874326001 },
 174:Core/Src/main.c ****         { 0.1, -0.0980196058819607 },
 175:Core/Src/main.c ****         { 0.1, -0.0894427190999916 },
 176:Core/Src/main.c ****         { 0.1, -0.0818387935282501 },
 177:Core/Src/main.c ****         { 0.1, -0.0750000000000000 },
 178:Core/Src/main.c ****         { 0.1, -0.0687746384953325 },
 179:Core/Src/main.c ****         { 0.1, -0.0630488324991280 },
 180:Core/Src/main.c ****         { 0.1, -0.0577350269189626 },
 181:Core/Src/main.c ****         { 0.1, -0.0527644853011086 },
 182:Core/Src/main.c ****         { 0.1, -0.0480822368945951 },
 183:Core/Src/main.c ****         { 0.1, -0.0436435780471985 },
 184:Core/Src/main.c ****         { 0.1, -0.0394115900145010 },
 185:Core/Src/main.c ****         { 0.1, -0.0353553390593274 },
 186:Core/Src/main.c ****         { 0.1, -0.0314485451016576 },
 187:Core/Src/main.c ****         { 0.1, -0.0276685785546430 },
 188:Core/Src/main.c ****         { 0.1, -0.0239956909566871 },
 189:Core/Src/main.c ****         { 0.1, -0.0204124145231931 },
 190:Core/Src/main.c ****         { 0.1, -0.0169030850945703 },
 191:Core/Src/main.c ****         { 0.1, -0.0134534558799262 },
 192:Core/Src/main.c ****         { 0.1, -0.0100503781525921 },
 193:Core/Src/main.c ****         { 0.075, -0.00668153104781060 },
 194:Core/Src/main.c ****         { 0.05, -0.00333518672982534 },
 195:Core/Src/main.c ****         
 196:Core/Src/main.c ****         { 0.025, 0.00333518672982534 },
 197:Core/Src/main.c ****         { 0.075, 0.00668153104781060 },
 198:Core/Src/main.c ****         { 0.1, 0.0100503781525921 },
 199:Core/Src/main.c ****         { 0.1, 0.0134534558799262 },
 200:Core/Src/main.c ****         { 0.1, 0.0169030850945703 },
 201:Core/Src/main.c ****         { 0.1, 0.0204124145231931 },
 202:Core/Src/main.c ****         { 0.1, 0.0239956909566871 },
ARM GAS  C:\Users\n-is\AppData\Local\Temp\ccz9DQ8a.s 			page 5


 203:Core/Src/main.c ****         { 0.1, 0.0276685785546430 },
 204:Core/Src/main.c ****         { 0.1, 0.0314485451016576 },
 205:Core/Src/main.c ****         { 0.1, 0.0353553390593274 },
 206:Core/Src/main.c ****         { 0.1, 0.0394115900145010 },
 207:Core/Src/main.c ****         { 0.1, 0.0436435780471985 },
 208:Core/Src/main.c ****         { 0.1, 0.0480822368945951 },
 209:Core/Src/main.c ****         { 0.1, 0.0527644853011086 },
 210:Core/Src/main.c ****         { 0.1, 0.0577350269189626 },
 211:Core/Src/main.c ****         { 0.1, 0.0630488324991280 },
 212:Core/Src/main.c ****         { 0.1, 0.0687746384953325 },
 213:Core/Src/main.c ****         { 0.1, 0.0750000000000000 },
 214:Core/Src/main.c ****         { 0.1, 0.0818387935282501 },
 215:Core/Src/main.c ****         { 0.1, 0.0894427190999916 },
 216:Core/Src/main.c ****         { 0.1, 0.0980196058819607 },
 217:Core/Src/main.c ****         { 0.1, 0.107863874326001 },
 218:Core/Src/main.c ****         { 0.1, 0.119410050279768 },
 219:Core/Src/main.c ****         { 0.1, 0.133333333333333 },
 220:Core/Src/main.c ****         { 0.1, 0.150755672288882 },
 221:Core/Src/main.c ****         { 0.1, 0.173719807243076 },
 222:Core/Src/main.c ****         { 0.1, 0.206474160483506 },
 223:Core/Src/main.c ****         { 0.1, 0.259973473447873 },
 224:Core/Src/main.c ****         { 0.1, 0.307547841844389 },
 225:Core/Src/main.c ****         { 0.1, 0.307547841844389 },
 226:Core/Src/main.c ****         { 0.1, 0.307547841844389 },
 227:Core/Src/main.c ****         { 0.1, 0.307547841844389 },
 228:Core/Src/main.c ****         { 0.1, 0.377547841844389 },
 229:Core/Src/main.c ****         { 0.1, 0.377547841844389 },
 230:Core/Src/main.c ****         { 0.1, 0.377547841844389 },
 231:Core/Src/main.c ****         { 0.1, 0.377547841844389 },
 232:Core/Src/main.c ****         { 0.1, 0.307547841844389 },
 233:Core/Src/main.c ****         { 0.1, 0.307547841844389 },
 234:Core/Src/main.c ****         { 0.1, 0.307547841844389 },
 235:Core/Src/main.c ****         { 0.1, 0.307547841844389 },
 236:Core/Src/main.c ****         { 0.1, 0.259973473447873 },
 237:Core/Src/main.c ****         { 0.1, 0.206474160483506 },
 238:Core/Src/main.c ****         { 0.1, 0.173719807243076 },
 239:Core/Src/main.c ****         { 0.1, 0.150755672288882 },
 240:Core/Src/main.c ****         { 0.1, 0.133333333333333 },
 241:Core/Src/main.c ****         { 0.1, 0.119410050279768 },
 242:Core/Src/main.c ****         { 0.1, 0.107863874326001 },
 243:Core/Src/main.c ****         { 0.1, 0.0980196058819607 },
 244:Core/Src/main.c ****         { 0.1, 0.0894427190999916 },
 245:Core/Src/main.c ****         { 0.1, 0.0818387935282501 },
 246:Core/Src/main.c ****         { 0.1, 0.0750000000000000 },
 247:Core/Src/main.c ****         { 0.1, 0.0687746384953325 },
 248:Core/Src/main.c ****         { 0.1, 0.0630488324991280 },
 249:Core/Src/main.c ****         { 0.1, 0.0577350269189626 },
 250:Core/Src/main.c ****         { 0.1, 0.0527644853011086 },
 251:Core/Src/main.c ****         { 0.1, 0.0480822368945951 },
 252:Core/Src/main.c ****         { 0.1, 0.0436435780471985 },
 253:Core/Src/main.c ****         { 0.1, 0.0394115900145010 },
 254:Core/Src/main.c ****         { 0.1, 0.0353553390593274 },
 255:Core/Src/main.c ****         { 0.1, 0.0314485451016576 },
 256:Core/Src/main.c ****         { 0.1, 0.0276685785546430 },
 257:Core/Src/main.c ****         { 0.1, 0.0239956909566871 },
 258:Core/Src/main.c ****         { 0.1, 0.0204124145231931 },
 259:Core/Src/main.c ****         { 0.1, 0.0169030850945703 },
ARM GAS  C:\Users\n-is\AppData\Local\Temp\ccz9DQ8a.s 			page 6


 260:Core/Src/main.c ****         { 0.1, 0.0134534558799262 },
 261:Core/Src/main.c ****         { 0.1, 0.0100503781525921 },
 262:Core/Src/main.c ****         { 0.1, 0.00668153104781060 },
 263:Core/Src/main.c ****         { 0.1, 0.00333518672982534 },
 264:Core/Src/main.c ****         { 0.1, -0.00333518672982534 },
 265:Core/Src/main.c ****         { 0.1, -0.00668153104781060 },
 266:Core/Src/main.c ****         { 0.1, -0.0100503781525921 },
 267:Core/Src/main.c ****         { 0.1, -0.0134534558799262 },
 268:Core/Src/main.c ****         { 0.1, -0.0169030850945703 },
 269:Core/Src/main.c ****         { 0.1, -0.0204124145231931 },
 270:Core/Src/main.c ****         { 0.1, -0.0239956909566871 },
 271:Core/Src/main.c ****         { 0.1, -0.0276685785546430 },
 272:Core/Src/main.c ****         { 0.1, -0.0314485451016576 },
 273:Core/Src/main.c ****         { 0.1, -0.0353553390593274 },
 274:Core/Src/main.c ****         { 0.1, -0.0394115900145010 },
 275:Core/Src/main.c ****         { 0.1, -0.0436435780471985 },
 276:Core/Src/main.c ****         { 0.1, -0.0480822368945951 },
 277:Core/Src/main.c ****         { 0.1, -0.0527644853011086 },
 278:Core/Src/main.c ****         { 0.1, -0.0577350269189626 },
 279:Core/Src/main.c ****         { 0.1, -0.0630488324991280 },
 280:Core/Src/main.c ****         { 0.1, -0.0687746384953325 },
 281:Core/Src/main.c ****         { 0.1, -0.0750000000000000 },
 282:Core/Src/main.c ****         { 0.1, -0.0818387935282501 },
 283:Core/Src/main.c ****         { 0.1, -0.0894427190999916 },
 284:Core/Src/main.c ****         { 0.1, -0.0980196058819607 },
 285:Core/Src/main.c ****         { 0.1, -0.107863874326001 },
 286:Core/Src/main.c ****         { 0.1, -0.119410050279768 },
 287:Core/Src/main.c ****         { 0.1, -0.133333333333333 },
 288:Core/Src/main.c ****         { 0.1, -0.150755672288882 },
 289:Core/Src/main.c ****         { 0.1, -0.173719807243076 },
 290:Core/Src/main.c ****         { 0.1, -0.206474160483506 },
 291:Core/Src/main.c ****         { 0.1, -0.259973473447873 },
 292:Core/Src/main.c ****         { 0.1, -0.307547841844389 },
 293:Core/Src/main.c ****         { 0.1, -0.307547841844389 },
 294:Core/Src/main.c ****         { 0.1, -0.307547841844389 },
 295:Core/Src/main.c ****         { 0.1, -0.307547841844389 },
 296:Core/Src/main.c ****         { 0.1, -0.377547841844389 },
 297:Core/Src/main.c ****         { 0.1, -0.377547841844389 },
 298:Core/Src/main.c ****         { 0.1, -0.307547841844389 },
 299:Core/Src/main.c ****         { 0.1, -0.307547841844389 },
 300:Core/Src/main.c ****         { 0.1, -0.307547841844389 },
 301:Core/Src/main.c ****         { 0.1, -0.307547841844389 },
 302:Core/Src/main.c ****         { 0.1, -0.259973473447873 },
 303:Core/Src/main.c ****         { 0.1, -0.206474160483506 },
 304:Core/Src/main.c ****         { 0.1, -0.173719807243076 },
 305:Core/Src/main.c ****         { 0.1, -0.150755672288882 },
 306:Core/Src/main.c ****         { 0.1, -0.133333333333333 },
 307:Core/Src/main.c ****         { 0.1, -0.119410050279768 },
 308:Core/Src/main.c ****         { 0.1, -0.107863874326001 },
 309:Core/Src/main.c ****         { 0.1, -0.0980196058819607 },
 310:Core/Src/main.c ****         { 0.1, -0.0894427190999916 },
 311:Core/Src/main.c ****         { 0.1, -0.0818387935282501 },
 312:Core/Src/main.c ****         { 0.1, -0.0750000000000000 },
 313:Core/Src/main.c ****         { 0.1, -0.0687746384953325 },
 314:Core/Src/main.c ****         { 0.1, -0.0630488324991280 },
 315:Core/Src/main.c ****         { 0.1, -0.0577350269189626 },
 316:Core/Src/main.c ****         { 0.1, -0.0527644853011086 },
ARM GAS  C:\Users\n-is\AppData\Local\Temp\ccz9DQ8a.s 			page 7


 317:Core/Src/main.c ****         { 0.1, -0.0480822368945951 },
 318:Core/Src/main.c ****         { 0.1, -0.0436435780471985 },
 319:Core/Src/main.c ****         { 0.1, -0.0394115900145010 },
 320:Core/Src/main.c ****         { 0.1, -0.0353553390593274 },
 321:Core/Src/main.c ****         { 0.1, -0.0314485451016576 },
 322:Core/Src/main.c ****         { 0.1, -0.0276685785546430 },
 323:Core/Src/main.c ****         { 0.1, -0.0239956909566871 },
 324:Core/Src/main.c ****         { 0.1, -0.0204124145231931 },
 325:Core/Src/main.c ****         { 0.1, -0.0169030850945703 },
 326:Core/Src/main.c ****         { 0.1, -0.0134534558799262 },
 327:Core/Src/main.c ****         { 0.1, -0.0100503781525921 },
 328:Core/Src/main.c ****         { 0.1, -0.00668153104781060 },
 329:Core/Src/main.c ****         { 0, -0.00333518672982534 },
 330:Core/Src/main.c ****         { 0, 0 },
 331:Core/Src/main.c ****         {0,0}
 332:Core/Src/main.c **** };
 333:Core/Src/main.c **** 
 334:Core/Src/main.c **** // float deltas[NUM_STEPS][2] = {
 335:Core/Src/main.c **** //     {0, 0},
 336:Core/Src/main.c **** //     {0.01, 0},
 337:Core/Src/main.c **** //     {0.02, 0},
 338:Core/Src/main.c **** //     {0.03, 0},
 339:Core/Src/main.c **** //     {0.04, 0},
 340:Core/Src/main.c **** //     {0.05, 0},
 341:Core/Src/main.c **** //     {0.06, 0},
 342:Core/Src/main.c **** //     {0.07, 0},
 343:Core/Src/main.c **** //     {0.08, 0},
 344:Core/Src/main.c **** //     {0.09, 0},
 345:Core/Src/main.c **** //     {0.1, 0},
 346:Core/Src/main.c **** //     {0.12, 0},
 347:Core/Src/main.c **** //     {0.14, 0},
 348:Core/Src/main.c **** //     {0.16, 0},
 349:Core/Src/main.c **** //     {0.18, 0},
 350:Core/Src/main.c **** //     {0.2, 0},
 351:Core/Src/main.c **** //     {0.2, 0},
 352:Core/Src/main.c **** //     {0.2, 0},
 353:Core/Src/main.c **** //     {0.2, 0},
 354:Core/Src/main.c **** //     {0.2, 0},
 355:Core/Src/main.c **** //     {0.2, 0},
 356:Core/Src/main.c **** //     {0.2, 0},
 357:Core/Src/main.c **** //     {0.2, 0},
 358:Core/Src/main.c **** //     {0.18, 0},
 359:Core/Src/main.c **** //     {0.16, 0},
 360:Core/Src/main.c **** //     {0.16, 0},
 361:Core/Src/main.c **** //     {0.14, 0},
 362:Core/Src/main.c **** //     {0.12, 0},
 363:Core/Src/main.c **** //     {0.1, 0},
 364:Core/Src/main.c **** //     {0.09, 0},
 365:Core/Src/main.c **** //     {0.08, 0},
 366:Core/Src/main.c **** //     {0.08, 0},
 367:Core/Src/main.c **** //     {0.07, 0},
 368:Core/Src/main.c **** //     {0.06, 0},
 369:Core/Src/main.c **** //     {0.05, 0},
 370:Core/Src/main.c **** //     {0.04, 0},
 371:Core/Src/main.c **** //     {0.03, 0},
 372:Core/Src/main.c **** //     {0.02, 0},
 373:Core/Src/main.c **** //     {0.01, 0},
ARM GAS  C:\Users\n-is\AppData\Local\Temp\ccz9DQ8a.s 			page 8


 374:Core/Src/main.c **** //     {0, 0}
 375:Core/Src/main.c **** 
 376:Core/Src/main.c **** // };
 377:Core/Src/main.c **** 
 378:Core/Src/main.c **** static uint8_t index = 0;
 379:Core/Src/main.c **** const float time = 0.377;
 380:Core/Src/main.c **** const uint8_t Speed_Multiplier = 1.9;
 381:Core/Src/main.c **** 
 382:Core/Src/main.c **** float velocities[NUM_STEPS][4];
 383:Core/Src/main.c **** 
 384:Core/Src/main.c **** float tmp_omega;
 385:Core/Src/main.c **** 
 386:Core/Src/main.c **** enum Dirn {
 387:Core/Src/main.c ****         HALT,
 388:Core/Src/main.c ****         AHEAD,
 389:Core/Src/main.c ****         BACK
 390:Core/Src/main.c **** };
 391:Core/Src/main.c **** 
 392:Core/Src/main.c **** /* USER CODE END PV */
 393:Core/Src/main.c **** 
 394:Core/Src/main.c **** /* Private function prototypes -----------------------------------------------*/
 395:Core/Src/main.c **** void SystemClock_Config(void);
 396:Core/Src/main.c **** 
 397:Core/Src/main.c **** /* USER CODE BEGIN PFP */
 398:Core/Src/main.c **** /* Private function prototypes -----------------------------------------------*/
 399:Core/Src/main.c **** 
 400:Core/Src/main.c **** uint16_t time_period(uint16_t PWM_frequency);
 401:Core/Src/main.c **** /* USER CODE END PFP */
 402:Core/Src/main.c **** 
 403:Core/Src/main.c **** /* USER CODE BEGIN 0 */
 404:Core/Src/main.c **** 
 405:Core/Src/main.c **** /* SET DUTYCYCLE function */
 406:Core/Src/main.c **** void set_DutyCycle (TIM_HandleTypeDef *htim, uint32_t Channel, uint16_t dutyCycle)
 407:Core/Src/main.c **** {
  28              		.loc 1 407 0
  29              		.cfi_startproc
  30              		@ args = 0, pretend = 0, frame = 0
  31              		@ frame_needed = 0, uses_anonymous_args = 0
  32              	.LVL0:
  33 0000 70B5     		push	{r4, r5, r6, lr}
  34              	.LCFI0:
  35              		.cfi_def_cfa_offset 16
  36              		.cfi_offset 4, -16
  37              		.cfi_offset 5, -12
  38              		.cfi_offset 6, -8
  39              		.cfi_offset 14, -4
  40 0002 0646     		mov	r6, r0
  41 0004 0D46     		mov	r5, r1
  42 0006 1446     		mov	r4, r2
 408:Core/Src/main.c ****         uint16_t mapped_value;
 409:Core/Src/main.c ****         mapped_value = (time_period(MOTOR_DRIVER_FREQUENCY)*dutyCycle)/65535;
  43              		.loc 1 409 0
  44 0008 4FF4FA50 		mov	r0, #8000
  45              	.LVL1:
  46 000c FFF7FEFF 		bl	time_period
  47              	.LVL2:
  48 0010 00FB04F0 		mul	r0, r0, r4
ARM GAS  C:\Users\n-is\AppData\Local\Temp\ccz9DQ8a.s 			page 9


  49 0014 064B     		ldr	r3, .L3
  50 0016 83FB0023 		smull	r2, r3, r3, r0
  51 001a 0344     		add	r3, r3, r0
  52 001c C017     		asrs	r0, r0, #31
  53 001e C0EBE330 		rsb	r0, r0, r3, asr #15
  54              	.LVL3:
 410:Core/Src/main.c ****         __HAL_TIM_SET_COMPARE(htim, Channel, mapped_value);
  55              		.loc 1 410 0
  56 0022 3368     		ldr	r3, [r6]
  57 0024 3433     		adds	r3, r3, #52
  58 0026 AD08     		lsrs	r5, r5, #2
  59              	.LVL4:
  60 0028 80B2     		uxth	r0, r0
  61 002a 43F82500 		str	r0, [r3, r5, lsl #2]
 411:Core/Src/main.c **** }
  62              		.loc 1 411 0
  63 002e 70BD     		pop	{r4, r5, r6, pc}
  64              	.LVL5:
  65              	.L4:
  66              		.align	2
  67              	.L3:
  68 0030 01800080 		.word	-2147450879
  69              		.cfi_endproc
  70              	.LFE126:
  72              		.section	.text.float_abs,"ax",%progbits
  73              		.align	1
  74              		.global	float_abs
  75              		.syntax unified
  76              		.thumb
  77              		.thumb_func
  78              		.fpu fpv4-sp-d16
  80              	float_abs:
  81              	.LFB127:
 412:Core/Src/main.c **** 
 413:Core/Src/main.c **** float float_abs(float x) {
  82              		.loc 1 413 0
  83              		.cfi_startproc
  84              		@ args = 0, pretend = 0, frame = 0
  85              		@ frame_needed = 0, uses_anonymous_args = 0
  86              		@ link register save eliminated.
  87              	.LVL6:
 414:Core/Src/main.c ****         if (x < 0) {
  88              		.loc 1 414 0
  89 0000 B5EEC00A 		vcmpe.f32	s0, #0
  90 0004 F1EE10FA 		vmrs	APSR_nzcv, FPSCR
  91 0008 00D4     		bmi	.L9
  92              	.LVL7:
  93              	.L6:
 415:Core/Src/main.c ****                 return (-1 * x);
 416:Core/Src/main.c ****         }
 417:Core/Src/main.c ****         return x;
 418:Core/Src/main.c **** }
  94              		.loc 1 418 0
  95 000a 7047     		bx	lr
  96              	.LVL8:
  97              	.L9:
 415:Core/Src/main.c ****                 return (-1 * x);
ARM GAS  C:\Users\n-is\AppData\Local\Temp\ccz9DQ8a.s 			page 10


  98              		.loc 1 415 0
  99 000c B1EE400A 		vneg.f32	s0, s0
 100              	.LVL9:
 101 0010 FBE7     		b	.L6
 102              		.cfi_endproc
 103              	.LFE127:
 105              		.section	.text.wheel_init,"ax",%progbits
 106              		.align	1
 107              		.global	wheel_init
 108              		.syntax unified
 109              		.thumb
 110              		.thumb_func
 111              		.fpu fpv4-sp-d16
 113              	wheel_init:
 114              	.LFB128:
 419:Core/Src/main.c **** 
 420:Core/Src/main.c **** 
 421:Core/Src/main.c **** typedef struct
 422:Core/Src/main.c **** {
 423:Core/Src/main.c ****         uint8_t id;
 424:Core/Src/main.c ****         float radius;
 425:Core/Src/main.c ****         float wheel_velcoity;
 426:Core/Src/main.c ****         float omega;
 427:Core/Src/main.c ****         enum Dirn direction;
 428:Core/Src/main.c ****         GPIO_TypeDef * in1_port;
 429:Core/Src/main.c ****         uint16_t in1_pin;
 430:Core/Src/main.c ****         GPIO_TypeDef * in2_port;
 431:Core/Src/main.c ****         uint16_t in2_pin;
 432:Core/Src/main.c **** } wheel;
 433:Core/Src/main.c **** 
 434:Core/Src/main.c **** wheel w[4];
 435:Core/Src/main.c **** void wheel_init(void)
 436:Core/Src/main.c **** {
 115              		.loc 1 436 0
 116              		.cfi_startproc
 117              		@ args = 0, pretend = 0, frame = 0
 118              		@ frame_needed = 0, uses_anonymous_args = 0
 119              		@ link register save eliminated.
 120              	.LVL10:
 437:Core/Src/main.c ****         int i;
 438:Core/Src/main.c ****         for (i = 0; i < 4; i++)
 121              		.loc 1 438 0
 122 0000 0023     		movs	r3, #0
 123 0002 08E0     		b	.L11
 124              	.LVL11:
 125              	.L12:
 439:Core/Src/main.c ****         {
 440:Core/Src/main.c ****                 w[i].id = i;
 126              		.loc 1 440 0 discriminator 3
 127 0004 1A48     		ldr	r0, .L13
 128 0006 DA00     		lsls	r2, r3, #3
 129 0008 1A44     		add	r2, r2, r3
 130 000a 9100     		lsls	r1, r2, #2
 131 000c 4218     		adds	r2, r0, r1
 132 000e 4354     		strb	r3, [r0, r1]
 441:Core/Src/main.c ****                 w[i].radius = 0.067;
 133              		.loc 1 441 0 discriminator 3
ARM GAS  C:\Users\n-is\AppData\Local\Temp\ccz9DQ8a.s 			page 11


 134 0010 1849     		ldr	r1, .L13+4
 135 0012 5160     		str	r1, [r2, #4]	@ float
 438:Core/Src/main.c ****         {
 136              		.loc 1 438 0 discriminator 3
 137 0014 0133     		adds	r3, r3, #1
 138              	.LVL12:
 139              	.L11:
 438:Core/Src/main.c ****         {
 140              		.loc 1 438 0 is_stmt 0 discriminator 1
 141 0016 032B     		cmp	r3, #3
 142 0018 F4DD     		ble	.L12
 442:Core/Src/main.c ****         }
 443:Core/Src/main.c ****         w[0].in1_port = GPIOD;
 143              		.loc 1 443 0 is_stmt 1
 144 001a 154B     		ldr	r3, .L13
 145              	.LVL13:
 146 001c 164A     		ldr	r2, .L13+8
 147 001e 5A61     		str	r2, [r3, #20]
 444:Core/Src/main.c ****         w[0].in1_pin = GPIO_PIN_1;
 148              		.loc 1 444 0
 149 0020 0221     		movs	r1, #2
 150 0022 1983     		strh	r1, [r3, #24]	@ movhi
 445:Core/Src/main.c ****         w[0].in2_port = GPIOD;
 151              		.loc 1 445 0
 152 0024 DA61     		str	r2, [r3, #28]
 446:Core/Src/main.c ****         w[0].in2_pin = GPIO_PIN_3;
 153              		.loc 1 446 0
 154 0026 0821     		movs	r1, #8
 155 0028 1984     		strh	r1, [r3, #32]	@ movhi
 447:Core/Src/main.c ****         
 448:Core/Src/main.c ****         w[1].in1_port = GPIOD;
 156              		.loc 1 448 0
 157 002a 9A63     		str	r2, [r3, #56]
 449:Core/Src/main.c ****         w[1].in1_pin = GPIO_PIN_5;
 158              		.loc 1 449 0
 159 002c 2021     		movs	r1, #32
 160 002e 9987     		strh	r1, [r3, #60]	@ movhi
 450:Core/Src/main.c ****         w[1].in2_port = GPIOD;
 161              		.loc 1 450 0
 162 0030 1A64     		str	r2, [r3, #64]
 451:Core/Src/main.c ****         w[1].in2_pin = GPIO_PIN_14;
 163              		.loc 1 451 0
 164 0032 4FF48041 		mov	r1, #16384
 165 0036 A3F84410 		strh	r1, [r3, #68]	@ movhi
 452:Core/Src/main.c ****         
 453:Core/Src/main.c ****         w[2].in1_port = GPIOD;
 166              		.loc 1 453 0
 167 003a DA65     		str	r2, [r3, #92]
 454:Core/Src/main.c ****         w[2].in1_pin = GPIO_PIN_7;
 168              		.loc 1 454 0
 169 003c 8021     		movs	r1, #128
 170 003e A3F86010 		strh	r1, [r3, #96]	@ movhi
 455:Core/Src/main.c ****         w[2].in2_port = GPIOD;
 171              		.loc 1 455 0
 172 0042 5A66     		str	r2, [r3, #100]
 456:Core/Src/main.c ****         w[2].in2_pin = GPIO_PIN_15;
 173              		.loc 1 456 0
ARM GAS  C:\Users\n-is\AppData\Local\Temp\ccz9DQ8a.s 			page 12


 174 0044 4FF40042 		mov	r2, #32768
 175 0048 A3F86820 		strh	r2, [r3, #104]	@ movhi
 457:Core/Src/main.c ****         
 458:Core/Src/main.c ****         w[3].in1_port = GPIOC;
 176              		.loc 1 458 0
 177 004c 02F18042 		add	r2, r2, #1073741824
 178 0050 02F5C432 		add	r2, r2, #100352
 179 0054 C3F88020 		str	r2, [r3, #128]
 459:Core/Src/main.c ****         w[3].in1_pin = GPIO_PIN_12;
 180              		.loc 1 459 0
 181 0058 4FF48051 		mov	r1, #4096
 182 005c A3F88410 		strh	r1, [r3, #132]	@ movhi
 460:Core/Src/main.c ****         w[3].in2_port = GPIOC;
 183              		.loc 1 460 0
 184 0060 C3F88820 		str	r2, [r3, #136]
 461:Core/Src/main.c ****         w[3].in2_pin = GPIO_PIN_10;
 185              		.loc 1 461 0
 186 0064 4FF48062 		mov	r2, #1024
 187 0068 A3F88C20 		strh	r2, [r3, #140]	@ movhi
 462:Core/Src/main.c **** }
 188              		.loc 1 462 0
 189 006c 7047     		bx	lr
 190              	.L14:
 191 006e 00BF     		.align	2
 192              	.L13:
 193 0070 00000000 		.word	w
 194 0074 4C37893D 		.word	1032402764
 195 0078 000C0240 		.word	1073875968
 196              		.cfi_endproc
 197              	.LFE128:
 199              		.section	.text.calculate_robot_velocity,"ax",%progbits
 200              		.align	1
 201              		.global	calculate_robot_velocity
 202              		.syntax unified
 203              		.thumb
 204              		.thumb_func
 205              		.fpu fpv4-sp-d16
 207              	calculate_robot_velocity:
 208              	.LFB129:
 463:Core/Src/main.c **** 
 464:Core/Src/main.c **** void calculate_robot_velocity()
 465:Core/Src/main.c **** {
 209              		.loc 1 465 0
 210              		.cfi_startproc
 211              		@ args = 0, pretend = 0, frame = 64
 212              		@ frame_needed = 0, uses_anonymous_args = 0
 213              		@ link register save eliminated.
 214 0000 F0B4     		push	{r4, r5, r6, r7}
 215              	.LCFI1:
 216              		.cfi_def_cfa_offset 16
 217              		.cfi_offset 4, -16
 218              		.cfi_offset 5, -12
 219              		.cfi_offset 6, -8
 220              		.cfi_offset 7, -4
 221 0002 90B0     		sub	sp, sp, #64
 222              	.LCFI2:
 223              		.cfi_def_cfa_offset 80
ARM GAS  C:\Users\n-is\AppData\Local\Temp\ccz9DQ8a.s 			page 13


 466:Core/Src/main.c ****         float x,y;
 467:Core/Src/main.c ****         x = deltas[index][0] * Speed_Multiplier;
 224              		.loc 1 467 0
 225 0004 2F4B     		ldr	r3, .L22
 226 0006 1C78     		ldrb	r4, [r3]	@ zero_extendqisi2
 227 0008 2546     		mov	r5, r4
 228 000a 2F4B     		ldr	r3, .L22+4
 229 000c 03EBC403 		add	r3, r3, r4, lsl #3
 230 0010 93ED006A 		vldr.32	s12, [r3]
 231              	.LVL14:
 468:Core/Src/main.c ****         y = deltas[index][1] * Speed_Multiplier;
 232              		.loc 1 468 0
 233 0014 D3ED016A 		vldr.32	s13, [r3, #4]
 234              	.LVL15:
 469:Core/Src/main.c ****         float velocity[3] = {x / time, y / time, 0};
 235              		.loc 1 469 0
 236 0018 DFED2C7A 		vldr.32	s15, .L22+8
 237 001c 86EE277A 		vdiv.f32	s14, s12, s15
 238 0020 8DED0D7A 		vstr.32	s14, [sp, #52]
 239 0024 86EEA77A 		vdiv.f32	s14, s13, s15
 240 0028 8DED0E7A 		vstr.32	s14, [sp, #56]
 241 002c 0023     		movs	r3, #0
 242 002e 0F93     		str	r3, [sp, #60]	@ float
 470:Core/Src/main.c ****         int coupling_matrix[4][3] = {{-1, 1, 1}, {1, 1, 1}, {-1, 1, -1}, {1, 1, -1}}; //const vaner
 243              		.loc 1 470 0
 244 0030 01AE     		add	r6, sp, #4
 245 0032 274F     		ldr	r7, .L22+12
 246 0034 0FCF     		ldmia	r7!, {r0, r1, r2, r3}
 247 0036 0FC6     		stmia	r6!, {r0, r1, r2, r3}
 248 0038 0FCF     		ldmia	r7!, {r0, r1, r2, r3}
 249 003a 0FC6     		stmia	r6!, {r0, r1, r2, r3}
 250 003c 97E80F00 		ldm	r7, {r0, r1, r2, r3}
 251 0040 86E80F00 		stm	r6, {r0, r1, r2, r3}
 252              	.LVL16:
 253              	.LBB2:
 471:Core/Src/main.c **** 
 472:Core/Src/main.c ****         for (int i = 0; i < 4; i++)
 254              		.loc 1 472 0
 255 0044 0023     		movs	r3, #0
 256 0046 2BE0     		b	.L16
 257              	.LVL17:
 258              	.L18:
 259              	.LBB3:
 473:Core/Src/main.c ****         {
 474:Core/Src/main.c ****                 w[i].wheel_velcoity = 0;
 475:Core/Src/main.c ****                 for (int j = 0; j < 3; j++)
 476:Core/Src/main.c ****                 {
 477:Core/Src/main.c ****                         w[i].wheel_velcoity += velocity[j] * coupling_matrix[i][j];
 260              		.loc 1 477 0 discriminator 3
 261 0048 10AA     		add	r2, sp, #64
 262 004a 02EB8102 		add	r2, r2, r1, lsl #2
 263 004e 12ED037A 		vldr.32	s14, [r2, #-12]
 264 0052 03EB4302 		add	r2, r3, r3, lsl #1
 265 0056 0A44     		add	r2, r2, r1
 266 0058 10A8     		add	r0, sp, #64
 267 005a 00EB8202 		add	r2, r0, r2, lsl #2
 268 005e 52ED0F7A 		vldr.32	s15, [r2, #-60]	@ int
ARM GAS  C:\Users\n-is\AppData\Local\Temp\ccz9DQ8a.s 			page 14


 269 0062 F8EEE77A 		vcvt.f32.s32	s15, s15
 270 0066 67EE877A 		vmul.f32	s15, s15, s14
 271 006a D800     		lsls	r0, r3, #3
 272 006c 1844     		add	r0, r0, r3
 273 006e 8600     		lsls	r6, r0, #2
 274 0070 184A     		ldr	r2, .L22+16
 275 0072 3244     		add	r2, r2, r6
 276 0074 92ED027A 		vldr.32	s14, [r2, #8]
 277 0078 77EE277A 		vadd.f32	s15, s14, s15
 278 007c C2ED027A 		vstr.32	s15, [r2, #8]
 475:Core/Src/main.c ****                 {
 279              		.loc 1 475 0 discriminator 3
 280 0080 0131     		adds	r1, r1, #1
 281              	.LVL18:
 282              	.L17:
 475:Core/Src/main.c ****                 {
 283              		.loc 1 475 0 is_stmt 0 discriminator 1
 284 0082 0229     		cmp	r1, #2
 285 0084 E0DD     		ble	.L18
 286              	.LBE3:
 478:Core/Src/main.c ****                 }
 479:Core/Src/main.c ****                 velocities[index][i] = w[i].wheel_velcoity;
 287              		.loc 1 479 0 is_stmt 1 discriminator 2
 288 0086 03EBC302 		add	r2, r3, r3, lsl #3
 289 008a 9100     		lsls	r1, r2, #2
 290              	.LVL19:
 291 008c 114A     		ldr	r2, .L22+16
 292 008e 0A44     		add	r2, r2, r1
 293 0090 9168     		ldr	r1, [r2, #8]	@ float
 294 0092 03EB8500 		add	r0, r3, r5, lsl #2
 295 0096 104A     		ldr	r2, .L22+20
 296 0098 02EB8002 		add	r2, r2, r0, lsl #2
 297 009c 1160     		str	r1, [r2]	@ float
 472:Core/Src/main.c ****         {
 298              		.loc 1 472 0 discriminator 2
 299 009e 0133     		adds	r3, r3, #1
 300              	.LVL20:
 301              	.L16:
 472:Core/Src/main.c ****         {
 302              		.loc 1 472 0 is_stmt 0 discriminator 1
 303 00a0 032B     		cmp	r3, #3
 304 00a2 08DC     		bgt	.L21
 474:Core/Src/main.c ****                 for (int j = 0; j < 3; j++)
 305              		.loc 1 474 0 is_stmt 1
 306 00a4 03EBC302 		add	r2, r3, r3, lsl #3
 307 00a8 9100     		lsls	r1, r2, #2
 308 00aa 0A4A     		ldr	r2, .L22+16
 309 00ac 0A44     		add	r2, r2, r1
 310 00ae 0021     		movs	r1, #0
 311 00b0 9160     		str	r1, [r2, #8]	@ float
 312              	.LVL21:
 313              	.LBB4:
 475:Core/Src/main.c ****                 {
 314              		.loc 1 475 0
 315 00b2 0021     		movs	r1, #0
 316 00b4 E5E7     		b	.L17
 317              	.LVL22:
ARM GAS  C:\Users\n-is\AppData\Local\Temp\ccz9DQ8a.s 			page 15


 318              	.L21:
 319              	.LBE4:
 320              	.LBE2:
 480:Core/Src/main.c ****         }
 481:Core/Src/main.c ****         ++index;
 321              		.loc 1 481 0
 322 00b6 0134     		adds	r4, r4, #1
 323 00b8 024B     		ldr	r3, .L22
 324              	.LVL23:
 325 00ba 1C70     		strb	r4, [r3]
 482:Core/Src/main.c **** }
 326              		.loc 1 482 0
 327 00bc 10B0     		add	sp, sp, #64
 328              	.LCFI3:
 329              		.cfi_def_cfa_offset 16
 330              		@ sp needed
 331 00be F0BC     		pop	{r4, r5, r6, r7}
 332              	.LCFI4:
 333              		.cfi_restore 7
 334              		.cfi_restore 6
 335              		.cfi_restore 5
 336              		.cfi_restore 4
 337              		.cfi_def_cfa_offset 0
 338 00c0 7047     		bx	lr
 339              	.L23:
 340 00c2 00BF     		.align	2
 341              	.L22:
 342 00c4 00000000 		.word	.LANCHOR0
 343 00c8 00000000 		.word	.LANCHOR1
 344 00cc 2506C13E 		.word	1052837413
 345 00d0 00000000 		.word	.LANCHOR2
 346 00d4 00000000 		.word	w
 347 00d8 00000000 		.word	velocities
 348              		.cfi_endproc
 349              	.LFE129:
 351              		.section	.text.calculate_omega,"ax",%progbits
 352              		.align	1
 353              		.global	calculate_omega
 354              		.syntax unified
 355              		.thumb
 356              		.thumb_func
 357              		.fpu fpv4-sp-d16
 359              	calculate_omega:
 360              	.LFB130:
 483:Core/Src/main.c **** 
 484:Core/Src/main.c **** void calculate_omega()
 485:Core/Src/main.c **** {
 361              		.loc 1 485 0
 362              		.cfi_startproc
 363              		@ args = 0, pretend = 0, frame = 0
 364              		@ frame_needed = 0, uses_anonymous_args = 0
 365              		@ link register save eliminated.
 366              	.LVL24:
 367              	.LBB5:
 486:Core/Src/main.c ****         for (int i = 0; i < 4; ++i) {
 368              		.loc 1 486 0
 369 0000 0022     		movs	r2, #0
ARM GAS  C:\Users\n-is\AppData\Local\Temp\ccz9DQ8a.s 			page 16


 370 0002 0DE0     		b	.L25
 371              	.LVL25:
 372              	.L26:
 487:Core/Src/main.c ****                 w[i].omega = w[i].wheel_velcoity / w[i].radius;
 373              		.loc 1 487 0 discriminator 3
 374 0004 D100     		lsls	r1, r2, #3
 375 0006 1144     		add	r1, r1, r2
 376 0008 8800     		lsls	r0, r1, #2
 377 000a 074B     		ldr	r3, .L27
 378 000c 0344     		add	r3, r3, r0
 379 000e D3ED026A 		vldr.32	s13, [r3, #8]
 380 0012 93ED017A 		vldr.32	s14, [r3, #4]
 381 0016 C6EE877A 		vdiv.f32	s15, s13, s14
 382 001a C3ED037A 		vstr.32	s15, [r3, #12]
 486:Core/Src/main.c ****         for (int i = 0; i < 4; ++i) {
 383              		.loc 1 486 0 discriminator 3
 384 001e 0132     		adds	r2, r2, #1
 385              	.LVL26:
 386              	.L25:
 486:Core/Src/main.c ****         for (int i = 0; i < 4; ++i) {
 387              		.loc 1 486 0 is_stmt 0 discriminator 1
 388 0020 032A     		cmp	r2, #3
 389 0022 EFDD     		ble	.L26
 390              	.LBE5:
 488:Core/Src/main.c ****         }
 489:Core/Src/main.c **** }
 391              		.loc 1 489 0 is_stmt 1
 392 0024 7047     		bx	lr
 393              	.L28:
 394 0026 00BF     		.align	2
 395              	.L27:
 396 0028 00000000 		.word	w
 397              		.cfi_endproc
 398              	.LFE130:
 400              		.section	.text.set_Direction,"ax",%progbits
 401              		.align	1
 402              		.global	set_Direction
 403              		.syntax unified
 404              		.thumb
 405              		.thumb_func
 406              		.fpu fpv4-sp-d16
 408              	set_Direction:
 409              	.LFB131:
 490:Core/Src/main.c **** 
 491:Core/Src/main.c **** void set_Direction(wheel * w)
 492:Core/Src/main.c **** {
 410              		.loc 1 492 0
 411              		.cfi_startproc
 412              		@ args = 0, pretend = 0, frame = 0
 413              		@ frame_needed = 0, uses_anonymous_args = 0
 414              	.LVL27:
 415 0000 10B5     		push	{r4, lr}
 416              	.LCFI5:
 417              		.cfi_def_cfa_offset 8
 418              		.cfi_offset 4, -8
 419              		.cfi_offset 14, -4
 420 0002 0446     		mov	r4, r0
ARM GAS  C:\Users\n-is\AppData\Local\Temp\ccz9DQ8a.s 			page 17


 493:Core/Src/main.c ****         if (w->direction == AHEAD) {
 421              		.loc 1 493 0
 422 0004 037C     		ldrb	r3, [r0, #16]	@ zero_extendqisi2
 423 0006 012B     		cmp	r3, #1
 424 0008 0CD0     		beq	.L34
 494:Core/Src/main.c ****                 HAL_GPIO_WritePin(w->in1_port, w->in1_pin, SET);
 495:Core/Src/main.c ****                 HAL_GPIO_WritePin(w->in2_port, w->in2_pin, RESET);
 496:Core/Src/main.c ****         }        
 497:Core/Src/main.c ****         else if (w->direction == BACK) {
 425              		.loc 1 497 0
 426 000a 022B     		cmp	r3, #2
 427 000c 15D0     		beq	.L35
 498:Core/Src/main.c ****                 HAL_GPIO_WritePin(w->in1_port, w->in1_pin, RESET);
 499:Core/Src/main.c ****                 HAL_GPIO_WritePin(w->in2_port, w->in2_pin, SET);
 500:Core/Src/main.c ****         }
 501:Core/Src/main.c ****         else {
 502:Core/Src/main.c ****                 HAL_GPIO_WritePin(w->in1_port, w->in1_pin, RESET);
 428              		.loc 1 502 0
 429 000e 0022     		movs	r2, #0
 430 0010 018B     		ldrh	r1, [r0, #24]
 431 0012 4069     		ldr	r0, [r0, #20]
 432              	.LVL28:
 433 0014 FFF7FEFF 		bl	HAL_GPIO_WritePin
 434              	.LVL29:
 503:Core/Src/main.c ****                 HAL_GPIO_WritePin(w->in2_port, w->in2_pin, RESET);
 435              		.loc 1 503 0
 436 0018 0022     		movs	r2, #0
 437 001a 218C     		ldrh	r1, [r4, #32]
 438 001c E069     		ldr	r0, [r4, #28]
 439 001e FFF7FEFF 		bl	HAL_GPIO_WritePin
 440              	.LVL30:
 441              	.L29:
 504:Core/Src/main.c ****         }
 505:Core/Src/main.c **** }
 442              		.loc 1 505 0
 443 0022 10BD     		pop	{r4, pc}
 444              	.LVL31:
 445              	.L34:
 494:Core/Src/main.c ****                 HAL_GPIO_WritePin(w->in2_port, w->in2_pin, RESET);
 446              		.loc 1 494 0
 447 0024 0122     		movs	r2, #1
 448 0026 018B     		ldrh	r1, [r0, #24]
 449 0028 4069     		ldr	r0, [r0, #20]
 450              	.LVL32:
 451 002a FFF7FEFF 		bl	HAL_GPIO_WritePin
 452              	.LVL33:
 495:Core/Src/main.c ****         }        
 453              		.loc 1 495 0
 454 002e 0022     		movs	r2, #0
 455 0030 218C     		ldrh	r1, [r4, #32]
 456 0032 E069     		ldr	r0, [r4, #28]
 457 0034 FFF7FEFF 		bl	HAL_GPIO_WritePin
 458              	.LVL34:
 459 0038 F3E7     		b	.L29
 460              	.LVL35:
 461              	.L35:
 498:Core/Src/main.c ****                 HAL_GPIO_WritePin(w->in2_port, w->in2_pin, SET);
ARM GAS  C:\Users\n-is\AppData\Local\Temp\ccz9DQ8a.s 			page 18


 462              		.loc 1 498 0
 463 003a 0022     		movs	r2, #0
 464 003c 018B     		ldrh	r1, [r0, #24]
 465 003e 4069     		ldr	r0, [r0, #20]
 466              	.LVL36:
 467 0040 FFF7FEFF 		bl	HAL_GPIO_WritePin
 468              	.LVL37:
 499:Core/Src/main.c ****         }
 469              		.loc 1 499 0
 470 0044 0122     		movs	r2, #1
 471 0046 218C     		ldrh	r1, [r4, #32]
 472 0048 E069     		ldr	r0, [r4, #28]
 473 004a FFF7FEFF 		bl	HAL_GPIO_WritePin
 474              	.LVL38:
 475 004e E8E7     		b	.L29
 476              		.cfi_endproc
 477              	.LFE131:
 479              		.global	__aeabi_f2d
 480              		.global	__aeabi_dmul
 481              		.global	__aeabi_d2uiz
 482              		.section	.text.move,"ax",%progbits
 483              		.align	1
 484              		.global	move
 485              		.syntax unified
 486              		.thumb
 487              		.thumb_func
 488              		.fpu fpv4-sp-d16
 490              	move:
 491              	.LFB132:
 506:Core/Src/main.c **** 
 507:Core/Src/main.c **** void move()
 508:Core/Src/main.c **** {
 492              		.loc 1 508 0
 493              		.cfi_startproc
 494              		@ args = 0, pretend = 0, frame = 8
 495              		@ frame_needed = 0, uses_anonymous_args = 0
 496 0000 30B5     		push	{r4, r5, lr}
 497              	.LCFI6:
 498              		.cfi_def_cfa_offset 12
 499              		.cfi_offset 4, -12
 500              		.cfi_offset 5, -8
 501              		.cfi_offset 14, -4
 502 0002 2DED028B 		vpush.64	{d8}
 503              	.LCFI7:
 504              		.cfi_def_cfa_offset 20
 505              		.cfi_offset 80, -20
 506              		.cfi_offset 81, -16
 507 0006 83B0     		sub	sp, sp, #12
 508              	.LCFI8:
 509              		.cfi_def_cfa_offset 32
 510              	.LVL39:
 511              	.LBB6:
 509:Core/Src/main.c ****         uint16_t dutyCycle[4];
 510:Core/Src/main.c ****         for (int i = 0; i < NUM_STEPS; ++i) {
 512              		.loc 1 510 0
 513 0008 0025     		movs	r5, #0
 514 000a 65E0     		b	.L37
ARM GAS  C:\Users\n-is\AppData\Local\Temp\ccz9DQ8a.s 			page 19


 515              	.LVL40:
 516              	.L39:
 517              	.LBB7:
 511:Core/Src/main.c ****                 calculate_robot_velocity();
 512:Core/Src/main.c ****                 calculate_omega();
 513:Core/Src/main.c ****                 for (int j = 0; j < 4; ++j) {
 514:Core/Src/main.c ****                         tmp_omega = float_abs(w[j].omega);
 515:Core/Src/main.c ****                         dutyCycle[j] = 2663.115 * tmp_omega;
 516:Core/Src/main.c ****                         if (!w[j].omega) {
 517:Core/Src/main.c ****                                 w[j].direction = HALT;
 518:Core/Src/main.c ****                         }
 519:Core/Src/main.c ****                         else if(w[j].omega > 0) {
 518              		.loc 1 519 0
 519 000c B5EEC08A 		vcmpe.f32	s16, #0
 520 0010 F1EE10FA 		vmrs	APSR_nzcv, FPSCR
 521 0014 3BDD     		ble	.L46
 520:Core/Src/main.c ****                                 w[j].direction = AHEAD;
 522              		.loc 1 520 0
 523 0016 04EBC403 		add	r3, r4, r4, lsl #3
 524 001a 9A00     		lsls	r2, r3, #2
 525 001c 384B     		ldr	r3, .L50+8
 526 001e 1344     		add	r3, r3, r2
 527 0020 0122     		movs	r2, #1
 528 0022 1A74     		strb	r2, [r3, #16]
 529              	.L40:
 521:Core/Src/main.c ****                         }
 522:Core/Src/main.c ****                         else {
 523:Core/Src/main.c ****                                 w[j].direction = BACK;
 524:Core/Src/main.c ****                         }
 525:Core/Src/main.c ****                         set_Direction(&w[j]);
 530              		.loc 1 525 0 discriminator 2
 531 0024 04EBC402 		add	r2, r4, r4, lsl #3
 532 0028 9300     		lsls	r3, r2, #2
 533 002a 3548     		ldr	r0, .L50+8
 534 002c 1844     		add	r0, r0, r3
 535 002e FFF7FEFF 		bl	set_Direction
 536              	.LVL41:
 513:Core/Src/main.c ****                         tmp_omega = float_abs(w[j].omega);
 537              		.loc 1 513 0 discriminator 2
 538 0032 0134     		adds	r4, r4, #1
 539              	.LVL42:
 540              	.L38:
 513:Core/Src/main.c ****                         tmp_omega = float_abs(w[j].omega);
 541              		.loc 1 513 0 is_stmt 0 discriminator 1
 542 0034 032C     		cmp	r4, #3
 543 0036 32DC     		bgt	.L48
 514:Core/Src/main.c ****                         dutyCycle[j] = 2663.115 * tmp_omega;
 544              		.loc 1 514 0 is_stmt 1
 545 0038 04EBC403 		add	r3, r4, r4, lsl #3
 546 003c 9A00     		lsls	r2, r3, #2
 547 003e 304B     		ldr	r3, .L50+8
 548 0040 1344     		add	r3, r3, r2
 549 0042 93ED038A 		vldr.32	s16, [r3, #12]
 550 0046 B0EE480A 		vmov.f32	s0, s16
 551 004a FFF7FEFF 		bl	float_abs
 552              	.LVL43:
 553 004e 10EE100A 		vmov	r0, s0
ARM GAS  C:\Users\n-is\AppData\Local\Temp\ccz9DQ8a.s 			page 20


 554 0052 2C4B     		ldr	r3, .L50+12
 555 0054 83ED000A 		vstr.32	s0, [r3]
 515:Core/Src/main.c ****                         if (!w[j].omega) {
 556              		.loc 1 515 0
 557 0058 FFF7FEFF 		bl	__aeabi_f2d
 558              	.LVL44:
 559 005c 26A3     		adr	r3, .L50
 560 005e D3E90023 		ldrd	r2, [r3]
 561 0062 FFF7FEFF 		bl	__aeabi_dmul
 562              	.LVL45:
 563 0066 FFF7FEFF 		bl	__aeabi_d2uiz
 564              	.LVL46:
 565 006a 02AB     		add	r3, sp, #8
 566 006c 03EB4403 		add	r3, r3, r4, lsl #1
 567 0070 23F8080C 		strh	r0, [r3, #-8]	@ movhi
 516:Core/Src/main.c ****                                 w[j].direction = HALT;
 568              		.loc 1 516 0
 569 0074 B5EE408A 		vcmp.f32	s16, #0
 570 0078 F1EE10FA 		vmrs	APSR_nzcv, FPSCR
 571 007c C6D1     		bne	.L39
 517:Core/Src/main.c ****                         }
 572              		.loc 1 517 0
 573 007e 04EBC403 		add	r3, r4, r4, lsl #3
 574 0082 9A00     		lsls	r2, r3, #2
 575 0084 1E4B     		ldr	r3, .L50+8
 576 0086 1344     		add	r3, r3, r2
 577 0088 0022     		movs	r2, #0
 578 008a 1A74     		strb	r2, [r3, #16]
 579 008c CAE7     		b	.L40
 580              	.L46:
 523:Core/Src/main.c ****                         }
 581              		.loc 1 523 0
 582 008e 04EBC403 		add	r3, r4, r4, lsl #3
 583 0092 9A00     		lsls	r2, r3, #2
 584 0094 1A4B     		ldr	r3, .L50+8
 585 0096 1344     		add	r3, r3, r2
 586 0098 0222     		movs	r2, #2
 587 009a 1A74     		strb	r2, [r3, #16]
 588 009c C2E7     		b	.L40
 589              	.L48:
 590              	.LBE7:
 526:Core/Src/main.c ****                 }
 527:Core/Src/main.c ****                 set_DutyCycle(&htim8, TIM_CHANNEL_1, dutyCycle[0]);
 591              		.loc 1 527 0 discriminator 2
 592 009e 1A4C     		ldr	r4, .L50+16
 593              	.LVL47:
 594 00a0 BDF80020 		ldrh	r2, [sp]
 595 00a4 0021     		movs	r1, #0
 596 00a6 2046     		mov	r0, r4
 597 00a8 FFF7FEFF 		bl	set_DutyCycle
 598              	.LVL48:
 528:Core/Src/main.c ****                 set_DutyCycle(&htim8, TIM_CHANNEL_2, dutyCycle[1]);
 599              		.loc 1 528 0 discriminator 2
 600 00ac BDF80220 		ldrh	r2, [sp, #2]
 601 00b0 0421     		movs	r1, #4
 602 00b2 2046     		mov	r0, r4
 603 00b4 FFF7FEFF 		bl	set_DutyCycle
ARM GAS  C:\Users\n-is\AppData\Local\Temp\ccz9DQ8a.s 			page 21


 604              	.LVL49:
 529:Core/Src/main.c ****                 set_DutyCycle(&htim8, TIM_CHANNEL_3, dutyCycle[2]);
 605              		.loc 1 529 0 discriminator 2
 606 00b8 BDF80420 		ldrh	r2, [sp, #4]
 607 00bc 0821     		movs	r1, #8
 608 00be 2046     		mov	r0, r4
 609 00c0 FFF7FEFF 		bl	set_DutyCycle
 610              	.LVL50:
 530:Core/Src/main.c ****                 set_DutyCycle(&htim8, TIM_CHANNEL_4, dutyCycle[3]);
 611              		.loc 1 530 0 discriminator 2
 612 00c4 BDF80620 		ldrh	r2, [sp, #6]
 613 00c8 0C21     		movs	r1, #12
 614 00ca 2046     		mov	r0, r4
 615 00cc FFF7FEFF 		bl	set_DutyCycle
 616              	.LVL51:
 531:Core/Src/main.c ****                 HAL_Delay(90);
 617              		.loc 1 531 0 discriminator 2
 618 00d0 5A20     		movs	r0, #90
 619 00d2 FFF7FEFF 		bl	HAL_Delay
 620              	.LVL52:
 510:Core/Src/main.c ****                 calculate_robot_velocity();
 621              		.loc 1 510 0 discriminator 2
 622 00d6 0135     		adds	r5, r5, #1
 623              	.LVL53:
 624              	.L37:
 510:Core/Src/main.c ****                 calculate_robot_velocity();
 625              		.loc 1 510 0 is_stmt 0 discriminator 1
 626 00d8 B5F5887F 		cmp	r5, #272
 627 00dc 05DA     		bge	.L49
 511:Core/Src/main.c ****                 calculate_omega();
 628              		.loc 1 511 0 is_stmt 1
 629 00de FFF7FEFF 		bl	calculate_robot_velocity
 630              	.LVL54:
 512:Core/Src/main.c ****                 for (int j = 0; j < 4; ++j) {
 631              		.loc 1 512 0
 632 00e2 FFF7FEFF 		bl	calculate_omega
 633              	.LVL55:
 634              	.LBB8:
 513:Core/Src/main.c ****                         tmp_omega = float_abs(w[j].omega);
 635              		.loc 1 513 0
 636 00e6 0024     		movs	r4, #0
 637 00e8 A4E7     		b	.L38
 638              	.LVL56:
 639              	.L49:
 640              	.LBE8:
 641              	.LBE6:
 532:Core/Src/main.c ****         }
 533:Core/Src/main.c **** }
 642              		.loc 1 533 0
 643 00ea 03B0     		add	sp, sp, #12
 644              	.LCFI9:
 645              		.cfi_def_cfa_offset 20
 646              		@ sp needed
 647 00ec BDEC028B 		vldm	sp!, {d8}
 648              	.LCFI10:
 649              		.cfi_restore 80
 650              		.cfi_restore 81
ARM GAS  C:\Users\n-is\AppData\Local\Temp\ccz9DQ8a.s 			page 22


 651              		.cfi_def_cfa_offset 12
 652 00f0 30BD     		pop	{r4, r5, pc}
 653              	.LVL57:
 654              	.L51:
 655 00f2 00BFAFF3 		.align	3
 655      0080
 656              	.L50:
 657 00f8 14AE47E1 		.word	-515396076
 658 00fc 3ACEA440 		.word	1084542522
 659 0100 00000000 		.word	w
 660 0104 00000000 		.word	tmp_omega
 661 0108 00000000 		.word	htim8
 662              		.cfi_endproc
 663              	.LFE132:
 665              		.section	.text._Error_Handler,"ax",%progbits
 666              		.align	1
 667              		.global	_Error_Handler
 668              		.syntax unified
 669              		.thumb
 670              		.thumb_func
 671              		.fpu fpv4-sp-d16
 673              	_Error_Handler:
 674              	.LFB135:
 534:Core/Src/main.c **** 
 535:Core/Src/main.c **** /* USER CODE END 0 */
 536:Core/Src/main.c **** 
 537:Core/Src/main.c **** /**
 538:Core/Src/main.c ****   * @brief  The application entry point.
 539:Core/Src/main.c ****   *
 540:Core/Src/main.c ****   * @retval None
 541:Core/Src/main.c ****   */
 542:Core/Src/main.c **** int main(void)
 543:Core/Src/main.c **** {
 544:Core/Src/main.c ****         /* USER CODE BEGIN 1 */
 545:Core/Src/main.c **** 
 546:Core/Src/main.c ****         /* USER CODE END 1 */
 547:Core/Src/main.c **** 
 548:Core/Src/main.c ****         /* MCU Configuration----------------------------------------------------------*/
 549:Core/Src/main.c **** 
 550:Core/Src/main.c ****         /* Reset of all peripherals, Initializes the Flash interface and the Systick. */
 551:Core/Src/main.c ****         HAL_Init();
 552:Core/Src/main.c **** 
 553:Core/Src/main.c ****         /* USER CODE BEGIN Init */
 554:Core/Src/main.c **** 
 555:Core/Src/main.c ****         /* USER CODE END Init */
 556:Core/Src/main.c **** 
 557:Core/Src/main.c ****         /* Configure the system clock */
 558:Core/Src/main.c ****         SystemClock_Config();
 559:Core/Src/main.c **** 
 560:Core/Src/main.c ****         /* USER CODE BEGIN SysInit */
 561:Core/Src/main.c **** 
 562:Core/Src/main.c ****         /* USER CODE END SysInit */
 563:Core/Src/main.c **** 
 564:Core/Src/main.c ****         /* Initialize all configured peripherals */
 565:Core/Src/main.c ****         MX_GPIO_Init();
 566:Core/Src/main.c ****         MX_ADC1_Init();
 567:Core/Src/main.c ****         MX_TIM1_Init();
ARM GAS  C:\Users\n-is\AppData\Local\Temp\ccz9DQ8a.s 			page 23


 568:Core/Src/main.c ****         MX_TIM3_Init();
 569:Core/Src/main.c ****         MX_TIM4_Init();
 570:Core/Src/main.c ****         MX_TIM5_Init();
 571:Core/Src/main.c ****         MX_TIM8_Init();
 572:Core/Src/main.c ****         MX_USART1_UART_Init();
 573:Core/Src/main.c ****         MX_USART3_UART_Init();
 574:Core/Src/main.c ****         /* USER CODE BEGIN 2 */
 575:Core/Src/main.c ****         // sHAL_Delay(1000);
 576:Core/Src/main.c **** 	HAL_TIM_Base_Start(&htim8);
 577:Core/Src/main.c ****         wheel_init();
 578:Core/Src/main.c **** 
 579:Core/Src/main.c **** 	HAL_TIM_PWM_Start(&htim8, TIM_CHANNEL_1);	
 580:Core/Src/main.c **** 	HAL_TIM_PWM_Start(&htim8, TIM_CHANNEL_2);
 581:Core/Src/main.c **** 	HAL_TIM_PWM_Start(&htim8, TIM_CHANNEL_3);
 582:Core/Src/main.c **** 	HAL_TIM_PWM_Start(&htim8, TIM_CHANNEL_4);
 583:Core/Src/main.c **** 
 584:Core/Src/main.c ****         move();
 585:Core/Src/main.c **** 
 586:Core/Src/main.c ****         /* USER CODE END 2 */
 587:Core/Src/main.c **** 
 588:Core/Src/main.c ****         /* Infinite loop */
 589:Core/Src/main.c ****         /* USER CODE BEGIN WHILE */
 590:Core/Src/main.c ****         while (1)
 591:Core/Src/main.c ****         {
 592:Core/Src/main.c **** 
 593:Core/Src/main.c ****                 /* USER CODE END WHILE */
 594:Core/Src/main.c **** 
 595:Core/Src/main.c ****                 /* USER CODE BEGIN 3 */
 596:Core/Src/main.c ****                 HAL_Delay(100);
 597:Core/Src/main.c ****         }
 598:Core/Src/main.c ****         /* USER CODE END 3 */
 599:Core/Src/main.c **** }
 600:Core/Src/main.c **** 
 601:Core/Src/main.c **** /**
 602:Core/Src/main.c ****   * @brief System Clock Configuration
 603:Core/Src/main.c ****   * @retval None
 604:Core/Src/main.c ****   */
 605:Core/Src/main.c **** void SystemClock_Config(void)
 606:Core/Src/main.c **** {
 607:Core/Src/main.c **** 
 608:Core/Src/main.c ****         RCC_OscInitTypeDef RCC_OscInitStruct;
 609:Core/Src/main.c ****         RCC_ClkInitTypeDef RCC_ClkInitStruct;
 610:Core/Src/main.c **** 
 611:Core/Src/main.c ****         /**Configure the main internal regulator output voltage 
 612:Core/Src/main.c ****     */
 613:Core/Src/main.c ****         __HAL_RCC_PWR_CLK_ENABLE();
 614:Core/Src/main.c **** 
 615:Core/Src/main.c ****         __HAL_PWR_VOLTAGESCALING_CONFIG(PWR_REGULATOR_VOLTAGE_SCALE1);
 616:Core/Src/main.c **** 
 617:Core/Src/main.c ****         /**Initializes the CPU, AHB and APB busses clocks 
 618:Core/Src/main.c ****     */
 619:Core/Src/main.c ****         RCC_OscInitStruct.OscillatorType = RCC_OSCILLATORTYPE_HSE;
 620:Core/Src/main.c ****         RCC_OscInitStruct.HSEState = RCC_HSE_ON;
 621:Core/Src/main.c ****         RCC_OscInitStruct.PLL.PLLState = RCC_PLL_ON;
 622:Core/Src/main.c ****         RCC_OscInitStruct.PLL.PLLSource = RCC_PLLSOURCE_HSE;
 623:Core/Src/main.c ****         RCC_OscInitStruct.PLL.PLLM = 8;
 624:Core/Src/main.c ****         RCC_OscInitStruct.PLL.PLLN = 336;
ARM GAS  C:\Users\n-is\AppData\Local\Temp\ccz9DQ8a.s 			page 24


 625:Core/Src/main.c ****         RCC_OscInitStruct.PLL.PLLP = RCC_PLLP_DIV2;
 626:Core/Src/main.c ****         RCC_OscInitStruct.PLL.PLLQ = 4;
 627:Core/Src/main.c ****         if (HAL_RCC_OscConfig(&RCC_OscInitStruct) != HAL_OK)
 628:Core/Src/main.c ****         {
 629:Core/Src/main.c ****                 _Error_Handler(__FILE__, __LINE__);
 630:Core/Src/main.c ****         }
 631:Core/Src/main.c **** 
 632:Core/Src/main.c ****         /**Initializes the CPU, AHB and APB busses clocks 
 633:Core/Src/main.c ****     */
 634:Core/Src/main.c ****         RCC_ClkInitStruct.ClockType = RCC_CLOCKTYPE_HCLK | RCC_CLOCKTYPE_SYSCLK | RCC_CLOCKTYPE_PCL
 635:Core/Src/main.c ****         RCC_ClkInitStruct.SYSCLKSource = RCC_SYSCLKSOURCE_PLLCLK;
 636:Core/Src/main.c ****         RCC_ClkInitStruct.AHBCLKDivider = RCC_SYSCLK_DIV1;
 637:Core/Src/main.c ****         RCC_ClkInitStruct.APB1CLKDivider = RCC_HCLK_DIV4;
 638:Core/Src/main.c ****         RCC_ClkInitStruct.APB2CLKDivider = RCC_HCLK_DIV2;
 639:Core/Src/main.c **** 
 640:Core/Src/main.c ****         if (HAL_RCC_ClockConfig(&RCC_ClkInitStruct, FLASH_LATENCY_5) != HAL_OK)
 641:Core/Src/main.c ****         {
 642:Core/Src/main.c ****                 _Error_Handler(__FILE__, __LINE__);
 643:Core/Src/main.c ****         }
 644:Core/Src/main.c **** 
 645:Core/Src/main.c ****         /**Configure the Systick interrupt time 
 646:Core/Src/main.c ****     */
 647:Core/Src/main.c ****         HAL_SYSTICK_Config(HAL_RCC_GetHCLKFreq() / 1000);
 648:Core/Src/main.c **** 
 649:Core/Src/main.c ****         /**Configure the Systick 
 650:Core/Src/main.c ****     */
 651:Core/Src/main.c ****         HAL_SYSTICK_CLKSourceConfig(SYSTICK_CLKSOURCE_HCLK);
 652:Core/Src/main.c **** 
 653:Core/Src/main.c ****         /* SysTick_IRQn interrupt configuration */
 654:Core/Src/main.c ****         HAL_NVIC_SetPriority(SysTick_IRQn, 0, 0);
 655:Core/Src/main.c **** }
 656:Core/Src/main.c **** 
 657:Core/Src/main.c **** /* USER CODE BEGIN 4 */
 658:Core/Src/main.c **** 
 659:Core/Src/main.c **** /* USER CODE END 4 */
 660:Core/Src/main.c **** 
 661:Core/Src/main.c **** /**
 662:Core/Src/main.c ****   * @brief  This function is executed in case of error occurrence.
 663:Core/Src/main.c ****   * @param  file: The file name as string.
 664:Core/Src/main.c ****   * @param  line: The line in file as a number.
 665:Core/Src/main.c ****   * @retval None
 666:Core/Src/main.c ****   */
 667:Core/Src/main.c **** void _Error_Handler(char *file, int line)
 668:Core/Src/main.c **** {
 675              		.loc 1 668 0
 676              		.cfi_startproc
 677              		@ Volatile: function does not return.
 678              		@ args = 0, pretend = 0, frame = 0
 679              		@ frame_needed = 0, uses_anonymous_args = 0
 680              		@ link register save eliminated.
 681              	.LVL58:
 682              	.L53:
 683 0000 FEE7     		b	.L53
 684              		.cfi_endproc
 685              	.LFE135:
 687              		.section	.text.SystemClock_Config,"ax",%progbits
 688              		.align	1
ARM GAS  C:\Users\n-is\AppData\Local\Temp\ccz9DQ8a.s 			page 25


 689              		.global	SystemClock_Config
 690              		.syntax unified
 691              		.thumb
 692              		.thumb_func
 693              		.fpu fpv4-sp-d16
 695              	SystemClock_Config:
 696              	.LFB134:
 606:Core/Src/main.c **** 
 697              		.loc 1 606 0
 698              		.cfi_startproc
 699              		@ args = 0, pretend = 0, frame = 80
 700              		@ frame_needed = 0, uses_anonymous_args = 0
 606:Core/Src/main.c **** 
 701              		.loc 1 606 0
 702 0000 00B5     		push	{lr}
 703              	.LCFI11:
 704              		.cfi_def_cfa_offset 4
 705              		.cfi_offset 14, -4
 706 0002 95B0     		sub	sp, sp, #84
 707              	.LCFI12:
 708              		.cfi_def_cfa_offset 88
 709              	.LBB9:
 613:Core/Src/main.c **** 
 710              		.loc 1 613 0
 711 0004 0021     		movs	r1, #0
 712 0006 0191     		str	r1, [sp, #4]
 713 0008 2C4B     		ldr	r3, .L60
 714 000a 1A6C     		ldr	r2, [r3, #64]
 715 000c 42F08052 		orr	r2, r2, #268435456
 716 0010 1A64     		str	r2, [r3, #64]
 717 0012 1B6C     		ldr	r3, [r3, #64]
 718 0014 03F08053 		and	r3, r3, #268435456
 719 0018 0193     		str	r3, [sp, #4]
 720 001a 019B     		ldr	r3, [sp, #4]
 721              	.LBE9:
 722              	.LBB10:
 615:Core/Src/main.c **** 
 723              		.loc 1 615 0
 724 001c 0291     		str	r1, [sp, #8]
 725 001e 284B     		ldr	r3, .L60+4
 726 0020 1A68     		ldr	r2, [r3]
 727 0022 42F48042 		orr	r2, r2, #16384
 728 0026 1A60     		str	r2, [r3]
 729 0028 1B68     		ldr	r3, [r3]
 730 002a 03F48043 		and	r3, r3, #16384
 731 002e 0293     		str	r3, [sp, #8]
 732 0030 029B     		ldr	r3, [sp, #8]
 733              	.LBE10:
 619:Core/Src/main.c ****         RCC_OscInitStruct.HSEState = RCC_HSE_ON;
 734              		.loc 1 619 0
 735 0032 0123     		movs	r3, #1
 736 0034 0893     		str	r3, [sp, #32]
 620:Core/Src/main.c ****         RCC_OscInitStruct.PLL.PLLState = RCC_PLL_ON;
 737              		.loc 1 620 0
 738 0036 4FF48033 		mov	r3, #65536
 739 003a 0993     		str	r3, [sp, #36]
 621:Core/Src/main.c ****         RCC_OscInitStruct.PLL.PLLSource = RCC_PLLSOURCE_HSE;
ARM GAS  C:\Users\n-is\AppData\Local\Temp\ccz9DQ8a.s 			page 26


 740              		.loc 1 621 0
 741 003c 0223     		movs	r3, #2
 742 003e 0E93     		str	r3, [sp, #56]
 622:Core/Src/main.c ****         RCC_OscInitStruct.PLL.PLLM = 8;
 743              		.loc 1 622 0
 744 0040 4FF48002 		mov	r2, #4194304
 745 0044 0F92     		str	r2, [sp, #60]
 623:Core/Src/main.c ****         RCC_OscInitStruct.PLL.PLLN = 336;
 746              		.loc 1 623 0
 747 0046 0822     		movs	r2, #8
 748 0048 1092     		str	r2, [sp, #64]
 624:Core/Src/main.c ****         RCC_OscInitStruct.PLL.PLLP = RCC_PLLP_DIV2;
 749              		.loc 1 624 0
 750 004a 4FF4A872 		mov	r2, #336
 751 004e 1192     		str	r2, [sp, #68]
 625:Core/Src/main.c ****         RCC_OscInitStruct.PLL.PLLQ = 4;
 752              		.loc 1 625 0
 753 0050 1293     		str	r3, [sp, #72]
 626:Core/Src/main.c ****         if (HAL_RCC_OscConfig(&RCC_OscInitStruct) != HAL_OK)
 754              		.loc 1 626 0
 755 0052 0423     		movs	r3, #4
 756 0054 1393     		str	r3, [sp, #76]
 627:Core/Src/main.c ****         {
 757              		.loc 1 627 0
 758 0056 08A8     		add	r0, sp, #32
 759 0058 FFF7FEFF 		bl	HAL_RCC_OscConfig
 760              	.LVL59:
 761 005c 20BB     		cbnz	r0, .L58
 634:Core/Src/main.c ****         RCC_ClkInitStruct.SYSCLKSource = RCC_SYSCLKSOURCE_PLLCLK;
 762              		.loc 1 634 0
 763 005e 0F23     		movs	r3, #15
 764 0060 0393     		str	r3, [sp, #12]
 635:Core/Src/main.c ****         RCC_ClkInitStruct.AHBCLKDivider = RCC_SYSCLK_DIV1;
 765              		.loc 1 635 0
 766 0062 0223     		movs	r3, #2
 767 0064 0493     		str	r3, [sp, #16]
 636:Core/Src/main.c ****         RCC_ClkInitStruct.APB1CLKDivider = RCC_HCLK_DIV4;
 768              		.loc 1 636 0
 769 0066 0023     		movs	r3, #0
 770 0068 0593     		str	r3, [sp, #20]
 637:Core/Src/main.c ****         RCC_ClkInitStruct.APB2CLKDivider = RCC_HCLK_DIV2;
 771              		.loc 1 637 0
 772 006a 4FF4A053 		mov	r3, #5120
 773 006e 0693     		str	r3, [sp, #24]
 638:Core/Src/main.c **** 
 774              		.loc 1 638 0
 775 0070 4FF48053 		mov	r3, #4096
 776 0074 0793     		str	r3, [sp, #28]
 640:Core/Src/main.c ****         {
 777              		.loc 1 640 0
 778 0076 0521     		movs	r1, #5
 779 0078 03A8     		add	r0, sp, #12
 780 007a FFF7FEFF 		bl	HAL_RCC_ClockConfig
 781              	.LVL60:
 782 007e C0B9     		cbnz	r0, .L59
 647:Core/Src/main.c **** 
 783              		.loc 1 647 0
ARM GAS  C:\Users\n-is\AppData\Local\Temp\ccz9DQ8a.s 			page 27


 784 0080 FFF7FEFF 		bl	HAL_RCC_GetHCLKFreq
 785              	.LVL61:
 786 0084 0F4B     		ldr	r3, .L60+8
 787 0086 A3FB0030 		umull	r3, r0, r3, r0
 788 008a 8009     		lsrs	r0, r0, #6
 789 008c FFF7FEFF 		bl	HAL_SYSTICK_Config
 790              	.LVL62:
 651:Core/Src/main.c **** 
 791              		.loc 1 651 0
 792 0090 0420     		movs	r0, #4
 793 0092 FFF7FEFF 		bl	HAL_SYSTICK_CLKSourceConfig
 794              	.LVL63:
 654:Core/Src/main.c **** }
 795              		.loc 1 654 0
 796 0096 0022     		movs	r2, #0
 797 0098 1146     		mov	r1, r2
 798 009a 4FF0FF30 		mov	r0, #-1
 799 009e FFF7FEFF 		bl	HAL_NVIC_SetPriority
 800              	.LVL64:
 655:Core/Src/main.c **** 
 801              		.loc 1 655 0
 802 00a2 15B0     		add	sp, sp, #84
 803              	.LCFI13:
 804              		.cfi_remember_state
 805              		.cfi_def_cfa_offset 4
 806              		@ sp needed
 807 00a4 5DF804FB 		ldr	pc, [sp], #4
 808              	.L58:
 809              	.LCFI14:
 810              		.cfi_restore_state
 629:Core/Src/main.c ****         }
 811              		.loc 1 629 0
 812 00a8 40F27521 		movw	r1, #629
 813 00ac 0648     		ldr	r0, .L60+12
 814 00ae FFF7FEFF 		bl	_Error_Handler
 815              	.LVL65:
 816              	.L59:
 642:Core/Src/main.c ****         }
 817              		.loc 1 642 0
 818 00b2 40F28221 		movw	r1, #642
 819 00b6 0448     		ldr	r0, .L60+12
 820 00b8 FFF7FEFF 		bl	_Error_Handler
 821              	.LVL66:
 822              	.L61:
 823              		.align	2
 824              	.L60:
 825 00bc 00380240 		.word	1073887232
 826 00c0 00700040 		.word	1073770496
 827 00c4 D34D6210 		.word	274877907
 828 00c8 00000000 		.word	.LC1
 829              		.cfi_endproc
 830              	.LFE134:
 832              		.section	.text.main,"ax",%progbits
 833              		.align	1
 834              		.global	main
 835              		.syntax unified
 836              		.thumb
ARM GAS  C:\Users\n-is\AppData\Local\Temp\ccz9DQ8a.s 			page 28


 837              		.thumb_func
 838              		.fpu fpv4-sp-d16
 840              	main:
 841              	.LFB133:
 543:Core/Src/main.c ****         /* USER CODE BEGIN 1 */
 842              		.loc 1 543 0
 843              		.cfi_startproc
 844              		@ Volatile: function does not return.
 845              		@ args = 0, pretend = 0, frame = 0
 846              		@ frame_needed = 0, uses_anonymous_args = 0
 847 0000 08B5     		push	{r3, lr}
 848              	.LCFI15:
 849              		.cfi_def_cfa_offset 8
 850              		.cfi_offset 3, -8
 851              		.cfi_offset 14, -4
 551:Core/Src/main.c **** 
 852              		.loc 1 551 0
 853 0002 FFF7FEFF 		bl	HAL_Init
 854              	.LVL67:
 558:Core/Src/main.c **** 
 855              		.loc 1 558 0
 856 0006 FFF7FEFF 		bl	SystemClock_Config
 857              	.LVL68:
 565:Core/Src/main.c ****         MX_ADC1_Init();
 858              		.loc 1 565 0
 859 000a FFF7FEFF 		bl	MX_GPIO_Init
 860              	.LVL69:
 566:Core/Src/main.c ****         MX_TIM1_Init();
 861              		.loc 1 566 0
 862 000e FFF7FEFF 		bl	MX_ADC1_Init
 863              	.LVL70:
 567:Core/Src/main.c ****         MX_TIM3_Init();
 864              		.loc 1 567 0
 865 0012 FFF7FEFF 		bl	MX_TIM1_Init
 866              	.LVL71:
 568:Core/Src/main.c ****         MX_TIM4_Init();
 867              		.loc 1 568 0
 868 0016 FFF7FEFF 		bl	MX_TIM3_Init
 869              	.LVL72:
 569:Core/Src/main.c ****         MX_TIM5_Init();
 870              		.loc 1 569 0
 871 001a FFF7FEFF 		bl	MX_TIM4_Init
 872              	.LVL73:
 570:Core/Src/main.c ****         MX_TIM8_Init();
 873              		.loc 1 570 0
 874 001e FFF7FEFF 		bl	MX_TIM5_Init
 875              	.LVL74:
 571:Core/Src/main.c ****         MX_USART1_UART_Init();
 876              		.loc 1 571 0
 877 0022 FFF7FEFF 		bl	MX_TIM8_Init
 878              	.LVL75:
 572:Core/Src/main.c ****         MX_USART3_UART_Init();
 879              		.loc 1 572 0
 880 0026 FFF7FEFF 		bl	MX_USART1_UART_Init
 881              	.LVL76:
 573:Core/Src/main.c ****         /* USER CODE BEGIN 2 */
 882              		.loc 1 573 0
ARM GAS  C:\Users\n-is\AppData\Local\Temp\ccz9DQ8a.s 			page 29


 883 002a FFF7FEFF 		bl	MX_USART3_UART_Init
 884              	.LVL77:
 576:Core/Src/main.c ****         wheel_init();
 885              		.loc 1 576 0
 886 002e 0E4C     		ldr	r4, .L65
 887 0030 2046     		mov	r0, r4
 888 0032 FFF7FEFF 		bl	HAL_TIM_Base_Start
 889              	.LVL78:
 577:Core/Src/main.c **** 
 890              		.loc 1 577 0
 891 0036 FFF7FEFF 		bl	wheel_init
 892              	.LVL79:
 579:Core/Src/main.c **** 	HAL_TIM_PWM_Start(&htim8, TIM_CHANNEL_2);
 893              		.loc 1 579 0
 894 003a 0021     		movs	r1, #0
 895 003c 2046     		mov	r0, r4
 896 003e FFF7FEFF 		bl	HAL_TIM_PWM_Start
 897              	.LVL80:
 580:Core/Src/main.c **** 	HAL_TIM_PWM_Start(&htim8, TIM_CHANNEL_3);
 898              		.loc 1 580 0
 899 0042 0421     		movs	r1, #4
 900 0044 2046     		mov	r0, r4
 901 0046 FFF7FEFF 		bl	HAL_TIM_PWM_Start
 902              	.LVL81:
 581:Core/Src/main.c **** 	HAL_TIM_PWM_Start(&htim8, TIM_CHANNEL_4);
 903              		.loc 1 581 0
 904 004a 0821     		movs	r1, #8
 905 004c 2046     		mov	r0, r4
 906 004e FFF7FEFF 		bl	HAL_TIM_PWM_Start
 907              	.LVL82:
 582:Core/Src/main.c **** 
 908              		.loc 1 582 0
 909 0052 0C21     		movs	r1, #12
 910 0054 2046     		mov	r0, r4
 911 0056 FFF7FEFF 		bl	HAL_TIM_PWM_Start
 912              	.LVL83:
 584:Core/Src/main.c **** 
 913              		.loc 1 584 0
 914 005a FFF7FEFF 		bl	move
 915              	.LVL84:
 916              	.L63:
 596:Core/Src/main.c ****         }
 917              		.loc 1 596 0 discriminator 1
 918 005e 6420     		movs	r0, #100
 919 0060 FFF7FEFF 		bl	HAL_Delay
 920              	.LVL85:
 921 0064 FBE7     		b	.L63
 922              	.L66:
 923 0066 00BF     		.align	2
 924              	.L65:
 925 0068 00000000 		.word	htim8
 926              		.cfi_endproc
 927              	.LFE133:
 929              		.section	.text.assert_failed,"ax",%progbits
 930              		.align	1
 931              		.global	assert_failed
 932              		.syntax unified
ARM GAS  C:\Users\n-is\AppData\Local\Temp\ccz9DQ8a.s 			page 30


 933              		.thumb
 934              		.thumb_func
 935              		.fpu fpv4-sp-d16
 937              	assert_failed:
 938              	.LFB136:
 669:Core/Src/main.c ****         /* USER CODE BEGIN Error_Handler_Debug */
 670:Core/Src/main.c ****         /* User can add his own implementation to report the HAL error return state */
 671:Core/Src/main.c ****         while (1)
 672:Core/Src/main.c ****         {
 673:Core/Src/main.c ****         }
 674:Core/Src/main.c ****         /* USER CODE END Error_Handler_Debug */
 675:Core/Src/main.c **** }
 676:Core/Src/main.c **** 
 677:Core/Src/main.c **** #ifdef USE_FULL_ASSERT
 678:Core/Src/main.c **** /**
 679:Core/Src/main.c ****   * @brief  Reports the name of the source file and the source line number
 680:Core/Src/main.c ****   *         where the assert_param error has occurred.
 681:Core/Src/main.c ****   * @param  file: pointer to the source file name
 682:Core/Src/main.c ****   * @param  line: assert_param error line source number
 683:Core/Src/main.c ****   * @retval None
 684:Core/Src/main.c ****   */
 685:Core/Src/main.c **** void assert_failed(uint8_t *file, uint32_t line)
 686:Core/Src/main.c **** {
 939              		.loc 1 686 0
 940              		.cfi_startproc
 941              		@ args = 0, pretend = 0, frame = 0
 942              		@ frame_needed = 0, uses_anonymous_args = 0
 943              		@ link register save eliminated.
 944              	.LVL86:
 687:Core/Src/main.c ****         /* USER CODE BEGIN 6 */
 688:Core/Src/main.c ****         /* User can add his own implementation to report the file name and line number,
 689:Core/Src/main.c ****      tex: printf("Wrong parameters value: file %s on line %d\r\n", file, line) */
 690:Core/Src/main.c ****         /* USER CODE END 6 */
 691:Core/Src/main.c **** }
 945              		.loc 1 691 0
 946 0000 7047     		bx	lr
 947              		.cfi_endproc
 948              	.LFE136:
 950              		.comm	w,144,4
 951              		.comm	tmp_omega,4,4
 952              		.comm	velocities,4352,4
 953              		.global	Speed_Multiplier
 954              		.global	time
 955              		.global	deltas
 956              		.section	.rodata
 957              		.align	2
 958              		.set	.LANCHOR2,. + 0
 959              	.LC0:
 960 0000 FFFFFFFF 		.word	-1
 961 0004 01000000 		.word	1
 962 0008 01000000 		.word	1
 963 000c 01000000 		.word	1
 964 0010 01000000 		.word	1
 965 0014 01000000 		.word	1
 966 0018 FFFFFFFF 		.word	-1
 967 001c 01000000 		.word	1
 968 0020 FFFFFFFF 		.word	-1
ARM GAS  C:\Users\n-is\AppData\Local\Temp\ccz9DQ8a.s 			page 31


 969 0024 01000000 		.word	1
 970 0028 01000000 		.word	1
 971 002c FFFFFFFF 		.word	-1
 972              		.section	.bss.index,"aw",%nobits
 973              		.set	.LANCHOR0,. + 0
 976              	index:
 977 0000 00       		.space	1
 978              		.section	.data.deltas,"aw",%progbits
 979              		.align	2
 980              		.set	.LANCHOR1,. + 0
 983              	deltas:
 984 0000 00000000 		.word	0
 985 0004 00000000 		.word	0
 986 0008 CDCCCC3D 		.word	1036831949
 987 000c 00000000 		.word	0
 988 0010 CDCCCC3D 		.word	1036831949
 989 0014 26935A3B 		.word	995791654
 990 0018 CDCCCC3D 		.word	1036831949
 991 001c BFF0DA3B 		.word	1004204223
 992 0020 CDCCCC3D 		.word	1036831949
 993 0024 57AA243C 		.word	1009035863
 994 0028 CDCCCC3D 		.word	1036831949
 995 002c E26B5C3C 		.word	1012689890
 996 0030 CDCCCC3D 		.word	1036831949
 997 0034 57788A3C 		.word	1015707735
 998 0038 CDCCCC3D 		.word	1036831949
 999 003c F037A73C 		.word	1017591792
 1000 0040 CDCCCC3D 		.word	1036831949
 1001 0044 9C92C43C 		.word	1019515548
 1002 0048 CDCCCC3D 		.word	1036831949
 1003 004c 37A9E23C 		.word	1021487415
 1004 0050 CDCCCC3D 		.word	1036831949
 1005 0054 31D0003D 		.word	1023463473
 1006 0058 CDCCCC3D 		.word	1036831949
 1007 005c C3D0103D 		.word	1024512195
 1008 0060 CDCCCC3D 		.word	1036831949
 1009 0064 0C6E213D 		.word	1025601036
 1010 0068 CDCCCC3D 		.word	1036831949
 1011 006c 9CC3323D 		.word	1026737052
 1012 0070 CDCCCC3D 		.word	1036831949
 1013 0074 E1F1443D 		.word	1027928545
 1014 0078 CDCCCC3D 		.word	1036831949
 1015 007c 931F583D 		.word	1029185427
 1016 0080 CDCCCC3D 		.word	1036831949
 1017 0084 907B6C3D 		.word	1030519696
 1018 0088 CDCCCC3D 		.word	1036831949
 1019 008c BF1F813D 		.word	1031872447
 1020 0090 CDCCCC3D 		.word	1036831949
 1021 0094 B8D98C3D 		.word	1032640952
 1022 0098 CDCCCC3D 		.word	1036831949
 1023 009c 9A99993D 		.word	1033476506
 1024 00a0 CDCCCC3D 		.word	1036831949
 1025 00a4 199BA73D 		.word	1034394393
 1026 00a8 CDCCCC3D 		.word	1036831949
 1027 00ac BF2DB73D 		.word	1035414975
 1028 00b0 CDCCCC3D 		.word	1036831949
 1029 00b4 81BEC83D 		.word	1036566145
ARM GAS  C:\Users\n-is\AppData\Local\Temp\ccz9DQ8a.s 			page 32


 1030 00b8 CDCCCC3D 		.word	1036831949
 1031 00bc BCE7DC3D 		.word	1037887420
 1032 00c0 CDCCCC3D 		.word	1036831949
 1033 00c4 428DF43D 		.word	1039437122
 1034 00c8 CDCCCC3D 		.word	1036831949
 1035 00cc 8988083E 		.word	1040746633
 1036 00d0 CDCCCC3D 		.word	1036831949
 1037 00d4 B25F1A3E 		.word	1041915826
 1038 00d8 CDCCCC3D 		.word	1036831949
 1039 00dc 9BE3313E 		.word	1043456923
 1040 00e0 CDCCCC3D 		.word	1036831949
 1041 00e4 F66D533E 		.word	1045655030
 1042 00e8 CDCCCC3D 		.word	1036831949
 1043 00ec 3E1B853E 		.word	1048910654
 1044 00f0 CDCCCC3D 		.word	1036831949
 1045 00f4 E9769D3E 		.word	1050506985
 1046 00f8 CDCCCC3D 		.word	1036831949
 1047 00fc E9769D3E 		.word	1050506985
 1048 0100 CDCCCC3D 		.word	1036831949
 1049 0104 E9769D3E 		.word	1050506985
 1050 0108 CDCCCC3D 		.word	1036831949
 1051 010c E9769D3E 		.word	1050506985
 1052 0110 CDCCCC3D 		.word	1036831949
 1053 0114 F34DC13E 		.word	1052855795
 1054 0118 CDCCCC3D 		.word	1036831949
 1055 011c F34DC13E 		.word	1052855795
 1056 0120 CDCCCC3D 		.word	1036831949
 1057 0124 F34DC13E 		.word	1052855795
 1058 0128 CDCCCC3D 		.word	1036831949
 1059 012c F34DC13E 		.word	1052855795
 1060 0130 CDCCCC3D 		.word	1036831949
 1061 0134 E9769D3E 		.word	1050506985
 1062 0138 CDCCCC3D 		.word	1036831949
 1063 013c E9769D3E 		.word	1050506985
 1064 0140 CDCCCC3D 		.word	1036831949
 1065 0144 E9769D3E 		.word	1050506985
 1066 0148 CDCCCC3D 		.word	1036831949
 1067 014c E9769D3E 		.word	1050506985
 1068 0150 CDCCCC3D 		.word	1036831949
 1069 0154 3E1B853E 		.word	1048910654
 1070 0158 CDCCCC3D 		.word	1036831949
 1071 015c F66D533E 		.word	1045655030
 1072 0160 CDCCCC3D 		.word	1036831949
 1073 0164 9BE3313E 		.word	1043456923
 1074 0168 CDCCCC3D 		.word	1036831949
 1075 016c B25F1A3E 		.word	1041915826
 1076 0170 CDCCCC3D 		.word	1036831949
 1077 0174 8988083E 		.word	1040746633
 1078 0178 CDCCCC3D 		.word	1036831949
 1079 017c 428DF43D 		.word	1039437122
 1080 0180 CDCCCC3D 		.word	1036831949
 1081 0184 BCE7DC3D 		.word	1037887420
 1082 0188 CDCCCC3D 		.word	1036831949
 1083 018c 81BEC83D 		.word	1036566145
 1084 0190 CDCCCC3D 		.word	1036831949
 1085 0194 BF2DB73D 		.word	1035414975
 1086 0198 CDCCCC3D 		.word	1036831949
ARM GAS  C:\Users\n-is\AppData\Local\Temp\ccz9DQ8a.s 			page 33


 1087 019c 199BA73D 		.word	1034394393
 1088 01a0 CDCCCC3D 		.word	1036831949
 1089 01a4 9A99993D 		.word	1033476506
 1090 01a8 CDCCCC3D 		.word	1036831949
 1091 01ac B8D98C3D 		.word	1032640952
 1092 01b0 CDCCCC3D 		.word	1036831949
 1093 01b4 BF1F813D 		.word	1031872447
 1094 01b8 CDCCCC3D 		.word	1036831949
 1095 01bc 907B6C3D 		.word	1030519696
 1096 01c0 CDCCCC3D 		.word	1036831949
 1097 01c4 931F583D 		.word	1029185427
 1098 01c8 CDCCCC3D 		.word	1036831949
 1099 01cc E1F1443D 		.word	1027928545
 1100 01d0 CDCCCC3D 		.word	1036831949
 1101 01d4 9CC3323D 		.word	1026737052
 1102 01d8 CDCCCC3D 		.word	1036831949
 1103 01dc 0C6E213D 		.word	1025601036
 1104 01e0 CDCCCC3D 		.word	1036831949
 1105 01e4 C3D0103D 		.word	1024512195
 1106 01e8 CDCCCC3D 		.word	1036831949
 1107 01ec 31D0003D 		.word	1023463473
 1108 01f0 CDCCCC3D 		.word	1036831949
 1109 01f4 37A9E23C 		.word	1021487415
 1110 01f8 CDCCCC3D 		.word	1036831949
 1111 01fc 9C92C43C 		.word	1019515548
 1112 0200 CDCCCC3D 		.word	1036831949
 1113 0204 F037A73C 		.word	1017591792
 1114 0208 CDCCCC3D 		.word	1036831949
 1115 020c 57788A3C 		.word	1015707735
 1116 0210 CDCCCC3D 		.word	1036831949
 1117 0214 E26B5C3C 		.word	1012689890
 1118 0218 CDCCCC3D 		.word	1036831949
 1119 021c 57AA243C 		.word	1009035863
 1120 0220 CDCCCC3D 		.word	1036831949
 1121 0224 BFF0DA3B 		.word	1004204223
 1122 0228 CDCCCC3D 		.word	1036831949
 1123 022c 26935A3B 		.word	995791654
 1124 0230 CDCCCC3D 		.word	1036831949
 1125 0234 26935ABB 		.word	-1151691994
 1126 0238 CDCCCC3D 		.word	1036831949
 1127 023c BFF0DABB 		.word	-1143279425
 1128 0240 CDCCCC3D 		.word	1036831949
 1129 0244 57AA24BC 		.word	-1138447785
 1130 0248 CDCCCC3D 		.word	1036831949
 1131 024c E26B5CBC 		.word	-1134793758
 1132 0250 CDCCCC3D 		.word	1036831949
 1133 0254 57788ABC 		.word	-1131775913
 1134 0258 CDCCCC3D 		.word	1036831949
 1135 025c F037A7BC 		.word	-1129891856
 1136 0260 CDCCCC3D 		.word	1036831949
 1137 0264 9C92C4BC 		.word	-1127968100
 1138 0268 CDCCCC3D 		.word	1036831949
 1139 026c 37A9E2BC 		.word	-1125996233
 1140 0270 CDCCCC3D 		.word	1036831949
 1141 0274 31D000BD 		.word	-1124020175
 1142 0278 CDCCCC3D 		.word	1036831949
 1143 027c C3D010BD 		.word	-1122971453
ARM GAS  C:\Users\n-is\AppData\Local\Temp\ccz9DQ8a.s 			page 34


 1144 0280 CDCCCC3D 		.word	1036831949
 1145 0284 0C6E21BD 		.word	-1121882612
 1146 0288 CDCCCC3D 		.word	1036831949
 1147 028c 9CC332BD 		.word	-1120746596
 1148 0290 CDCCCC3D 		.word	1036831949
 1149 0294 E1F144BD 		.word	-1119555103
 1150 0298 CDCCCC3D 		.word	1036831949
 1151 029c 931F58BD 		.word	-1118298221
 1152 02a0 CDCCCC3D 		.word	1036831949
 1153 02a4 907B6CBD 		.word	-1116963952
 1154 02a8 CDCCCC3D 		.word	1036831949
 1155 02ac BF1F81BD 		.word	-1115611201
 1156 02b0 CDCCCC3D 		.word	1036831949
 1157 02b4 B8D98CBD 		.word	-1114842696
 1158 02b8 CDCCCC3D 		.word	1036831949
 1159 02bc 9A9999BD 		.word	-1114007142
 1160 02c0 CDCCCC3D 		.word	1036831949
 1161 02c4 199BA7BD 		.word	-1113089255
 1162 02c8 CDCCCC3D 		.word	1036831949
 1163 02cc BF2DB7BD 		.word	-1112068673
 1164 02d0 CDCCCC3D 		.word	1036831949
 1165 02d4 81BEC8BD 		.word	-1110917503
 1166 02d8 CDCCCC3D 		.word	1036831949
 1167 02dc BCE7DCBD 		.word	-1109596228
 1168 02e0 CDCCCC3D 		.word	1036831949
 1169 02e4 428DF4BD 		.word	-1108046526
 1170 02e8 CDCCCC3D 		.word	1036831949
 1171 02ec 898808BE 		.word	-1106737015
 1172 02f0 CDCCCC3D 		.word	1036831949
 1173 02f4 B25F1ABE 		.word	-1105567822
 1174 02f8 CDCCCC3D 		.word	1036831949
 1175 02fc 9BE331BE 		.word	-1104026725
 1176 0300 CDCCCC3D 		.word	1036831949
 1177 0304 F66D53BE 		.word	-1101828618
 1178 0308 CDCCCC3D 		.word	1036831949
 1179 030c 3E1B85BE 		.word	-1098572994
 1180 0310 CDCCCC3D 		.word	1036831949
 1181 0314 E9769DBE 		.word	-1096976663
 1182 0318 CDCCCC3D 		.word	1036831949
 1183 031c E9769DBE 		.word	-1096976663
 1184 0320 CDCCCC3D 		.word	1036831949
 1185 0324 E9769DBE 		.word	-1096976663
 1186 0328 CDCCCC3D 		.word	1036831949
 1187 032c E9769DBE 		.word	-1096976663
 1188 0330 CDCCCC3D 		.word	1036831949
 1189 0334 F34DC1BE 		.word	-1094627853
 1190 0338 CDCCCC3D 		.word	1036831949
 1191 033c F34DC1BE 		.word	-1094627853
 1192 0340 CDCCCC3D 		.word	1036831949
 1193 0344 E9769DBE 		.word	-1096976663
 1194 0348 CDCCCC3D 		.word	1036831949
 1195 034c E9769DBE 		.word	-1096976663
 1196 0350 CDCCCC3D 		.word	1036831949
 1197 0354 E9769DBE 		.word	-1096976663
 1198 0358 CDCCCC3D 		.word	1036831949
 1199 035c E9769DBE 		.word	-1096976663
 1200 0360 CDCCCC3D 		.word	1036831949
ARM GAS  C:\Users\n-is\AppData\Local\Temp\ccz9DQ8a.s 			page 35


 1201 0364 3E1B85BE 		.word	-1098572994
 1202 0368 CDCCCC3D 		.word	1036831949
 1203 036c F66D53BE 		.word	-1101828618
 1204 0370 CDCCCC3D 		.word	1036831949
 1205 0374 9BE331BE 		.word	-1104026725
 1206 0378 CDCCCC3D 		.word	1036831949
 1207 037c B25F1ABE 		.word	-1105567822
 1208 0380 CDCCCC3D 		.word	1036831949
 1209 0384 898808BE 		.word	-1106737015
 1210 0388 CDCCCC3D 		.word	1036831949
 1211 038c 428DF4BD 		.word	-1108046526
 1212 0390 CDCCCC3D 		.word	1036831949
 1213 0394 BCE7DCBD 		.word	-1109596228
 1214 0398 CDCCCC3D 		.word	1036831949
 1215 039c 81BEC8BD 		.word	-1110917503
 1216 03a0 CDCCCC3D 		.word	1036831949
 1217 03a4 BF2DB7BD 		.word	-1112068673
 1218 03a8 CDCCCC3D 		.word	1036831949
 1219 03ac 199BA7BD 		.word	-1113089255
 1220 03b0 CDCCCC3D 		.word	1036831949
 1221 03b4 9A9999BD 		.word	-1114007142
 1222 03b8 CDCCCC3D 		.word	1036831949
 1223 03bc B8D98CBD 		.word	-1114842696
 1224 03c0 CDCCCC3D 		.word	1036831949
 1225 03c4 BF1F81BD 		.word	-1115611201
 1226 03c8 CDCCCC3D 		.word	1036831949
 1227 03cc 907B6CBD 		.word	-1116963952
 1228 03d0 CDCCCC3D 		.word	1036831949
 1229 03d4 931F58BD 		.word	-1118298221
 1230 03d8 CDCCCC3D 		.word	1036831949
 1231 03dc E1F144BD 		.word	-1119555103
 1232 03e0 CDCCCC3D 		.word	1036831949
 1233 03e4 9CC332BD 		.word	-1120746596
 1234 03e8 CDCCCC3D 		.word	1036831949
 1235 03ec 0C6E21BD 		.word	-1121882612
 1236 03f0 CDCCCC3D 		.word	1036831949
 1237 03f4 C3D010BD 		.word	-1122971453
 1238 03f8 CDCCCC3D 		.word	1036831949
 1239 03fc 31D000BD 		.word	-1124020175
 1240 0400 CDCCCC3D 		.word	1036831949
 1241 0404 37A9E2BC 		.word	-1125996233
 1242 0408 CDCCCC3D 		.word	1036831949
 1243 040c 9C92C4BC 		.word	-1127968100
 1244 0410 CDCCCC3D 		.word	1036831949
 1245 0414 F037A7BC 		.word	-1129891856
 1246 0418 CDCCCC3D 		.word	1036831949
 1247 041c 57788ABC 		.word	-1131775913
 1248 0420 CDCCCC3D 		.word	1036831949
 1249 0424 E26B5CBC 		.word	-1134793758
 1250 0428 CDCCCC3D 		.word	1036831949
 1251 042c 57AA24BC 		.word	-1138447785
 1252 0430 9A99993D 		.word	1033476506
 1253 0434 BFF0DABB 		.word	-1143279425
 1254 0438 CDCC4C3D 		.word	1028443341
 1255 043c 26935ABB 		.word	-1151691994
 1256 0440 CDCCCC3C 		.word	1020054733
 1257 0444 26935A3B 		.word	995791654
ARM GAS  C:\Users\n-is\AppData\Local\Temp\ccz9DQ8a.s 			page 36


 1258 0448 9A99993D 		.word	1033476506
 1259 044c BFF0DA3B 		.word	1004204223
 1260 0450 CDCCCC3D 		.word	1036831949
 1261 0454 57AA243C 		.word	1009035863
 1262 0458 CDCCCC3D 		.word	1036831949
 1263 045c E26B5C3C 		.word	1012689890
 1264 0460 CDCCCC3D 		.word	1036831949
 1265 0464 57788A3C 		.word	1015707735
 1266 0468 CDCCCC3D 		.word	1036831949
 1267 046c F037A73C 		.word	1017591792
 1268 0470 CDCCCC3D 		.word	1036831949
 1269 0474 9C92C43C 		.word	1019515548
 1270 0478 CDCCCC3D 		.word	1036831949
 1271 047c 37A9E23C 		.word	1021487415
 1272 0480 CDCCCC3D 		.word	1036831949
 1273 0484 31D0003D 		.word	1023463473
 1274 0488 CDCCCC3D 		.word	1036831949
 1275 048c C3D0103D 		.word	1024512195
 1276 0490 CDCCCC3D 		.word	1036831949
 1277 0494 0C6E213D 		.word	1025601036
 1278 0498 CDCCCC3D 		.word	1036831949
 1279 049c 9CC3323D 		.word	1026737052
 1280 04a0 CDCCCC3D 		.word	1036831949
 1281 04a4 E1F1443D 		.word	1027928545
 1282 04a8 CDCCCC3D 		.word	1036831949
 1283 04ac 931F583D 		.word	1029185427
 1284 04b0 CDCCCC3D 		.word	1036831949
 1285 04b4 907B6C3D 		.word	1030519696
 1286 04b8 CDCCCC3D 		.word	1036831949
 1287 04bc BF1F813D 		.word	1031872447
 1288 04c0 CDCCCC3D 		.word	1036831949
 1289 04c4 B8D98C3D 		.word	1032640952
 1290 04c8 CDCCCC3D 		.word	1036831949
 1291 04cc 9A99993D 		.word	1033476506
 1292 04d0 CDCCCC3D 		.word	1036831949
 1293 04d4 199BA73D 		.word	1034394393
 1294 04d8 CDCCCC3D 		.word	1036831949
 1295 04dc BF2DB73D 		.word	1035414975
 1296 04e0 CDCCCC3D 		.word	1036831949
 1297 04e4 81BEC83D 		.word	1036566145
 1298 04e8 CDCCCC3D 		.word	1036831949
 1299 04ec BCE7DC3D 		.word	1037887420
 1300 04f0 CDCCCC3D 		.word	1036831949
 1301 04f4 428DF43D 		.word	1039437122
 1302 04f8 CDCCCC3D 		.word	1036831949
 1303 04fc 8988083E 		.word	1040746633
 1304 0500 CDCCCC3D 		.word	1036831949
 1305 0504 B25F1A3E 		.word	1041915826
 1306 0508 CDCCCC3D 		.word	1036831949
 1307 050c 9BE3313E 		.word	1043456923
 1308 0510 CDCCCC3D 		.word	1036831949
 1309 0514 F66D533E 		.word	1045655030
 1310 0518 CDCCCC3D 		.word	1036831949
 1311 051c 3E1B853E 		.word	1048910654
 1312 0520 CDCCCC3D 		.word	1036831949
 1313 0524 E9769D3E 		.word	1050506985
 1314 0528 CDCCCC3D 		.word	1036831949
ARM GAS  C:\Users\n-is\AppData\Local\Temp\ccz9DQ8a.s 			page 37


 1315 052c E9769D3E 		.word	1050506985
 1316 0530 CDCCCC3D 		.word	1036831949
 1317 0534 E9769D3E 		.word	1050506985
 1318 0538 CDCCCC3D 		.word	1036831949
 1319 053c E9769D3E 		.word	1050506985
 1320 0540 CDCCCC3D 		.word	1036831949
 1321 0544 F34DC13E 		.word	1052855795
 1322 0548 CDCCCC3D 		.word	1036831949
 1323 054c F34DC13E 		.word	1052855795
 1324 0550 CDCCCC3D 		.word	1036831949
 1325 0554 F34DC13E 		.word	1052855795
 1326 0558 CDCCCC3D 		.word	1036831949
 1327 055c F34DC13E 		.word	1052855795
 1328 0560 CDCCCC3D 		.word	1036831949
 1329 0564 E9769D3E 		.word	1050506985
 1330 0568 CDCCCC3D 		.word	1036831949
 1331 056c E9769D3E 		.word	1050506985
 1332 0570 CDCCCC3D 		.word	1036831949
 1333 0574 E9769D3E 		.word	1050506985
 1334 0578 CDCCCC3D 		.word	1036831949
 1335 057c E9769D3E 		.word	1050506985
 1336 0580 CDCCCC3D 		.word	1036831949
 1337 0584 3E1B853E 		.word	1048910654
 1338 0588 CDCCCC3D 		.word	1036831949
 1339 058c F66D533E 		.word	1045655030
 1340 0590 CDCCCC3D 		.word	1036831949
 1341 0594 9BE3313E 		.word	1043456923
 1342 0598 CDCCCC3D 		.word	1036831949
 1343 059c B25F1A3E 		.word	1041915826
 1344 05a0 CDCCCC3D 		.word	1036831949
 1345 05a4 8988083E 		.word	1040746633
 1346 05a8 CDCCCC3D 		.word	1036831949
 1347 05ac 428DF43D 		.word	1039437122
 1348 05b0 CDCCCC3D 		.word	1036831949
 1349 05b4 BCE7DC3D 		.word	1037887420
 1350 05b8 CDCCCC3D 		.word	1036831949
 1351 05bc 81BEC83D 		.word	1036566145
 1352 05c0 CDCCCC3D 		.word	1036831949
 1353 05c4 BF2DB73D 		.word	1035414975
 1354 05c8 CDCCCC3D 		.word	1036831949
 1355 05cc 199BA73D 		.word	1034394393
 1356 05d0 CDCCCC3D 		.word	1036831949
 1357 05d4 9A99993D 		.word	1033476506
 1358 05d8 CDCCCC3D 		.word	1036831949
 1359 05dc B8D98C3D 		.word	1032640952
 1360 05e0 CDCCCC3D 		.word	1036831949
 1361 05e4 BF1F813D 		.word	1031872447
 1362 05e8 CDCCCC3D 		.word	1036831949
 1363 05ec 907B6C3D 		.word	1030519696
 1364 05f0 CDCCCC3D 		.word	1036831949
 1365 05f4 931F583D 		.word	1029185427
 1366 05f8 CDCCCC3D 		.word	1036831949
 1367 05fc E1F1443D 		.word	1027928545
 1368 0600 CDCCCC3D 		.word	1036831949
 1369 0604 9CC3323D 		.word	1026737052
 1370 0608 CDCCCC3D 		.word	1036831949
 1371 060c 0C6E213D 		.word	1025601036
ARM GAS  C:\Users\n-is\AppData\Local\Temp\ccz9DQ8a.s 			page 38


 1372 0610 CDCCCC3D 		.word	1036831949
 1373 0614 C3D0103D 		.word	1024512195
 1374 0618 CDCCCC3D 		.word	1036831949
 1375 061c 31D0003D 		.word	1023463473
 1376 0620 CDCCCC3D 		.word	1036831949
 1377 0624 37A9E23C 		.word	1021487415
 1378 0628 CDCCCC3D 		.word	1036831949
 1379 062c 9C92C43C 		.word	1019515548
 1380 0630 CDCCCC3D 		.word	1036831949
 1381 0634 F037A73C 		.word	1017591792
 1382 0638 CDCCCC3D 		.word	1036831949
 1383 063c 57788A3C 		.word	1015707735
 1384 0640 CDCCCC3D 		.word	1036831949
 1385 0644 E26B5C3C 		.word	1012689890
 1386 0648 CDCCCC3D 		.word	1036831949
 1387 064c 57AA243C 		.word	1009035863
 1388 0650 CDCCCC3D 		.word	1036831949
 1389 0654 BFF0DA3B 		.word	1004204223
 1390 0658 CDCCCC3D 		.word	1036831949
 1391 065c 26935A3B 		.word	995791654
 1392 0660 CDCCCC3D 		.word	1036831949
 1393 0664 26935ABB 		.word	-1151691994
 1394 0668 CDCCCC3D 		.word	1036831949
 1395 066c BFF0DABB 		.word	-1143279425
 1396 0670 CDCCCC3D 		.word	1036831949
 1397 0674 57AA24BC 		.word	-1138447785
 1398 0678 CDCCCC3D 		.word	1036831949
 1399 067c E26B5CBC 		.word	-1134793758
 1400 0680 CDCCCC3D 		.word	1036831949
 1401 0684 57788ABC 		.word	-1131775913
 1402 0688 CDCCCC3D 		.word	1036831949
 1403 068c F037A7BC 		.word	-1129891856
 1404 0690 CDCCCC3D 		.word	1036831949
 1405 0694 9C92C4BC 		.word	-1127968100
 1406 0698 CDCCCC3D 		.word	1036831949
 1407 069c 37A9E2BC 		.word	-1125996233
 1408 06a0 CDCCCC3D 		.word	1036831949
 1409 06a4 31D000BD 		.word	-1124020175
 1410 06a8 CDCCCC3D 		.word	1036831949
 1411 06ac C3D010BD 		.word	-1122971453
 1412 06b0 CDCCCC3D 		.word	1036831949
 1413 06b4 0C6E21BD 		.word	-1121882612
 1414 06b8 CDCCCC3D 		.word	1036831949
 1415 06bc 9CC332BD 		.word	-1120746596
 1416 06c0 CDCCCC3D 		.word	1036831949
 1417 06c4 E1F144BD 		.word	-1119555103
 1418 06c8 CDCCCC3D 		.word	1036831949
 1419 06cc 931F58BD 		.word	-1118298221
 1420 06d0 CDCCCC3D 		.word	1036831949
 1421 06d4 907B6CBD 		.word	-1116963952
 1422 06d8 CDCCCC3D 		.word	1036831949
 1423 06dc BF1F81BD 		.word	-1115611201
 1424 06e0 CDCCCC3D 		.word	1036831949
 1425 06e4 B8D98CBD 		.word	-1114842696
 1426 06e8 CDCCCC3D 		.word	1036831949
 1427 06ec 9A9999BD 		.word	-1114007142
 1428 06f0 CDCCCC3D 		.word	1036831949
ARM GAS  C:\Users\n-is\AppData\Local\Temp\ccz9DQ8a.s 			page 39


 1429 06f4 199BA7BD 		.word	-1113089255
 1430 06f8 CDCCCC3D 		.word	1036831949
 1431 06fc BF2DB7BD 		.word	-1112068673
 1432 0700 CDCCCC3D 		.word	1036831949
 1433 0704 81BEC8BD 		.word	-1110917503
 1434 0708 CDCCCC3D 		.word	1036831949
 1435 070c BCE7DCBD 		.word	-1109596228
 1436 0710 CDCCCC3D 		.word	1036831949
 1437 0714 428DF4BD 		.word	-1108046526
 1438 0718 CDCCCC3D 		.word	1036831949
 1439 071c 898808BE 		.word	-1106737015
 1440 0720 CDCCCC3D 		.word	1036831949
 1441 0724 B25F1ABE 		.word	-1105567822
 1442 0728 CDCCCC3D 		.word	1036831949
 1443 072c 9BE331BE 		.word	-1104026725
 1444 0730 CDCCCC3D 		.word	1036831949
 1445 0734 F66D53BE 		.word	-1101828618
 1446 0738 CDCCCC3D 		.word	1036831949
 1447 073c 3E1B85BE 		.word	-1098572994
 1448 0740 CDCCCC3D 		.word	1036831949
 1449 0744 E9769DBE 		.word	-1096976663
 1450 0748 CDCCCC3D 		.word	1036831949
 1451 074c E9769DBE 		.word	-1096976663
 1452 0750 CDCCCC3D 		.word	1036831949
 1453 0754 E9769DBE 		.word	-1096976663
 1454 0758 CDCCCC3D 		.word	1036831949
 1455 075c E9769DBE 		.word	-1096976663
 1456 0760 CDCCCC3D 		.word	1036831949
 1457 0764 F34DC1BE 		.word	-1094627853
 1458 0768 CDCCCC3D 		.word	1036831949
 1459 076c F34DC1BE 		.word	-1094627853
 1460 0770 CDCCCC3D 		.word	1036831949
 1461 0774 E9769DBE 		.word	-1096976663
 1462 0778 CDCCCC3D 		.word	1036831949
 1463 077c E9769DBE 		.word	-1096976663
 1464 0780 CDCCCC3D 		.word	1036831949
 1465 0784 E9769DBE 		.word	-1096976663
 1466 0788 CDCCCC3D 		.word	1036831949
 1467 078c E9769DBE 		.word	-1096976663
 1468 0790 CDCCCC3D 		.word	1036831949
 1469 0794 3E1B85BE 		.word	-1098572994
 1470 0798 CDCCCC3D 		.word	1036831949
 1471 079c F66D53BE 		.word	-1101828618
 1472 07a0 CDCCCC3D 		.word	1036831949
 1473 07a4 9BE331BE 		.word	-1104026725
 1474 07a8 CDCCCC3D 		.word	1036831949
 1475 07ac B25F1ABE 		.word	-1105567822
 1476 07b0 CDCCCC3D 		.word	1036831949
 1477 07b4 898808BE 		.word	-1106737015
 1478 07b8 CDCCCC3D 		.word	1036831949
 1479 07bc 428DF4BD 		.word	-1108046526
 1480 07c0 CDCCCC3D 		.word	1036831949
 1481 07c4 BCE7DCBD 		.word	-1109596228
 1482 07c8 CDCCCC3D 		.word	1036831949
 1483 07cc 81BEC8BD 		.word	-1110917503
 1484 07d0 CDCCCC3D 		.word	1036831949
 1485 07d4 BF2DB7BD 		.word	-1112068673
ARM GAS  C:\Users\n-is\AppData\Local\Temp\ccz9DQ8a.s 			page 40


 1486 07d8 CDCCCC3D 		.word	1036831949
 1487 07dc 199BA7BD 		.word	-1113089255
 1488 07e0 CDCCCC3D 		.word	1036831949
 1489 07e4 9A9999BD 		.word	-1114007142
 1490 07e8 CDCCCC3D 		.word	1036831949
 1491 07ec B8D98CBD 		.word	-1114842696
 1492 07f0 CDCCCC3D 		.word	1036831949
 1493 07f4 BF1F81BD 		.word	-1115611201
 1494 07f8 CDCCCC3D 		.word	1036831949
 1495 07fc 907B6CBD 		.word	-1116963952
 1496 0800 CDCCCC3D 		.word	1036831949
 1497 0804 931F58BD 		.word	-1118298221
 1498 0808 CDCCCC3D 		.word	1036831949
 1499 080c E1F144BD 		.word	-1119555103
 1500 0810 CDCCCC3D 		.word	1036831949
 1501 0814 9CC332BD 		.word	-1120746596
 1502 0818 CDCCCC3D 		.word	1036831949
 1503 081c 0C6E21BD 		.word	-1121882612
 1504 0820 CDCCCC3D 		.word	1036831949
 1505 0824 C3D010BD 		.word	-1122971453
 1506 0828 CDCCCC3D 		.word	1036831949
 1507 082c 31D000BD 		.word	-1124020175
 1508 0830 CDCCCC3D 		.word	1036831949
 1509 0834 37A9E2BC 		.word	-1125996233
 1510 0838 CDCCCC3D 		.word	1036831949
 1511 083c 9C92C4BC 		.word	-1127968100
 1512 0840 CDCCCC3D 		.word	1036831949
 1513 0844 F037A7BC 		.word	-1129891856
 1514 0848 CDCCCC3D 		.word	1036831949
 1515 084c 57788ABC 		.word	-1131775913
 1516 0850 CDCCCC3D 		.word	1036831949
 1517 0854 E26B5CBC 		.word	-1134793758
 1518 0858 CDCCCC3D 		.word	1036831949
 1519 085c 57AA24BC 		.word	-1138447785
 1520 0860 CDCCCC3D 		.word	1036831949
 1521 0864 BFF0DABB 		.word	-1143279425
 1522 0868 00000000 		.word	0
 1523 086c 26935ABB 		.word	-1151691994
 1524 0870 00000000 		.word	0
 1525 0874 00000000 		.word	0
 1526 0878 00000000 		.word	0
 1527 087c 00000000 		.word	0
 1528              		.section	.rodata.Speed_Multiplier,"a",%progbits
 1531              	Speed_Multiplier:
 1532 0000 01       		.byte	1
 1533              		.section	.rodata.SystemClock_Config.str1.4,"aMS",%progbits,1
 1534              		.align	2
 1535              	.LC1:
 1536 0000 436F7265 		.ascii	"Core/Src/main.c\000"
 1536      2F537263 
 1536      2F6D6169 
 1536      6E2E6300 
 1537              		.section	.rodata.time,"a",%progbits
 1538              		.align	2
 1541              	time:
 1542 0000 2506C13E 		.word	1052837413
 1543              		.text
ARM GAS  C:\Users\n-is\AppData\Local\Temp\ccz9DQ8a.s 			page 41


 1544              	.Letext0:
 1545              		.file 2 "c:\\program files (x86)\\gnu tools arm embedded\\7 2018-q2-update\\arm-none-eabi\\include
 1546              		.file 3 "c:\\program files (x86)\\gnu tools arm embedded\\7 2018-q2-update\\arm-none-eabi\\include
 1547              		.file 4 "Drivers/CMSIS/Include/core_cm4.h"
 1548              		.file 5 "Drivers/CMSIS/Device/ST/STM32F4xx/Include/system_stm32f4xx.h"
 1549              		.file 6 "Drivers/CMSIS/Device/ST/STM32F4xx/Include/stm32f407xx.h"
 1550              		.file 7 "Drivers/CMSIS/Device/ST/STM32F4xx/Include/stm32f4xx.h"
 1551              		.file 8 "c:\\program files (x86)\\gnu tools arm embedded\\7 2018-q2-update\\arm-none-eabi\\include
 1552              		.file 9 "c:\\program files (x86)\\gnu tools arm embedded\\7 2018-q2-update\\arm-none-eabi\\include
 1553              		.file 10 "c:\\program files (x86)\\gnu tools arm embedded\\7 2018-q2-update\\lib\\gcc\\arm-none-ea
 1554              		.file 11 "c:\\program files (x86)\\gnu tools arm embedded\\7 2018-q2-update\\arm-none-eabi\\includ
 1555              		.file 12 "Drivers/STM32F4xx_HAL_Driver/Inc/stm32f4xx_hal_def.h"
 1556              		.file 13 "Drivers/STM32F4xx_HAL_Driver/Inc/stm32f4xx_hal_rcc_ex.h"
 1557              		.file 14 "Drivers/STM32F4xx_HAL_Driver/Inc/stm32f4xx_hal_rcc.h"
 1558              		.file 15 "Drivers/STM32F4xx_HAL_Driver/Inc/stm32f4xx_hal_dma.h"
 1559              		.file 16 "Drivers/STM32F4xx_HAL_Driver/Inc/stm32f4xx_hal_adc.h"
 1560              		.file 17 "Drivers/STM32F4xx_HAL_Driver/Inc/stm32f4xx_hal_tim.h"
 1561              		.file 18 "Drivers/STM32F4xx_HAL_Driver/Inc/stm32f4xx_hal_uart.h"
 1562              		.file 19 "Core/Inc/adc.h"
 1563              		.file 20 "Core/Inc/tim.h"
 1564              		.file 21 "Core/Inc/usart.h"
 1565              		.file 22 "Drivers/STM32F4xx_HAL_Driver/Inc/stm32f4xx_hal_cortex.h"
 1566              		.file 23 "Drivers/STM32F4xx_HAL_Driver/Inc/stm32f4xx_hal.h"
 1567              		.file 24 "Core/Inc/gpio.h"
 1568              		.file 25 "Drivers/STM32F4xx_HAL_Driver/Inc/stm32f4xx_hal_gpio.h"
ARM GAS  C:\Users\n-is\AppData\Local\Temp\ccz9DQ8a.s 			page 42

