ARM GAS  C:\Users\n-is\AppData\Local\Temp\cctzTsGQ.s 			page 1


   1              		.cpu cortex-m4
   2              		.eabi_attribute 27, 1
   3              		.eabi_attribute 28, 1
   4              		.eabi_attribute 20, 1
   5              		.eabi_attribute 21, 1
   6              		.eabi_attribute 23, 3
   7              		.eabi_attribute 24, 1
   8              		.eabi_attribute 25, 1
   9              		.eabi_attribute 26, 1
  10              		.eabi_attribute 30, 1
  11              		.eabi_attribute 34, 1
  12              		.eabi_attribute 18, 4
  13              		.file	"stm32f4xx_hal_dma_ex.c"
  14              		.text
  15              	.Ltext0:
  16              		.cfi_sections	.debug_frame
  17              		.section	.text.DMA_MultiBufferSetConfig,"ax",%progbits
  18              		.align	1
  19              		.syntax unified
  20              		.thumb
  21              		.thumb_func
  22              		.fpu fpv4-sp-d16
  24              	DMA_MultiBufferSetConfig:
  25              	.LFB129:
  26              		.file 1 "Drivers/STM32F4xx_HAL_Driver/Src/stm32f4xx_hal_dma_ex.c"
   1:Drivers/STM32F4xx_HAL_Driver/Src/stm32f4xx_hal_dma_ex.c **** /**
   2:Drivers/STM32F4xx_HAL_Driver/Src/stm32f4xx_hal_dma_ex.c ****   ******************************************************************************
   3:Drivers/STM32F4xx_HAL_Driver/Src/stm32f4xx_hal_dma_ex.c ****   * @file    stm32f4xx_hal_dma_ex.c
   4:Drivers/STM32F4xx_HAL_Driver/Src/stm32f4xx_hal_dma_ex.c ****   * @author  MCD Application Team
   5:Drivers/STM32F4xx_HAL_Driver/Src/stm32f4xx_hal_dma_ex.c ****   * @brief   DMA Extension HAL module driver
   6:Drivers/STM32F4xx_HAL_Driver/Src/stm32f4xx_hal_dma_ex.c ****   *         This file provides firmware functions to manage the following 
   7:Drivers/STM32F4xx_HAL_Driver/Src/stm32f4xx_hal_dma_ex.c ****   *         functionalities of the DMA Extension peripheral:
   8:Drivers/STM32F4xx_HAL_Driver/Src/stm32f4xx_hal_dma_ex.c ****   *           + Extended features functions
   9:Drivers/STM32F4xx_HAL_Driver/Src/stm32f4xx_hal_dma_ex.c ****   *
  10:Drivers/STM32F4xx_HAL_Driver/Src/stm32f4xx_hal_dma_ex.c ****   @verbatim
  11:Drivers/STM32F4xx_HAL_Driver/Src/stm32f4xx_hal_dma_ex.c ****   ==============================================================================
  12:Drivers/STM32F4xx_HAL_Driver/Src/stm32f4xx_hal_dma_ex.c ****                         ##### How to use this driver #####
  13:Drivers/STM32F4xx_HAL_Driver/Src/stm32f4xx_hal_dma_ex.c ****   ==============================================================================
  14:Drivers/STM32F4xx_HAL_Driver/Src/stm32f4xx_hal_dma_ex.c ****   [..]
  15:Drivers/STM32F4xx_HAL_Driver/Src/stm32f4xx_hal_dma_ex.c ****   The DMA Extension HAL driver can be used as follows:
  16:Drivers/STM32F4xx_HAL_Driver/Src/stm32f4xx_hal_dma_ex.c ****    (#) Start a multi buffer transfer using the HAL_DMA_MultiBufferStart() function
  17:Drivers/STM32F4xx_HAL_Driver/Src/stm32f4xx_hal_dma_ex.c ****        for polling mode or HAL_DMA_MultiBufferStart_IT() for interrupt mode.
  18:Drivers/STM32F4xx_HAL_Driver/Src/stm32f4xx_hal_dma_ex.c ****                    
  19:Drivers/STM32F4xx_HAL_Driver/Src/stm32f4xx_hal_dma_ex.c ****      -@-  In Memory-to-Memory transfer mode, Multi (Double) Buffer mode is not allowed.
  20:Drivers/STM32F4xx_HAL_Driver/Src/stm32f4xx_hal_dma_ex.c ****      -@-  When Multi (Double) Buffer mode is enabled the, transfer is circular by default.
  21:Drivers/STM32F4xx_HAL_Driver/Src/stm32f4xx_hal_dma_ex.c ****      -@-  In Multi (Double) buffer mode, it is possible to update the base address for 
  22:Drivers/STM32F4xx_HAL_Driver/Src/stm32f4xx_hal_dma_ex.c ****           the AHB memory port on the fly (DMA_SxM0AR or DMA_SxM1AR) when the stream is enabled. 
  23:Drivers/STM32F4xx_HAL_Driver/Src/stm32f4xx_hal_dma_ex.c ****   
  24:Drivers/STM32F4xx_HAL_Driver/Src/stm32f4xx_hal_dma_ex.c ****   @endverbatim
  25:Drivers/STM32F4xx_HAL_Driver/Src/stm32f4xx_hal_dma_ex.c ****   ******************************************************************************
  26:Drivers/STM32F4xx_HAL_Driver/Src/stm32f4xx_hal_dma_ex.c ****   * @attention
  27:Drivers/STM32F4xx_HAL_Driver/Src/stm32f4xx_hal_dma_ex.c ****   *
  28:Drivers/STM32F4xx_HAL_Driver/Src/stm32f4xx_hal_dma_ex.c ****   * <h2><center>&copy; COPYRIGHT(c) 2017 STMicroelectronics</center></h2>
  29:Drivers/STM32F4xx_HAL_Driver/Src/stm32f4xx_hal_dma_ex.c ****   *
  30:Drivers/STM32F4xx_HAL_Driver/Src/stm32f4xx_hal_dma_ex.c ****   * Redistribution and use in source and binary forms, with or without modification,
  31:Drivers/STM32F4xx_HAL_Driver/Src/stm32f4xx_hal_dma_ex.c ****   * are permitted provided that the following conditions are met:
  32:Drivers/STM32F4xx_HAL_Driver/Src/stm32f4xx_hal_dma_ex.c ****   *   1. Redistributions of source code must retain the above copyright notice,
ARM GAS  C:\Users\n-is\AppData\Local\Temp\cctzTsGQ.s 			page 2


  33:Drivers/STM32F4xx_HAL_Driver/Src/stm32f4xx_hal_dma_ex.c ****   *      this list of conditions and the following disclaimer.
  34:Drivers/STM32F4xx_HAL_Driver/Src/stm32f4xx_hal_dma_ex.c ****   *   2. Redistributions in binary form must reproduce the above copyright notice,
  35:Drivers/STM32F4xx_HAL_Driver/Src/stm32f4xx_hal_dma_ex.c ****   *      this list of conditions and the following disclaimer in the documentation
  36:Drivers/STM32F4xx_HAL_Driver/Src/stm32f4xx_hal_dma_ex.c ****   *      and/or other materials provided with the distribution.
  37:Drivers/STM32F4xx_HAL_Driver/Src/stm32f4xx_hal_dma_ex.c ****   *   3. Neither the name of STMicroelectronics nor the names of its contributors
  38:Drivers/STM32F4xx_HAL_Driver/Src/stm32f4xx_hal_dma_ex.c ****   *      may be used to endorse or promote products derived from this software
  39:Drivers/STM32F4xx_HAL_Driver/Src/stm32f4xx_hal_dma_ex.c ****   *      without specific prior written permission.
  40:Drivers/STM32F4xx_HAL_Driver/Src/stm32f4xx_hal_dma_ex.c ****   *
  41:Drivers/STM32F4xx_HAL_Driver/Src/stm32f4xx_hal_dma_ex.c ****   * THIS SOFTWARE IS PROVIDED BY THE COPYRIGHT HOLDERS AND CONTRIBUTORS "AS IS"
  42:Drivers/STM32F4xx_HAL_Driver/Src/stm32f4xx_hal_dma_ex.c ****   * AND ANY EXPRESS OR IMPLIED WARRANTIES, INCLUDING, BUT NOT LIMITED TO, THE
  43:Drivers/STM32F4xx_HAL_Driver/Src/stm32f4xx_hal_dma_ex.c ****   * IMPLIED WARRANTIES OF MERCHANTABILITY AND FITNESS FOR A PARTICULAR PURPOSE ARE
  44:Drivers/STM32F4xx_HAL_Driver/Src/stm32f4xx_hal_dma_ex.c ****   * DISCLAIMED. IN NO EVENT SHALL THE COPYRIGHT HOLDER OR CONTRIBUTORS BE LIABLE
  45:Drivers/STM32F4xx_HAL_Driver/Src/stm32f4xx_hal_dma_ex.c ****   * FOR ANY DIRECT, INDIRECT, INCIDENTAL, SPECIAL, EXEMPLARY, OR CONSEQUENTIAL
  46:Drivers/STM32F4xx_HAL_Driver/Src/stm32f4xx_hal_dma_ex.c ****   * DAMAGES (INCLUDING, BUT NOT LIMITED TO, PROCUREMENT OF SUBSTITUTE GOODS OR
  47:Drivers/STM32F4xx_HAL_Driver/Src/stm32f4xx_hal_dma_ex.c ****   * SERVICES; LOSS OF USE, DATA, OR PROFITS; OR BUSINESS INTERRUPTION) HOWEVER
  48:Drivers/STM32F4xx_HAL_Driver/Src/stm32f4xx_hal_dma_ex.c ****   * CAUSED AND ON ANY THEORY OF LIABILITY, WHETHER IN CONTRACT, STRICT LIABILITY,
  49:Drivers/STM32F4xx_HAL_Driver/Src/stm32f4xx_hal_dma_ex.c ****   * OR TORT (INCLUDING NEGLIGENCE OR OTHERWISE) ARISING IN ANY WAY OUT OF THE USE
  50:Drivers/STM32F4xx_HAL_Driver/Src/stm32f4xx_hal_dma_ex.c ****   * OF THIS SOFTWARE, EVEN IF ADVISED OF THE POSSIBILITY OF SUCH DAMAGE.
  51:Drivers/STM32F4xx_HAL_Driver/Src/stm32f4xx_hal_dma_ex.c ****   *
  52:Drivers/STM32F4xx_HAL_Driver/Src/stm32f4xx_hal_dma_ex.c ****   ******************************************************************************
  53:Drivers/STM32F4xx_HAL_Driver/Src/stm32f4xx_hal_dma_ex.c ****   */
  54:Drivers/STM32F4xx_HAL_Driver/Src/stm32f4xx_hal_dma_ex.c **** 
  55:Drivers/STM32F4xx_HAL_Driver/Src/stm32f4xx_hal_dma_ex.c **** /* Includes ------------------------------------------------------------------*/
  56:Drivers/STM32F4xx_HAL_Driver/Src/stm32f4xx_hal_dma_ex.c **** #include "stm32f4xx_hal.h"
  57:Drivers/STM32F4xx_HAL_Driver/Src/stm32f4xx_hal_dma_ex.c **** 
  58:Drivers/STM32F4xx_HAL_Driver/Src/stm32f4xx_hal_dma_ex.c **** /** @addtogroup STM32F4xx_HAL_Driver
  59:Drivers/STM32F4xx_HAL_Driver/Src/stm32f4xx_hal_dma_ex.c ****   * @{
  60:Drivers/STM32F4xx_HAL_Driver/Src/stm32f4xx_hal_dma_ex.c ****   */
  61:Drivers/STM32F4xx_HAL_Driver/Src/stm32f4xx_hal_dma_ex.c **** 
  62:Drivers/STM32F4xx_HAL_Driver/Src/stm32f4xx_hal_dma_ex.c **** /** @defgroup DMAEx DMAEx
  63:Drivers/STM32F4xx_HAL_Driver/Src/stm32f4xx_hal_dma_ex.c ****   * @brief DMA Extended HAL module driver
  64:Drivers/STM32F4xx_HAL_Driver/Src/stm32f4xx_hal_dma_ex.c ****   * @{
  65:Drivers/STM32F4xx_HAL_Driver/Src/stm32f4xx_hal_dma_ex.c ****   */
  66:Drivers/STM32F4xx_HAL_Driver/Src/stm32f4xx_hal_dma_ex.c **** 
  67:Drivers/STM32F4xx_HAL_Driver/Src/stm32f4xx_hal_dma_ex.c **** #ifdef HAL_DMA_MODULE_ENABLED
  68:Drivers/STM32F4xx_HAL_Driver/Src/stm32f4xx_hal_dma_ex.c **** 
  69:Drivers/STM32F4xx_HAL_Driver/Src/stm32f4xx_hal_dma_ex.c **** /* Private types -------------------------------------------------------------*/
  70:Drivers/STM32F4xx_HAL_Driver/Src/stm32f4xx_hal_dma_ex.c **** /* Private variables ---------------------------------------------------------*/
  71:Drivers/STM32F4xx_HAL_Driver/Src/stm32f4xx_hal_dma_ex.c **** /* Private Constants ---------------------------------------------------------*/
  72:Drivers/STM32F4xx_HAL_Driver/Src/stm32f4xx_hal_dma_ex.c **** /* Private macros ------------------------------------------------------------*/
  73:Drivers/STM32F4xx_HAL_Driver/Src/stm32f4xx_hal_dma_ex.c **** /* Private functions ---------------------------------------------------------*/
  74:Drivers/STM32F4xx_HAL_Driver/Src/stm32f4xx_hal_dma_ex.c **** /** @addtogroup DMAEx_Private_Functions
  75:Drivers/STM32F4xx_HAL_Driver/Src/stm32f4xx_hal_dma_ex.c ****   * @{
  76:Drivers/STM32F4xx_HAL_Driver/Src/stm32f4xx_hal_dma_ex.c ****   */
  77:Drivers/STM32F4xx_HAL_Driver/Src/stm32f4xx_hal_dma_ex.c **** static void DMA_MultiBufferSetConfig(DMA_HandleTypeDef *hdma, uint32_t SrcAddress, uint32_t DstAddr
  78:Drivers/STM32F4xx_HAL_Driver/Src/stm32f4xx_hal_dma_ex.c **** /**
  79:Drivers/STM32F4xx_HAL_Driver/Src/stm32f4xx_hal_dma_ex.c ****   * @}
  80:Drivers/STM32F4xx_HAL_Driver/Src/stm32f4xx_hal_dma_ex.c ****   */
  81:Drivers/STM32F4xx_HAL_Driver/Src/stm32f4xx_hal_dma_ex.c **** 
  82:Drivers/STM32F4xx_HAL_Driver/Src/stm32f4xx_hal_dma_ex.c **** /* Exported functions ---------------------------------------------------------*/
  83:Drivers/STM32F4xx_HAL_Driver/Src/stm32f4xx_hal_dma_ex.c **** 
  84:Drivers/STM32F4xx_HAL_Driver/Src/stm32f4xx_hal_dma_ex.c **** /** @addtogroup DMAEx_Exported_Functions
  85:Drivers/STM32F4xx_HAL_Driver/Src/stm32f4xx_hal_dma_ex.c ****   * @{
  86:Drivers/STM32F4xx_HAL_Driver/Src/stm32f4xx_hal_dma_ex.c ****   */
  87:Drivers/STM32F4xx_HAL_Driver/Src/stm32f4xx_hal_dma_ex.c **** 
  88:Drivers/STM32F4xx_HAL_Driver/Src/stm32f4xx_hal_dma_ex.c **** 
  89:Drivers/STM32F4xx_HAL_Driver/Src/stm32f4xx_hal_dma_ex.c **** /** @addtogroup DMAEx_Exported_Functions_Group1
ARM GAS  C:\Users\n-is\AppData\Local\Temp\cctzTsGQ.s 			page 3


  90:Drivers/STM32F4xx_HAL_Driver/Src/stm32f4xx_hal_dma_ex.c ****   *
  91:Drivers/STM32F4xx_HAL_Driver/Src/stm32f4xx_hal_dma_ex.c **** @verbatim   
  92:Drivers/STM32F4xx_HAL_Driver/Src/stm32f4xx_hal_dma_ex.c ****  ===============================================================================
  93:Drivers/STM32F4xx_HAL_Driver/Src/stm32f4xx_hal_dma_ex.c ****                 #####  Extended features functions  #####
  94:Drivers/STM32F4xx_HAL_Driver/Src/stm32f4xx_hal_dma_ex.c ****  ===============================================================================  
  95:Drivers/STM32F4xx_HAL_Driver/Src/stm32f4xx_hal_dma_ex.c ****     [..]  This section provides functions allowing to:
  96:Drivers/STM32F4xx_HAL_Driver/Src/stm32f4xx_hal_dma_ex.c ****       (+) Configure the source, destination address and data length and 
  97:Drivers/STM32F4xx_HAL_Driver/Src/stm32f4xx_hal_dma_ex.c ****           Start MultiBuffer DMA transfer
  98:Drivers/STM32F4xx_HAL_Driver/Src/stm32f4xx_hal_dma_ex.c ****       (+) Configure the source, destination address and data length and 
  99:Drivers/STM32F4xx_HAL_Driver/Src/stm32f4xx_hal_dma_ex.c ****           Start MultiBuffer DMA transfer with interrupt
 100:Drivers/STM32F4xx_HAL_Driver/Src/stm32f4xx_hal_dma_ex.c ****       (+) Change on the fly the memory0 or memory1 address.
 101:Drivers/STM32F4xx_HAL_Driver/Src/stm32f4xx_hal_dma_ex.c ****       
 102:Drivers/STM32F4xx_HAL_Driver/Src/stm32f4xx_hal_dma_ex.c **** @endverbatim
 103:Drivers/STM32F4xx_HAL_Driver/Src/stm32f4xx_hal_dma_ex.c ****   * @{
 104:Drivers/STM32F4xx_HAL_Driver/Src/stm32f4xx_hal_dma_ex.c ****   */
 105:Drivers/STM32F4xx_HAL_Driver/Src/stm32f4xx_hal_dma_ex.c **** 
 106:Drivers/STM32F4xx_HAL_Driver/Src/stm32f4xx_hal_dma_ex.c **** 
 107:Drivers/STM32F4xx_HAL_Driver/Src/stm32f4xx_hal_dma_ex.c **** /**
 108:Drivers/STM32F4xx_HAL_Driver/Src/stm32f4xx_hal_dma_ex.c ****   * @brief  Starts the multi_buffer DMA Transfer.
 109:Drivers/STM32F4xx_HAL_Driver/Src/stm32f4xx_hal_dma_ex.c ****   * @param  hdma       pointer to a DMA_HandleTypeDef structure that contains
 110:Drivers/STM32F4xx_HAL_Driver/Src/stm32f4xx_hal_dma_ex.c ****   *                     the configuration information for the specified DMA Stream.  
 111:Drivers/STM32F4xx_HAL_Driver/Src/stm32f4xx_hal_dma_ex.c ****   * @param  SrcAddress The source memory Buffer address
 112:Drivers/STM32F4xx_HAL_Driver/Src/stm32f4xx_hal_dma_ex.c ****   * @param  DstAddress The destination memory Buffer address
 113:Drivers/STM32F4xx_HAL_Driver/Src/stm32f4xx_hal_dma_ex.c ****   * @param  SecondMemAddress The second memory Buffer address in case of multi buffer Transfer  
 114:Drivers/STM32F4xx_HAL_Driver/Src/stm32f4xx_hal_dma_ex.c ****   * @param  DataLength The length of data to be transferred from source to destination
 115:Drivers/STM32F4xx_HAL_Driver/Src/stm32f4xx_hal_dma_ex.c ****   * @retval HAL status
 116:Drivers/STM32F4xx_HAL_Driver/Src/stm32f4xx_hal_dma_ex.c ****   */
 117:Drivers/STM32F4xx_HAL_Driver/Src/stm32f4xx_hal_dma_ex.c **** HAL_StatusTypeDef HAL_DMAEx_MultiBufferStart(DMA_HandleTypeDef *hdma, uint32_t SrcAddress, uint32_t
 118:Drivers/STM32F4xx_HAL_Driver/Src/stm32f4xx_hal_dma_ex.c **** {
 119:Drivers/STM32F4xx_HAL_Driver/Src/stm32f4xx_hal_dma_ex.c ****   HAL_StatusTypeDef status = HAL_OK;
 120:Drivers/STM32F4xx_HAL_Driver/Src/stm32f4xx_hal_dma_ex.c ****   
 121:Drivers/STM32F4xx_HAL_Driver/Src/stm32f4xx_hal_dma_ex.c ****   /* Check the parameters */
 122:Drivers/STM32F4xx_HAL_Driver/Src/stm32f4xx_hal_dma_ex.c ****   assert_param(IS_DMA_BUFFER_SIZE(DataLength));
 123:Drivers/STM32F4xx_HAL_Driver/Src/stm32f4xx_hal_dma_ex.c ****   
 124:Drivers/STM32F4xx_HAL_Driver/Src/stm32f4xx_hal_dma_ex.c ****   /* Memory-to-memory transfer not supported in double buffering mode */
 125:Drivers/STM32F4xx_HAL_Driver/Src/stm32f4xx_hal_dma_ex.c ****   if (hdma->Init.Direction == DMA_MEMORY_TO_MEMORY)
 126:Drivers/STM32F4xx_HAL_Driver/Src/stm32f4xx_hal_dma_ex.c ****   {
 127:Drivers/STM32F4xx_HAL_Driver/Src/stm32f4xx_hal_dma_ex.c ****     hdma->ErrorCode = HAL_DMA_ERROR_NOT_SUPPORTED;
 128:Drivers/STM32F4xx_HAL_Driver/Src/stm32f4xx_hal_dma_ex.c ****     status = HAL_ERROR;
 129:Drivers/STM32F4xx_HAL_Driver/Src/stm32f4xx_hal_dma_ex.c ****   }
 130:Drivers/STM32F4xx_HAL_Driver/Src/stm32f4xx_hal_dma_ex.c ****   else
 131:Drivers/STM32F4xx_HAL_Driver/Src/stm32f4xx_hal_dma_ex.c ****   {
 132:Drivers/STM32F4xx_HAL_Driver/Src/stm32f4xx_hal_dma_ex.c ****     /* Process Locked */
 133:Drivers/STM32F4xx_HAL_Driver/Src/stm32f4xx_hal_dma_ex.c ****     __HAL_LOCK(hdma);
 134:Drivers/STM32F4xx_HAL_Driver/Src/stm32f4xx_hal_dma_ex.c ****     
 135:Drivers/STM32F4xx_HAL_Driver/Src/stm32f4xx_hal_dma_ex.c ****     if(HAL_DMA_STATE_READY == hdma->State)
 136:Drivers/STM32F4xx_HAL_Driver/Src/stm32f4xx_hal_dma_ex.c ****     {
 137:Drivers/STM32F4xx_HAL_Driver/Src/stm32f4xx_hal_dma_ex.c ****       /* Change DMA peripheral state */
 138:Drivers/STM32F4xx_HAL_Driver/Src/stm32f4xx_hal_dma_ex.c ****       hdma->State = HAL_DMA_STATE_BUSY; 
 139:Drivers/STM32F4xx_HAL_Driver/Src/stm32f4xx_hal_dma_ex.c ****       
 140:Drivers/STM32F4xx_HAL_Driver/Src/stm32f4xx_hal_dma_ex.c ****       /* Enable the double buffer mode */
 141:Drivers/STM32F4xx_HAL_Driver/Src/stm32f4xx_hal_dma_ex.c ****       hdma->Instance->CR |= (uint32_t)DMA_SxCR_DBM;
 142:Drivers/STM32F4xx_HAL_Driver/Src/stm32f4xx_hal_dma_ex.c ****       
 143:Drivers/STM32F4xx_HAL_Driver/Src/stm32f4xx_hal_dma_ex.c ****       /* Configure DMA Stream destination address */
 144:Drivers/STM32F4xx_HAL_Driver/Src/stm32f4xx_hal_dma_ex.c ****       hdma->Instance->M1AR = SecondMemAddress;
 145:Drivers/STM32F4xx_HAL_Driver/Src/stm32f4xx_hal_dma_ex.c ****       
 146:Drivers/STM32F4xx_HAL_Driver/Src/stm32f4xx_hal_dma_ex.c ****       /* Configure the source, destination address and the data length */
ARM GAS  C:\Users\n-is\AppData\Local\Temp\cctzTsGQ.s 			page 4


 147:Drivers/STM32F4xx_HAL_Driver/Src/stm32f4xx_hal_dma_ex.c ****       DMA_MultiBufferSetConfig(hdma, SrcAddress, DstAddress, DataLength);
 148:Drivers/STM32F4xx_HAL_Driver/Src/stm32f4xx_hal_dma_ex.c ****       
 149:Drivers/STM32F4xx_HAL_Driver/Src/stm32f4xx_hal_dma_ex.c ****       /* Enable the peripheral */
 150:Drivers/STM32F4xx_HAL_Driver/Src/stm32f4xx_hal_dma_ex.c ****       __HAL_DMA_ENABLE(hdma);
 151:Drivers/STM32F4xx_HAL_Driver/Src/stm32f4xx_hal_dma_ex.c ****     }
 152:Drivers/STM32F4xx_HAL_Driver/Src/stm32f4xx_hal_dma_ex.c ****     else
 153:Drivers/STM32F4xx_HAL_Driver/Src/stm32f4xx_hal_dma_ex.c ****     {
 154:Drivers/STM32F4xx_HAL_Driver/Src/stm32f4xx_hal_dma_ex.c ****       /* Return error status */
 155:Drivers/STM32F4xx_HAL_Driver/Src/stm32f4xx_hal_dma_ex.c ****       status = HAL_BUSY;
 156:Drivers/STM32F4xx_HAL_Driver/Src/stm32f4xx_hal_dma_ex.c ****     }
 157:Drivers/STM32F4xx_HAL_Driver/Src/stm32f4xx_hal_dma_ex.c ****   }
 158:Drivers/STM32F4xx_HAL_Driver/Src/stm32f4xx_hal_dma_ex.c ****   return status;
 159:Drivers/STM32F4xx_HAL_Driver/Src/stm32f4xx_hal_dma_ex.c **** }
 160:Drivers/STM32F4xx_HAL_Driver/Src/stm32f4xx_hal_dma_ex.c **** 
 161:Drivers/STM32F4xx_HAL_Driver/Src/stm32f4xx_hal_dma_ex.c **** /**
 162:Drivers/STM32F4xx_HAL_Driver/Src/stm32f4xx_hal_dma_ex.c ****   * @brief  Starts the multi_buffer DMA Transfer with interrupt enabled.
 163:Drivers/STM32F4xx_HAL_Driver/Src/stm32f4xx_hal_dma_ex.c ****   * @param  hdma       pointer to a DMA_HandleTypeDef structure that contains
 164:Drivers/STM32F4xx_HAL_Driver/Src/stm32f4xx_hal_dma_ex.c ****   *                     the configuration information for the specified DMA Stream.  
 165:Drivers/STM32F4xx_HAL_Driver/Src/stm32f4xx_hal_dma_ex.c ****   * @param  SrcAddress The source memory Buffer address
 166:Drivers/STM32F4xx_HAL_Driver/Src/stm32f4xx_hal_dma_ex.c ****   * @param  DstAddress The destination memory Buffer address
 167:Drivers/STM32F4xx_HAL_Driver/Src/stm32f4xx_hal_dma_ex.c ****   * @param  SecondMemAddress The second memory Buffer address in case of multi buffer Transfer  
 168:Drivers/STM32F4xx_HAL_Driver/Src/stm32f4xx_hal_dma_ex.c ****   * @param  DataLength The length of data to be transferred from source to destination
 169:Drivers/STM32F4xx_HAL_Driver/Src/stm32f4xx_hal_dma_ex.c ****   * @retval HAL status
 170:Drivers/STM32F4xx_HAL_Driver/Src/stm32f4xx_hal_dma_ex.c ****   */
 171:Drivers/STM32F4xx_HAL_Driver/Src/stm32f4xx_hal_dma_ex.c **** HAL_StatusTypeDef HAL_DMAEx_MultiBufferStart_IT(DMA_HandleTypeDef *hdma, uint32_t SrcAddress, uint3
 172:Drivers/STM32F4xx_HAL_Driver/Src/stm32f4xx_hal_dma_ex.c **** {
 173:Drivers/STM32F4xx_HAL_Driver/Src/stm32f4xx_hal_dma_ex.c ****   HAL_StatusTypeDef status = HAL_OK;
 174:Drivers/STM32F4xx_HAL_Driver/Src/stm32f4xx_hal_dma_ex.c ****   
 175:Drivers/STM32F4xx_HAL_Driver/Src/stm32f4xx_hal_dma_ex.c ****   /* Check the parameters */
 176:Drivers/STM32F4xx_HAL_Driver/Src/stm32f4xx_hal_dma_ex.c ****   assert_param(IS_DMA_BUFFER_SIZE(DataLength));
 177:Drivers/STM32F4xx_HAL_Driver/Src/stm32f4xx_hal_dma_ex.c ****   
 178:Drivers/STM32F4xx_HAL_Driver/Src/stm32f4xx_hal_dma_ex.c ****   /* Memory-to-memory transfer not supported in double buffering mode */
 179:Drivers/STM32F4xx_HAL_Driver/Src/stm32f4xx_hal_dma_ex.c ****   if (hdma->Init.Direction == DMA_MEMORY_TO_MEMORY)
 180:Drivers/STM32F4xx_HAL_Driver/Src/stm32f4xx_hal_dma_ex.c ****   {
 181:Drivers/STM32F4xx_HAL_Driver/Src/stm32f4xx_hal_dma_ex.c ****     hdma->ErrorCode = HAL_DMA_ERROR_NOT_SUPPORTED;
 182:Drivers/STM32F4xx_HAL_Driver/Src/stm32f4xx_hal_dma_ex.c ****     return HAL_ERROR;
 183:Drivers/STM32F4xx_HAL_Driver/Src/stm32f4xx_hal_dma_ex.c ****   }
 184:Drivers/STM32F4xx_HAL_Driver/Src/stm32f4xx_hal_dma_ex.c ****   
 185:Drivers/STM32F4xx_HAL_Driver/Src/stm32f4xx_hal_dma_ex.c ****   /* Check callback functions */
 186:Drivers/STM32F4xx_HAL_Driver/Src/stm32f4xx_hal_dma_ex.c ****   if ((NULL == hdma->XferCpltCallback) || (NULL == hdma->XferM1CpltCallback) || (NULL == hdma->Xfer
 187:Drivers/STM32F4xx_HAL_Driver/Src/stm32f4xx_hal_dma_ex.c ****   {
 188:Drivers/STM32F4xx_HAL_Driver/Src/stm32f4xx_hal_dma_ex.c ****     hdma->ErrorCode = HAL_DMA_ERROR_PARAM;
 189:Drivers/STM32F4xx_HAL_Driver/Src/stm32f4xx_hal_dma_ex.c ****     return HAL_ERROR;
 190:Drivers/STM32F4xx_HAL_Driver/Src/stm32f4xx_hal_dma_ex.c ****   }
 191:Drivers/STM32F4xx_HAL_Driver/Src/stm32f4xx_hal_dma_ex.c ****   
 192:Drivers/STM32F4xx_HAL_Driver/Src/stm32f4xx_hal_dma_ex.c ****   /* Process locked */
 193:Drivers/STM32F4xx_HAL_Driver/Src/stm32f4xx_hal_dma_ex.c ****   __HAL_LOCK(hdma);
 194:Drivers/STM32F4xx_HAL_Driver/Src/stm32f4xx_hal_dma_ex.c ****   
 195:Drivers/STM32F4xx_HAL_Driver/Src/stm32f4xx_hal_dma_ex.c ****   if(HAL_DMA_STATE_READY == hdma->State)
 196:Drivers/STM32F4xx_HAL_Driver/Src/stm32f4xx_hal_dma_ex.c ****   {
 197:Drivers/STM32F4xx_HAL_Driver/Src/stm32f4xx_hal_dma_ex.c ****     /* Change DMA peripheral state */
 198:Drivers/STM32F4xx_HAL_Driver/Src/stm32f4xx_hal_dma_ex.c ****     hdma->State = HAL_DMA_STATE_BUSY;
 199:Drivers/STM32F4xx_HAL_Driver/Src/stm32f4xx_hal_dma_ex.c ****     
 200:Drivers/STM32F4xx_HAL_Driver/Src/stm32f4xx_hal_dma_ex.c ****     /* Initialize the error code */
 201:Drivers/STM32F4xx_HAL_Driver/Src/stm32f4xx_hal_dma_ex.c ****     hdma->ErrorCode = HAL_DMA_ERROR_NONE;
 202:Drivers/STM32F4xx_HAL_Driver/Src/stm32f4xx_hal_dma_ex.c ****     
 203:Drivers/STM32F4xx_HAL_Driver/Src/stm32f4xx_hal_dma_ex.c ****     /* Enable the Double buffer mode */
ARM GAS  C:\Users\n-is\AppData\Local\Temp\cctzTsGQ.s 			page 5


 204:Drivers/STM32F4xx_HAL_Driver/Src/stm32f4xx_hal_dma_ex.c ****     hdma->Instance->CR |= (uint32_t)DMA_SxCR_DBM;
 205:Drivers/STM32F4xx_HAL_Driver/Src/stm32f4xx_hal_dma_ex.c ****     
 206:Drivers/STM32F4xx_HAL_Driver/Src/stm32f4xx_hal_dma_ex.c ****     /* Configure DMA Stream destination address */
 207:Drivers/STM32F4xx_HAL_Driver/Src/stm32f4xx_hal_dma_ex.c ****     hdma->Instance->M1AR = SecondMemAddress;
 208:Drivers/STM32F4xx_HAL_Driver/Src/stm32f4xx_hal_dma_ex.c ****     
 209:Drivers/STM32F4xx_HAL_Driver/Src/stm32f4xx_hal_dma_ex.c ****     /* Configure the source, destination address and the data length */
 210:Drivers/STM32F4xx_HAL_Driver/Src/stm32f4xx_hal_dma_ex.c ****     DMA_MultiBufferSetConfig(hdma, SrcAddress, DstAddress, DataLength); 
 211:Drivers/STM32F4xx_HAL_Driver/Src/stm32f4xx_hal_dma_ex.c ****     
 212:Drivers/STM32F4xx_HAL_Driver/Src/stm32f4xx_hal_dma_ex.c ****     /* Clear all flags */
 213:Drivers/STM32F4xx_HAL_Driver/Src/stm32f4xx_hal_dma_ex.c ****     __HAL_DMA_CLEAR_FLAG (hdma, __HAL_DMA_GET_TC_FLAG_INDEX(hdma));
 214:Drivers/STM32F4xx_HAL_Driver/Src/stm32f4xx_hal_dma_ex.c ****     __HAL_DMA_CLEAR_FLAG (hdma, __HAL_DMA_GET_HT_FLAG_INDEX(hdma));
 215:Drivers/STM32F4xx_HAL_Driver/Src/stm32f4xx_hal_dma_ex.c ****     __HAL_DMA_CLEAR_FLAG (hdma, __HAL_DMA_GET_TE_FLAG_INDEX(hdma));
 216:Drivers/STM32F4xx_HAL_Driver/Src/stm32f4xx_hal_dma_ex.c ****     __HAL_DMA_CLEAR_FLAG (hdma, __HAL_DMA_GET_DME_FLAG_INDEX(hdma));
 217:Drivers/STM32F4xx_HAL_Driver/Src/stm32f4xx_hal_dma_ex.c ****     __HAL_DMA_CLEAR_FLAG (hdma, __HAL_DMA_GET_FE_FLAG_INDEX(hdma));
 218:Drivers/STM32F4xx_HAL_Driver/Src/stm32f4xx_hal_dma_ex.c **** 
 219:Drivers/STM32F4xx_HAL_Driver/Src/stm32f4xx_hal_dma_ex.c ****     /* Enable Common interrupts*/
 220:Drivers/STM32F4xx_HAL_Driver/Src/stm32f4xx_hal_dma_ex.c ****     hdma->Instance->CR  |= DMA_IT_TC | DMA_IT_TE | DMA_IT_DME;
 221:Drivers/STM32F4xx_HAL_Driver/Src/stm32f4xx_hal_dma_ex.c ****     hdma->Instance->FCR |= DMA_IT_FE;
 222:Drivers/STM32F4xx_HAL_Driver/Src/stm32f4xx_hal_dma_ex.c ****     
 223:Drivers/STM32F4xx_HAL_Driver/Src/stm32f4xx_hal_dma_ex.c ****     if((hdma->XferHalfCpltCallback != NULL) || (hdma->XferM1HalfCpltCallback != NULL))
 224:Drivers/STM32F4xx_HAL_Driver/Src/stm32f4xx_hal_dma_ex.c ****     {
 225:Drivers/STM32F4xx_HAL_Driver/Src/stm32f4xx_hal_dma_ex.c ****       hdma->Instance->CR  |= DMA_IT_HT;
 226:Drivers/STM32F4xx_HAL_Driver/Src/stm32f4xx_hal_dma_ex.c ****     }
 227:Drivers/STM32F4xx_HAL_Driver/Src/stm32f4xx_hal_dma_ex.c ****     
 228:Drivers/STM32F4xx_HAL_Driver/Src/stm32f4xx_hal_dma_ex.c ****     /* Enable the peripheral */
 229:Drivers/STM32F4xx_HAL_Driver/Src/stm32f4xx_hal_dma_ex.c ****     __HAL_DMA_ENABLE(hdma); 
 230:Drivers/STM32F4xx_HAL_Driver/Src/stm32f4xx_hal_dma_ex.c ****   }
 231:Drivers/STM32F4xx_HAL_Driver/Src/stm32f4xx_hal_dma_ex.c ****   else
 232:Drivers/STM32F4xx_HAL_Driver/Src/stm32f4xx_hal_dma_ex.c ****   {     
 233:Drivers/STM32F4xx_HAL_Driver/Src/stm32f4xx_hal_dma_ex.c ****     /* Process unlocked */
 234:Drivers/STM32F4xx_HAL_Driver/Src/stm32f4xx_hal_dma_ex.c ****     __HAL_UNLOCK(hdma);	  
 235:Drivers/STM32F4xx_HAL_Driver/Src/stm32f4xx_hal_dma_ex.c ****     
 236:Drivers/STM32F4xx_HAL_Driver/Src/stm32f4xx_hal_dma_ex.c ****     /* Return error status */
 237:Drivers/STM32F4xx_HAL_Driver/Src/stm32f4xx_hal_dma_ex.c ****     status = HAL_BUSY;
 238:Drivers/STM32F4xx_HAL_Driver/Src/stm32f4xx_hal_dma_ex.c ****   }  
 239:Drivers/STM32F4xx_HAL_Driver/Src/stm32f4xx_hal_dma_ex.c ****   return status; 
 240:Drivers/STM32F4xx_HAL_Driver/Src/stm32f4xx_hal_dma_ex.c **** }
 241:Drivers/STM32F4xx_HAL_Driver/Src/stm32f4xx_hal_dma_ex.c **** 
 242:Drivers/STM32F4xx_HAL_Driver/Src/stm32f4xx_hal_dma_ex.c **** /**
 243:Drivers/STM32F4xx_HAL_Driver/Src/stm32f4xx_hal_dma_ex.c ****   * @brief  Change the memory0 or memory1 address on the fly.
 244:Drivers/STM32F4xx_HAL_Driver/Src/stm32f4xx_hal_dma_ex.c ****   * @param  hdma       pointer to a DMA_HandleTypeDef structure that contains
 245:Drivers/STM32F4xx_HAL_Driver/Src/stm32f4xx_hal_dma_ex.c ****   *                     the configuration information for the specified DMA Stream.  
 246:Drivers/STM32F4xx_HAL_Driver/Src/stm32f4xx_hal_dma_ex.c ****   * @param  Address    The new address
 247:Drivers/STM32F4xx_HAL_Driver/Src/stm32f4xx_hal_dma_ex.c ****   * @param  memory     the memory to be changed, This parameter can be one of 
 248:Drivers/STM32F4xx_HAL_Driver/Src/stm32f4xx_hal_dma_ex.c ****   *                     the following values:
 249:Drivers/STM32F4xx_HAL_Driver/Src/stm32f4xx_hal_dma_ex.c ****   *                      MEMORY0 /
 250:Drivers/STM32F4xx_HAL_Driver/Src/stm32f4xx_hal_dma_ex.c ****   *                      MEMORY1
 251:Drivers/STM32F4xx_HAL_Driver/Src/stm32f4xx_hal_dma_ex.c ****   * @note   The MEMORY0 address can be changed only when the current transfer use
 252:Drivers/STM32F4xx_HAL_Driver/Src/stm32f4xx_hal_dma_ex.c ****   *         MEMORY1 and the MEMORY1 address can be changed only when the current 
 253:Drivers/STM32F4xx_HAL_Driver/Src/stm32f4xx_hal_dma_ex.c ****   *         transfer use MEMORY0.
 254:Drivers/STM32F4xx_HAL_Driver/Src/stm32f4xx_hal_dma_ex.c ****   * @retval HAL status
 255:Drivers/STM32F4xx_HAL_Driver/Src/stm32f4xx_hal_dma_ex.c ****   */
 256:Drivers/STM32F4xx_HAL_Driver/Src/stm32f4xx_hal_dma_ex.c **** HAL_StatusTypeDef HAL_DMAEx_ChangeMemory(DMA_HandleTypeDef *hdma, uint32_t Address, HAL_DMA_MemoryT
 257:Drivers/STM32F4xx_HAL_Driver/Src/stm32f4xx_hal_dma_ex.c **** {
 258:Drivers/STM32F4xx_HAL_Driver/Src/stm32f4xx_hal_dma_ex.c ****   if(memory == MEMORY0)
 259:Drivers/STM32F4xx_HAL_Driver/Src/stm32f4xx_hal_dma_ex.c ****   {
 260:Drivers/STM32F4xx_HAL_Driver/Src/stm32f4xx_hal_dma_ex.c ****     /* change the memory0 address */
ARM GAS  C:\Users\n-is\AppData\Local\Temp\cctzTsGQ.s 			page 6


 261:Drivers/STM32F4xx_HAL_Driver/Src/stm32f4xx_hal_dma_ex.c ****     hdma->Instance->M0AR = Address;
 262:Drivers/STM32F4xx_HAL_Driver/Src/stm32f4xx_hal_dma_ex.c ****   }
 263:Drivers/STM32F4xx_HAL_Driver/Src/stm32f4xx_hal_dma_ex.c ****   else
 264:Drivers/STM32F4xx_HAL_Driver/Src/stm32f4xx_hal_dma_ex.c ****   {
 265:Drivers/STM32F4xx_HAL_Driver/Src/stm32f4xx_hal_dma_ex.c ****     /* change the memory1 address */
 266:Drivers/STM32F4xx_HAL_Driver/Src/stm32f4xx_hal_dma_ex.c ****     hdma->Instance->M1AR = Address;
 267:Drivers/STM32F4xx_HAL_Driver/Src/stm32f4xx_hal_dma_ex.c ****   }
 268:Drivers/STM32F4xx_HAL_Driver/Src/stm32f4xx_hal_dma_ex.c **** 
 269:Drivers/STM32F4xx_HAL_Driver/Src/stm32f4xx_hal_dma_ex.c ****   return HAL_OK;
 270:Drivers/STM32F4xx_HAL_Driver/Src/stm32f4xx_hal_dma_ex.c **** }
 271:Drivers/STM32F4xx_HAL_Driver/Src/stm32f4xx_hal_dma_ex.c **** 
 272:Drivers/STM32F4xx_HAL_Driver/Src/stm32f4xx_hal_dma_ex.c **** /**
 273:Drivers/STM32F4xx_HAL_Driver/Src/stm32f4xx_hal_dma_ex.c ****   * @}
 274:Drivers/STM32F4xx_HAL_Driver/Src/stm32f4xx_hal_dma_ex.c ****   */
 275:Drivers/STM32F4xx_HAL_Driver/Src/stm32f4xx_hal_dma_ex.c **** 
 276:Drivers/STM32F4xx_HAL_Driver/Src/stm32f4xx_hal_dma_ex.c **** /**
 277:Drivers/STM32F4xx_HAL_Driver/Src/stm32f4xx_hal_dma_ex.c ****   * @}
 278:Drivers/STM32F4xx_HAL_Driver/Src/stm32f4xx_hal_dma_ex.c ****   */
 279:Drivers/STM32F4xx_HAL_Driver/Src/stm32f4xx_hal_dma_ex.c **** 
 280:Drivers/STM32F4xx_HAL_Driver/Src/stm32f4xx_hal_dma_ex.c **** /** @addtogroup DMAEx_Private_Functions
 281:Drivers/STM32F4xx_HAL_Driver/Src/stm32f4xx_hal_dma_ex.c ****   * @{
 282:Drivers/STM32F4xx_HAL_Driver/Src/stm32f4xx_hal_dma_ex.c ****   */
 283:Drivers/STM32F4xx_HAL_Driver/Src/stm32f4xx_hal_dma_ex.c **** 
 284:Drivers/STM32F4xx_HAL_Driver/Src/stm32f4xx_hal_dma_ex.c **** /**
 285:Drivers/STM32F4xx_HAL_Driver/Src/stm32f4xx_hal_dma_ex.c ****   * @brief  Set the DMA Transfer parameter.
 286:Drivers/STM32F4xx_HAL_Driver/Src/stm32f4xx_hal_dma_ex.c ****   * @param  hdma       pointer to a DMA_HandleTypeDef structure that contains
 287:Drivers/STM32F4xx_HAL_Driver/Src/stm32f4xx_hal_dma_ex.c ****   *                     the configuration information for the specified DMA Stream.  
 288:Drivers/STM32F4xx_HAL_Driver/Src/stm32f4xx_hal_dma_ex.c ****   * @param  SrcAddress The source memory Buffer address
 289:Drivers/STM32F4xx_HAL_Driver/Src/stm32f4xx_hal_dma_ex.c ****   * @param  DstAddress The destination memory Buffer address
 290:Drivers/STM32F4xx_HAL_Driver/Src/stm32f4xx_hal_dma_ex.c ****   * @param  DataLength The length of data to be transferred from source to destination
 291:Drivers/STM32F4xx_HAL_Driver/Src/stm32f4xx_hal_dma_ex.c ****   * @retval HAL status
 292:Drivers/STM32F4xx_HAL_Driver/Src/stm32f4xx_hal_dma_ex.c ****   */
 293:Drivers/STM32F4xx_HAL_Driver/Src/stm32f4xx_hal_dma_ex.c **** static void DMA_MultiBufferSetConfig(DMA_HandleTypeDef *hdma, uint32_t SrcAddress, uint32_t DstAddr
 294:Drivers/STM32F4xx_HAL_Driver/Src/stm32f4xx_hal_dma_ex.c **** {  
  27              		.loc 1 294 0
  28              		.cfi_startproc
  29              		@ args = 0, pretend = 0, frame = 0
  30              		@ frame_needed = 0, uses_anonymous_args = 0
  31              		@ link register save eliminated.
  32              	.LVL0:
  33 0000 10B4     		push	{r4}
  34              	.LCFI0:
  35              		.cfi_def_cfa_offset 4
  36              		.cfi_offset 4, -4
 295:Drivers/STM32F4xx_HAL_Driver/Src/stm32f4xx_hal_dma_ex.c ****   /* Configure DMA Stream data length */
 296:Drivers/STM32F4xx_HAL_Driver/Src/stm32f4xx_hal_dma_ex.c ****   hdma->Instance->NDTR = DataLength;
  37              		.loc 1 296 0
  38 0002 0468     		ldr	r4, [r0]
  39 0004 6360     		str	r3, [r4, #4]
 297:Drivers/STM32F4xx_HAL_Driver/Src/stm32f4xx_hal_dma_ex.c ****   
 298:Drivers/STM32F4xx_HAL_Driver/Src/stm32f4xx_hal_dma_ex.c ****   /* Peripheral to Memory */
 299:Drivers/STM32F4xx_HAL_Driver/Src/stm32f4xx_hal_dma_ex.c ****   if((hdma->Init.Direction) == DMA_MEMORY_TO_PERIPH)
  40              		.loc 1 299 0
  41 0006 8368     		ldr	r3, [r0, #8]
  42              	.LVL1:
  43 0008 402B     		cmp	r3, #64
  44 000a 06D0     		beq	.L5
ARM GAS  C:\Users\n-is\AppData\Local\Temp\cctzTsGQ.s 			page 7


 300:Drivers/STM32F4xx_HAL_Driver/Src/stm32f4xx_hal_dma_ex.c ****   {   
 301:Drivers/STM32F4xx_HAL_Driver/Src/stm32f4xx_hal_dma_ex.c ****     /* Configure DMA Stream destination address */
 302:Drivers/STM32F4xx_HAL_Driver/Src/stm32f4xx_hal_dma_ex.c ****     hdma->Instance->PAR = DstAddress;
 303:Drivers/STM32F4xx_HAL_Driver/Src/stm32f4xx_hal_dma_ex.c ****     
 304:Drivers/STM32F4xx_HAL_Driver/Src/stm32f4xx_hal_dma_ex.c ****     /* Configure DMA Stream source address */
 305:Drivers/STM32F4xx_HAL_Driver/Src/stm32f4xx_hal_dma_ex.c ****     hdma->Instance->M0AR = SrcAddress;
 306:Drivers/STM32F4xx_HAL_Driver/Src/stm32f4xx_hal_dma_ex.c ****   }
 307:Drivers/STM32F4xx_HAL_Driver/Src/stm32f4xx_hal_dma_ex.c ****   /* Memory to Peripheral */
 308:Drivers/STM32F4xx_HAL_Driver/Src/stm32f4xx_hal_dma_ex.c ****   else
 309:Drivers/STM32F4xx_HAL_Driver/Src/stm32f4xx_hal_dma_ex.c ****   {
 310:Drivers/STM32F4xx_HAL_Driver/Src/stm32f4xx_hal_dma_ex.c ****     /* Configure DMA Stream source address */
 311:Drivers/STM32F4xx_HAL_Driver/Src/stm32f4xx_hal_dma_ex.c ****     hdma->Instance->PAR = SrcAddress;
  45              		.loc 1 311 0
  46 000c 0368     		ldr	r3, [r0]
  47 000e 9960     		str	r1, [r3, #8]
  48              	.LVL2:
 312:Drivers/STM32F4xx_HAL_Driver/Src/stm32f4xx_hal_dma_ex.c ****     
 313:Drivers/STM32F4xx_HAL_Driver/Src/stm32f4xx_hal_dma_ex.c ****     /* Configure DMA Stream destination address */
 314:Drivers/STM32F4xx_HAL_Driver/Src/stm32f4xx_hal_dma_ex.c ****     hdma->Instance->M0AR = DstAddress;
  49              		.loc 1 314 0
  50 0010 0368     		ldr	r3, [r0]
  51 0012 DA60     		str	r2, [r3, #12]
  52              	.L1:
 315:Drivers/STM32F4xx_HAL_Driver/Src/stm32f4xx_hal_dma_ex.c ****   }
 316:Drivers/STM32F4xx_HAL_Driver/Src/stm32f4xx_hal_dma_ex.c **** }
  53              		.loc 1 316 0
  54 0014 5DF8044B 		ldr	r4, [sp], #4
  55              	.LCFI1:
  56              		.cfi_remember_state
  57              		.cfi_restore 4
  58              		.cfi_def_cfa_offset 0
  59 0018 7047     		bx	lr
  60              	.LVL3:
  61              	.L5:
  62              	.LCFI2:
  63              		.cfi_restore_state
 302:Drivers/STM32F4xx_HAL_Driver/Src/stm32f4xx_hal_dma_ex.c ****     
  64              		.loc 1 302 0
  65 001a 0368     		ldr	r3, [r0]
  66 001c 9A60     		str	r2, [r3, #8]
  67              	.LVL4:
 305:Drivers/STM32F4xx_HAL_Driver/Src/stm32f4xx_hal_dma_ex.c ****   }
  68              		.loc 1 305 0
  69 001e 0368     		ldr	r3, [r0]
  70 0020 D960     		str	r1, [r3, #12]
  71 0022 F7E7     		b	.L1
  72              		.cfi_endproc
  73              	.LFE129:
  75              		.section	.text.HAL_DMAEx_MultiBufferStart,"ax",%progbits
  76              		.align	1
  77              		.global	HAL_DMAEx_MultiBufferStart
  78              		.syntax unified
  79              		.thumb
  80              		.thumb_func
  81              		.fpu fpv4-sp-d16
  83              	HAL_DMAEx_MultiBufferStart:
  84              	.LFB126:
ARM GAS  C:\Users\n-is\AppData\Local\Temp\cctzTsGQ.s 			page 8


 118:Drivers/STM32F4xx_HAL_Driver/Src/stm32f4xx_hal_dma_ex.c ****   HAL_StatusTypeDef status = HAL_OK;
  85              		.loc 1 118 0
  86              		.cfi_startproc
  87              		@ args = 4, pretend = 0, frame = 0
  88              		@ frame_needed = 0, uses_anonymous_args = 0
  89              	.LVL5:
  90 0000 F8B5     		push	{r3, r4, r5, r6, r7, lr}
  91              	.LCFI3:
  92              		.cfi_def_cfa_offset 24
  93              		.cfi_offset 3, -24
  94              		.cfi_offset 4, -20
  95              		.cfi_offset 5, -16
  96              		.cfi_offset 6, -12
  97              		.cfi_offset 7, -8
  98              		.cfi_offset 14, -4
  99 0002 0446     		mov	r4, r0
 100 0004 0E46     		mov	r6, r1
 101 0006 1746     		mov	r7, r2
 102 0008 1D46     		mov	r5, r3
 103              	.LVL6:
 122:Drivers/STM32F4xx_HAL_Driver/Src/stm32f4xx_hal_dma_ex.c ****   
 104              		.loc 1 122 0
 105 000a 069B     		ldr	r3, [sp, #24]
 106              	.LVL7:
 107 000c 5A1E     		subs	r2, r3, #1
 108              	.LVL8:
 109 000e 4FF6FE73 		movw	r3, #65534
 110 0012 9A42     		cmp	r2, r3
 111 0014 10D8     		bhi	.L13
 112              	.LVL9:
 113              	.L7:
 125:Drivers/STM32F4xx_HAL_Driver/Src/stm32f4xx_hal_dma_ex.c ****   {
 114              		.loc 1 125 0
 115 0016 A368     		ldr	r3, [r4, #8]
 116 0018 802B     		cmp	r3, #128
 117 001a 12D0     		beq	.L14
 133:Drivers/STM32F4xx_HAL_Driver/Src/stm32f4xx_hal_dma_ex.c ****     
 118              		.loc 1 133 0
 119 001c 94F83430 		ldrb	r3, [r4, #52]	@ zero_extendqisi2
 120 0020 012B     		cmp	r3, #1
 121 0022 2AD0     		beq	.L10
 133:Drivers/STM32F4xx_HAL_Driver/Src/stm32f4xx_hal_dma_ex.c ****     
 122              		.loc 1 133 0 is_stmt 0 discriminator 2
 123 0024 0123     		movs	r3, #1
 124 0026 84F83430 		strb	r3, [r4, #52]
 135:Drivers/STM32F4xx_HAL_Driver/Src/stm32f4xx_hal_dma_ex.c ****     {
 125              		.loc 1 135 0 is_stmt 1 discriminator 2
 126 002a 94F83530 		ldrb	r3, [r4, #53]	@ zero_extendqisi2
 127 002e DBB2     		uxtb	r3, r3
 128 0030 012B     		cmp	r3, #1
 129 0032 0BD0     		beq	.L15
 155:Drivers/STM32F4xx_HAL_Driver/Src/stm32f4xx_hal_dma_ex.c ****     }
 130              		.loc 1 155 0
 131 0034 0220     		movs	r0, #2
 132              	.LVL10:
 133              	.L9:
 159:Drivers/STM32F4xx_HAL_Driver/Src/stm32f4xx_hal_dma_ex.c **** 
ARM GAS  C:\Users\n-is\AppData\Local\Temp\cctzTsGQ.s 			page 9


 134              		.loc 1 159 0
 135 0036 F8BD     		pop	{r3, r4, r5, r6, r7, pc}
 136              	.LVL11:
 137              	.L13:
 122:Drivers/STM32F4xx_HAL_Driver/Src/stm32f4xx_hal_dma_ex.c ****   
 138              		.loc 1 122 0 discriminator 1
 139 0038 7A21     		movs	r1, #122
 140              	.LVL12:
 141 003a 1148     		ldr	r0, .L16
 142              	.LVL13:
 143 003c FFF7FEFF 		bl	assert_failed
 144              	.LVL14:
 145 0040 E9E7     		b	.L7
 146              	.L14:
 127:Drivers/STM32F4xx_HAL_Driver/Src/stm32f4xx_hal_dma_ex.c ****     status = HAL_ERROR;
 147              		.loc 1 127 0
 148 0042 4FF48073 		mov	r3, #256
 149 0046 6365     		str	r3, [r4, #84]
 150              	.LVL15:
 128:Drivers/STM32F4xx_HAL_Driver/Src/stm32f4xx_hal_dma_ex.c ****   }
 151              		.loc 1 128 0
 152 0048 0120     		movs	r0, #1
 153 004a F4E7     		b	.L9
 154              	.LVL16:
 155              	.L15:
 138:Drivers/STM32F4xx_HAL_Driver/Src/stm32f4xx_hal_dma_ex.c ****       
 156              		.loc 1 138 0
 157 004c 0223     		movs	r3, #2
 158 004e 84F83530 		strb	r3, [r4, #53]
 141:Drivers/STM32F4xx_HAL_Driver/Src/stm32f4xx_hal_dma_ex.c ****       
 159              		.loc 1 141 0
 160 0052 2268     		ldr	r2, [r4]
 161 0054 1368     		ldr	r3, [r2]
 162 0056 43F48023 		orr	r3, r3, #262144
 163 005a 1360     		str	r3, [r2]
 144:Drivers/STM32F4xx_HAL_Driver/Src/stm32f4xx_hal_dma_ex.c ****       
 164              		.loc 1 144 0
 165 005c 2368     		ldr	r3, [r4]
 166 005e 1D61     		str	r5, [r3, #16]
 147:Drivers/STM32F4xx_HAL_Driver/Src/stm32f4xx_hal_dma_ex.c ****       
 167              		.loc 1 147 0
 168 0060 069B     		ldr	r3, [sp, #24]
 169 0062 3A46     		mov	r2, r7
 170 0064 3146     		mov	r1, r6
 171 0066 2046     		mov	r0, r4
 172 0068 FFF7FEFF 		bl	DMA_MultiBufferSetConfig
 173              	.LVL17:
 150:Drivers/STM32F4xx_HAL_Driver/Src/stm32f4xx_hal_dma_ex.c ****     }
 174              		.loc 1 150 0
 175 006c 2268     		ldr	r2, [r4]
 176 006e 1368     		ldr	r3, [r2]
 177 0070 43F00103 		orr	r3, r3, #1
 178 0074 1360     		str	r3, [r2]
 119:Drivers/STM32F4xx_HAL_Driver/Src/stm32f4xx_hal_dma_ex.c ****   
 179              		.loc 1 119 0
 180 0076 0020     		movs	r0, #0
 181 0078 DDE7     		b	.L9
ARM GAS  C:\Users\n-is\AppData\Local\Temp\cctzTsGQ.s 			page 10


 182              	.L10:
 133:Drivers/STM32F4xx_HAL_Driver/Src/stm32f4xx_hal_dma_ex.c ****     
 183              		.loc 1 133 0
 184 007a 0220     		movs	r0, #2
 185 007c DBE7     		b	.L9
 186              	.L17:
 187 007e 00BF     		.align	2
 188              	.L16:
 189 0080 00000000 		.word	.LC0
 190              		.cfi_endproc
 191              	.LFE126:
 193              		.section	.text.HAL_DMAEx_MultiBufferStart_IT,"ax",%progbits
 194              		.align	1
 195              		.global	HAL_DMAEx_MultiBufferStart_IT
 196              		.syntax unified
 197              		.thumb
 198              		.thumb_func
 199              		.fpu fpv4-sp-d16
 201              	HAL_DMAEx_MultiBufferStart_IT:
 202              	.LFB127:
 172:Drivers/STM32F4xx_HAL_Driver/Src/stm32f4xx_hal_dma_ex.c ****   HAL_StatusTypeDef status = HAL_OK;
 203              		.loc 1 172 0
 204              		.cfi_startproc
 205              		@ args = 4, pretend = 0, frame = 0
 206              		@ frame_needed = 0, uses_anonymous_args = 0
 207              	.LVL18:
 208 0000 F8B5     		push	{r3, r4, r5, r6, r7, lr}
 209              	.LCFI4:
 210              		.cfi_def_cfa_offset 24
 211              		.cfi_offset 3, -24
 212              		.cfi_offset 4, -20
 213              		.cfi_offset 5, -16
 214              		.cfi_offset 6, -12
 215              		.cfi_offset 7, -8
 216              		.cfi_offset 14, -4
 217 0002 0446     		mov	r4, r0
 218 0004 0E46     		mov	r6, r1
 219 0006 1746     		mov	r7, r2
 220 0008 1D46     		mov	r5, r3
 221              	.LVL19:
 176:Drivers/STM32F4xx_HAL_Driver/Src/stm32f4xx_hal_dma_ex.c ****   
 222              		.loc 1 176 0
 223 000a 069B     		ldr	r3, [sp, #24]
 224              	.LVL20:
 225 000c 5A1E     		subs	r2, r3, #1
 226              	.LVL21:
 227 000e 4FF6FE73 		movw	r3, #65534
 228 0012 9A42     		cmp	r2, r3
 229 0014 1AD8     		bhi	.L309
 230              	.LVL22:
 231              	.L19:
 179:Drivers/STM32F4xx_HAL_Driver/Src/stm32f4xx_hal_dma_ex.c ****   {
 232              		.loc 1 179 0
 233 0016 A368     		ldr	r3, [r4, #8]
 234 0018 802B     		cmp	r3, #128
 235 001a 1CD0     		beq	.L310
 186:Drivers/STM32F4xx_HAL_Driver/Src/stm32f4xx_hal_dma_ex.c ****   {
ARM GAS  C:\Users\n-is\AppData\Local\Temp\cctzTsGQ.s 			page 11


 236              		.loc 1 186 0
 237 001c E36B     		ldr	r3, [r4, #60]
 238 001e FBB1     		cbz	r3, .L22
 186:Drivers/STM32F4xx_HAL_Driver/Src/stm32f4xx_hal_dma_ex.c ****   {
 239              		.loc 1 186 0 is_stmt 0 discriminator 1
 240 0020 636C     		ldr	r3, [r4, #68]
 241 0022 EBB1     		cbz	r3, .L22
 186:Drivers/STM32F4xx_HAL_Driver/Src/stm32f4xx_hal_dma_ex.c ****   {
 242              		.loc 1 186 0 discriminator 2
 243 0024 E36C     		ldr	r3, [r4, #76]
 244 0026 DBB1     		cbz	r3, .L22
 193:Drivers/STM32F4xx_HAL_Driver/Src/stm32f4xx_hal_dma_ex.c ****   
 245              		.loc 1 193 0 is_stmt 1
 246 0028 94F83430 		ldrb	r3, [r4, #52]	@ zero_extendqisi2
 247 002c 012B     		cmp	r3, #1
 248 002e 00F07287 		beq	.L67
 193:Drivers/STM32F4xx_HAL_Driver/Src/stm32f4xx_hal_dma_ex.c ****   
 249              		.loc 1 193 0 is_stmt 0 discriminator 2
 250 0032 0123     		movs	r3, #1
 251 0034 84F83430 		strb	r3, [r4, #52]
 195:Drivers/STM32F4xx_HAL_Driver/Src/stm32f4xx_hal_dma_ex.c ****   {
 252              		.loc 1 195 0 is_stmt 1 discriminator 2
 253 0038 94F83530 		ldrb	r3, [r4, #53]	@ zero_extendqisi2
 254 003c DBB2     		uxtb	r3, r3
 255 003e 012B     		cmp	r3, #1
 256 0040 12D0     		beq	.L311
 234:Drivers/STM32F4xx_HAL_Driver/Src/stm32f4xx_hal_dma_ex.c ****     
 257              		.loc 1 234 0
 258 0042 0023     		movs	r3, #0
 259 0044 84F83430 		strb	r3, [r4, #52]
 260              	.LVL23:
 237:Drivers/STM32F4xx_HAL_Driver/Src/stm32f4xx_hal_dma_ex.c ****   }  
 261              		.loc 1 237 0
 262 0048 0220     		movs	r0, #2
 263 004a 0CE0     		b	.L21
 264              	.LVL24:
 265              	.L309:
 176:Drivers/STM32F4xx_HAL_Driver/Src/stm32f4xx_hal_dma_ex.c ****   
 266              		.loc 1 176 0 discriminator 1
 267 004c B021     		movs	r1, #176
 268              	.LVL25:
 269 004e B548     		ldr	r0, .L323
 270              	.LVL26:
 271 0050 FFF7FEFF 		bl	assert_failed
 272              	.LVL27:
 273 0054 DFE7     		b	.L19
 274              	.L310:
 181:Drivers/STM32F4xx_HAL_Driver/Src/stm32f4xx_hal_dma_ex.c ****     return HAL_ERROR;
 275              		.loc 1 181 0
 276 0056 4FF48073 		mov	r3, #256
 277 005a 6365     		str	r3, [r4, #84]
 182:Drivers/STM32F4xx_HAL_Driver/Src/stm32f4xx_hal_dma_ex.c ****   }
 278              		.loc 1 182 0
 279 005c 0120     		movs	r0, #1
 280 005e 02E0     		b	.L21
 281              	.L22:
 188:Drivers/STM32F4xx_HAL_Driver/Src/stm32f4xx_hal_dma_ex.c ****     return HAL_ERROR;
ARM GAS  C:\Users\n-is\AppData\Local\Temp\cctzTsGQ.s 			page 12


 282              		.loc 1 188 0
 283 0060 4023     		movs	r3, #64
 284 0062 6365     		str	r3, [r4, #84]
 189:Drivers/STM32F4xx_HAL_Driver/Src/stm32f4xx_hal_dma_ex.c ****   }
 285              		.loc 1 189 0
 286 0064 0120     		movs	r0, #1
 287              	.LVL28:
 288              	.L21:
 240:Drivers/STM32F4xx_HAL_Driver/Src/stm32f4xx_hal_dma_ex.c **** 
 289              		.loc 1 240 0
 290 0066 F8BD     		pop	{r3, r4, r5, r6, r7, pc}
 291              	.LVL29:
 292              	.L311:
 198:Drivers/STM32F4xx_HAL_Driver/Src/stm32f4xx_hal_dma_ex.c ****     
 293              		.loc 1 198 0
 294 0068 0223     		movs	r3, #2
 295 006a 84F83530 		strb	r3, [r4, #53]
 201:Drivers/STM32F4xx_HAL_Driver/Src/stm32f4xx_hal_dma_ex.c ****     
 296              		.loc 1 201 0
 297 006e 0023     		movs	r3, #0
 298 0070 6365     		str	r3, [r4, #84]
 204:Drivers/STM32F4xx_HAL_Driver/Src/stm32f4xx_hal_dma_ex.c ****     
 299              		.loc 1 204 0
 300 0072 2268     		ldr	r2, [r4]
 301 0074 1368     		ldr	r3, [r2]
 302 0076 43F48023 		orr	r3, r3, #262144
 303 007a 1360     		str	r3, [r2]
 207:Drivers/STM32F4xx_HAL_Driver/Src/stm32f4xx_hal_dma_ex.c ****     
 304              		.loc 1 207 0
 305 007c 2368     		ldr	r3, [r4]
 306 007e 1D61     		str	r5, [r3, #16]
 210:Drivers/STM32F4xx_HAL_Driver/Src/stm32f4xx_hal_dma_ex.c ****     
 307              		.loc 1 210 0
 308 0080 069B     		ldr	r3, [sp, #24]
 309 0082 3A46     		mov	r2, r7
 310 0084 3146     		mov	r1, r6
 311 0086 2046     		mov	r0, r4
 312 0088 FFF7FEFF 		bl	DMA_MultiBufferSetConfig
 313              	.LVL30:
 213:Drivers/STM32F4xx_HAL_Driver/Src/stm32f4xx_hal_dma_ex.c ****     __HAL_DMA_CLEAR_FLAG (hdma, __HAL_DMA_GET_HT_FLAG_INDEX(hdma));
 314              		.loc 1 213 0
 315 008c 2368     		ldr	r3, [r4]
 316 008e A64A     		ldr	r2, .L323+4
 317 0090 9342     		cmp	r3, r2
 318 0092 40F29880 		bls	.L25
 213:Drivers/STM32F4xx_HAL_Driver/Src/stm32f4xx_hal_dma_ex.c ****     __HAL_DMA_CLEAR_FLAG (hdma, __HAL_DMA_GET_HT_FLAG_INDEX(hdma));
 319              		.loc 1 213 0 is_stmt 0 discriminator 1
 320 0096 A2F58962 		sub	r2, r2, #1096
 321 009a 9342     		cmp	r3, r2
 322 009c 31D0     		beq	.L68
 213:Drivers/STM32F4xx_HAL_Driver/Src/stm32f4xx_hal_dma_ex.c ****     __HAL_DMA_CLEAR_FLAG (hdma, __HAL_DMA_GET_HT_FLAG_INDEX(hdma));
 323              		.loc 1 213 0 discriminator 3
 324 009e 02F58062 		add	r2, r2, #1024
 325 00a2 9342     		cmp	r3, r2
 326 00a4 74D0     		beq	.L69
 213:Drivers/STM32F4xx_HAL_Driver/Src/stm32f4xx_hal_dma_ex.c ****     __HAL_DMA_CLEAR_FLAG (hdma, __HAL_DMA_GET_HT_FLAG_INDEX(hdma));
 327              		.loc 1 213 0 discriminator 5
ARM GAS  C:\Users\n-is\AppData\Local\Temp\cctzTsGQ.s 			page 13


 328 00a6 A2F56872 		sub	r2, r2, #928
 329 00aa 9342     		cmp	r3, r2
 330 00ac 72D0     		beq	.L70
 213:Drivers/STM32F4xx_HAL_Driver/Src/stm32f4xx_hal_dma_ex.c ****     __HAL_DMA_CLEAR_FLAG (hdma, __HAL_DMA_GET_HT_FLAG_INDEX(hdma));
 331              		.loc 1 213 0 discriminator 7
 332 00ae 02F58062 		add	r2, r2, #1024
 333 00b2 9342     		cmp	r3, r2
 334 00b4 70D0     		beq	.L71
 213:Drivers/STM32F4xx_HAL_Driver/Src/stm32f4xx_hal_dma_ex.c ****     __HAL_DMA_CLEAR_FLAG (hdma, __HAL_DMA_GET_HT_FLAG_INDEX(hdma));
 335              		.loc 1 213 0 discriminator 9
 336 00b6 A2F58962 		sub	r2, r2, #1096
 337 00ba 9342     		cmp	r3, r2
 338 00bc 6ED0     		beq	.L72
 213:Drivers/STM32F4xx_HAL_Driver/Src/stm32f4xx_hal_dma_ex.c ****     __HAL_DMA_CLEAR_FLAG (hdma, __HAL_DMA_GET_HT_FLAG_INDEX(hdma));
 339              		.loc 1 213 0 discriminator 11
 340 00be 02F58062 		add	r2, r2, #1024
 341 00c2 9342     		cmp	r3, r2
 342 00c4 6DD0     		beq	.L73
 213:Drivers/STM32F4xx_HAL_Driver/Src/stm32f4xx_hal_dma_ex.c ****     __HAL_DMA_CLEAR_FLAG (hdma, __HAL_DMA_GET_HT_FLAG_INDEX(hdma));
 343              		.loc 1 213 0 discriminator 13
 344 00c6 A2F56872 		sub	r2, r2, #928
 345 00ca 9342     		cmp	r3, r2
 346 00cc 6CD0     		beq	.L74
 213:Drivers/STM32F4xx_HAL_Driver/Src/stm32f4xx_hal_dma_ex.c ****     __HAL_DMA_CLEAR_FLAG (hdma, __HAL_DMA_GET_HT_FLAG_INDEX(hdma));
 347              		.loc 1 213 0 discriminator 15
 348 00ce 02F58062 		add	r2, r2, #1024
 349 00d2 9342     		cmp	r3, r2
 350 00d4 6BD0     		beq	.L75
 213:Drivers/STM32F4xx_HAL_Driver/Src/stm32f4xx_hal_dma_ex.c ****     __HAL_DMA_CLEAR_FLAG (hdma, __HAL_DMA_GET_HT_FLAG_INDEX(hdma));
 351              		.loc 1 213 0 discriminator 17
 352 00d6 A2F58962 		sub	r2, r2, #1096
 353 00da 9342     		cmp	r3, r2
 354 00dc 6AD0     		beq	.L76
 213:Drivers/STM32F4xx_HAL_Driver/Src/stm32f4xx_hal_dma_ex.c ****     __HAL_DMA_CLEAR_FLAG (hdma, __HAL_DMA_GET_HT_FLAG_INDEX(hdma));
 355              		.loc 1 213 0 discriminator 19
 356 00de 02F58062 		add	r2, r2, #1024
 357 00e2 9342     		cmp	r3, r2
 358 00e4 69D0     		beq	.L77
 213:Drivers/STM32F4xx_HAL_Driver/Src/stm32f4xx_hal_dma_ex.c ****     __HAL_DMA_CLEAR_FLAG (hdma, __HAL_DMA_GET_HT_FLAG_INDEX(hdma));
 359              		.loc 1 213 0 discriminator 21
 360 00e6 A2F56872 		sub	r2, r2, #928
 361 00ea 9342     		cmp	r3, r2
 362 00ec 68D0     		beq	.L78
 213:Drivers/STM32F4xx_HAL_Driver/Src/stm32f4xx_hal_dma_ex.c ****     __HAL_DMA_CLEAR_FLAG (hdma, __HAL_DMA_GET_HT_FLAG_INDEX(hdma));
 363              		.loc 1 213 0 discriminator 23
 364 00ee 02F58062 		add	r2, r2, #1024
 365 00f2 9342     		cmp	r3, r2
 366 00f4 02D0     		beq	.L312
 213:Drivers/STM32F4xx_HAL_Driver/Src/stm32f4xx_hal_dma_ex.c ****     __HAL_DMA_CLEAR_FLAG (hdma, __HAL_DMA_GET_HT_FLAG_INDEX(hdma));
 367              		.loc 1 213 0
 368 00f6 4FF00062 		mov	r2, #134217728
 369 00fa 03E0     		b	.L26
 370              	.L312:
 371 00fc 4FF40012 		mov	r2, #2097152
 372 0100 00E0     		b	.L26
 373              	.L68:
 374 0102 2022     		movs	r2, #32
ARM GAS  C:\Users\n-is\AppData\Local\Temp\cctzTsGQ.s 			page 14


 375              	.L26:
 213:Drivers/STM32F4xx_HAL_Driver/Src/stm32f4xx_hal_dma_ex.c ****     __HAL_DMA_CLEAR_FLAG (hdma, __HAL_DMA_GET_HT_FLAG_INDEX(hdma));
 376              		.loc 1 213 0 discriminator 50
 377 0104 894B     		ldr	r3, .L323+8
 378 0106 DA60     		str	r2, [r3, #12]
 379              	.LVL31:
 380              	.L27:
 214:Drivers/STM32F4xx_HAL_Driver/Src/stm32f4xx_hal_dma_ex.c ****     __HAL_DMA_CLEAR_FLAG (hdma, __HAL_DMA_GET_TE_FLAG_INDEX(hdma));
 381              		.loc 1 214 0 is_stmt 1
 382 0108 2368     		ldr	r3, [r4]
 383 010a 874A     		ldr	r2, .L323+4
 384 010c 9342     		cmp	r3, r2
 385 010e 40F2CE81 		bls	.L33
 214:Drivers/STM32F4xx_HAL_Driver/Src/stm32f4xx_hal_dma_ex.c ****     __HAL_DMA_CLEAR_FLAG (hdma, __HAL_DMA_GET_TE_FLAG_INDEX(hdma));
 386              		.loc 1 214 0 is_stmt 0 discriminator 1
 387 0112 A2F58962 		sub	r2, r2, #1096
 388 0116 9342     		cmp	r3, r2
 389 0118 00F06781 		beq	.L116
 214:Drivers/STM32F4xx_HAL_Driver/Src/stm32f4xx_hal_dma_ex.c ****     __HAL_DMA_CLEAR_FLAG (hdma, __HAL_DMA_GET_TE_FLAG_INDEX(hdma));
 390              		.loc 1 214 0 discriminator 3
 391 011c 02F58062 		add	r2, r2, #1024
 392 0120 9342     		cmp	r3, r2
 393 0122 00F0A981 		beq	.L117
 214:Drivers/STM32F4xx_HAL_Driver/Src/stm32f4xx_hal_dma_ex.c ****     __HAL_DMA_CLEAR_FLAG (hdma, __HAL_DMA_GET_TE_FLAG_INDEX(hdma));
 394              		.loc 1 214 0 discriminator 5
 395 0126 A2F56872 		sub	r2, r2, #928
 396 012a 9342     		cmp	r3, r2
 397 012c 00F0A681 		beq	.L118
 214:Drivers/STM32F4xx_HAL_Driver/Src/stm32f4xx_hal_dma_ex.c ****     __HAL_DMA_CLEAR_FLAG (hdma, __HAL_DMA_GET_TE_FLAG_INDEX(hdma));
 398              		.loc 1 214 0 discriminator 7
 399 0130 02F58062 		add	r2, r2, #1024
 400 0134 9342     		cmp	r3, r2
 401 0136 00F0A381 		beq	.L119
 214:Drivers/STM32F4xx_HAL_Driver/Src/stm32f4xx_hal_dma_ex.c ****     __HAL_DMA_CLEAR_FLAG (hdma, __HAL_DMA_GET_TE_FLAG_INDEX(hdma));
 402              		.loc 1 214 0 discriminator 9
 403 013a A2F58962 		sub	r2, r2, #1096
 404 013e 9342     		cmp	r3, r2
 405 0140 00F0A081 		beq	.L120
 214:Drivers/STM32F4xx_HAL_Driver/Src/stm32f4xx_hal_dma_ex.c ****     __HAL_DMA_CLEAR_FLAG (hdma, __HAL_DMA_GET_TE_FLAG_INDEX(hdma));
 406              		.loc 1 214 0 discriminator 11
 407 0144 02F58062 		add	r2, r2, #1024
 408 0148 9342     		cmp	r3, r2
 409 014a 00F09E81 		beq	.L121
 214:Drivers/STM32F4xx_HAL_Driver/Src/stm32f4xx_hal_dma_ex.c ****     __HAL_DMA_CLEAR_FLAG (hdma, __HAL_DMA_GET_TE_FLAG_INDEX(hdma));
 410              		.loc 1 214 0 discriminator 13
 411 014e A2F56872 		sub	r2, r2, #928
 412 0152 9342     		cmp	r3, r2
 413 0154 00F09C81 		beq	.L122
 214:Drivers/STM32F4xx_HAL_Driver/Src/stm32f4xx_hal_dma_ex.c ****     __HAL_DMA_CLEAR_FLAG (hdma, __HAL_DMA_GET_TE_FLAG_INDEX(hdma));
 414              		.loc 1 214 0 discriminator 15
 415 0158 02F58062 		add	r2, r2, #1024
 416 015c 9342     		cmp	r3, r2
 417 015e 00F09A81 		beq	.L123
 214:Drivers/STM32F4xx_HAL_Driver/Src/stm32f4xx_hal_dma_ex.c ****     __HAL_DMA_CLEAR_FLAG (hdma, __HAL_DMA_GET_TE_FLAG_INDEX(hdma));
 418              		.loc 1 214 0 discriminator 17
 419 0162 A2F58962 		sub	r2, r2, #1096
 420 0166 9342     		cmp	r3, r2
ARM GAS  C:\Users\n-is\AppData\Local\Temp\cctzTsGQ.s 			page 15


 421 0168 00F09881 		beq	.L124
 214:Drivers/STM32F4xx_HAL_Driver/Src/stm32f4xx_hal_dma_ex.c ****     __HAL_DMA_CLEAR_FLAG (hdma, __HAL_DMA_GET_TE_FLAG_INDEX(hdma));
 422              		.loc 1 214 0 discriminator 19
 423 016c 02F58062 		add	r2, r2, #1024
 424 0170 9342     		cmp	r3, r2
 425 0172 00F09681 		beq	.L125
 214:Drivers/STM32F4xx_HAL_Driver/Src/stm32f4xx_hal_dma_ex.c ****     __HAL_DMA_CLEAR_FLAG (hdma, __HAL_DMA_GET_TE_FLAG_INDEX(hdma));
 426              		.loc 1 214 0 discriminator 21
 427 0176 A2F56872 		sub	r2, r2, #928
 428 017a 9342     		cmp	r3, r2
 429 017c 00F09481 		beq	.L126
 214:Drivers/STM32F4xx_HAL_Driver/Src/stm32f4xx_hal_dma_ex.c ****     __HAL_DMA_CLEAR_FLAG (hdma, __HAL_DMA_GET_TE_FLAG_INDEX(hdma));
 430              		.loc 1 214 0 discriminator 23
 431 0180 02F58062 		add	r2, r2, #1024
 432 0184 9342     		cmp	r3, r2
 433 0186 00F02D81 		beq	.L313
 214:Drivers/STM32F4xx_HAL_Driver/Src/stm32f4xx_hal_dma_ex.c ****     __HAL_DMA_CLEAR_FLAG (hdma, __HAL_DMA_GET_TE_FLAG_INDEX(hdma));
 434              		.loc 1 214 0
 435 018a 4FF08062 		mov	r2, #67108864
 436 018e 2DE1     		b	.L34
 437              	.LVL32:
 438              	.L69:
 213:Drivers/STM32F4xx_HAL_Driver/Src/stm32f4xx_hal_dma_ex.c ****     __HAL_DMA_CLEAR_FLAG (hdma, __HAL_DMA_GET_HT_FLAG_INDEX(hdma));
 439              		.loc 1 213 0 is_stmt 1
 440 0190 2022     		movs	r2, #32
 441 0192 B7E7     		b	.L26
 442              	.L70:
 443 0194 2022     		movs	r2, #32
 444 0196 B5E7     		b	.L26
 445              	.L71:
 446 0198 2022     		movs	r2, #32
 447 019a B3E7     		b	.L26
 448              	.L72:
 449 019c 4FF40062 		mov	r2, #2048
 450 01a0 B0E7     		b	.L26
 451              	.L73:
 452 01a2 4FF40062 		mov	r2, #2048
 453 01a6 ADE7     		b	.L26
 454              	.L74:
 455 01a8 4FF40062 		mov	r2, #2048
 456 01ac AAE7     		b	.L26
 457              	.L75:
 458 01ae 4FF40062 		mov	r2, #2048
 459 01b2 A7E7     		b	.L26
 460              	.L76:
 461 01b4 4FF40012 		mov	r2, #2097152
 462 01b8 A4E7     		b	.L26
 463              	.L77:
 464 01ba 4FF40012 		mov	r2, #2097152
 465 01be A1E7     		b	.L26
 466              	.L78:
 467 01c0 4FF40012 		mov	r2, #2097152
 468 01c4 9EE7     		b	.L26
 469              	.L25:
 213:Drivers/STM32F4xx_HAL_Driver/Src/stm32f4xx_hal_dma_ex.c ****     __HAL_DMA_CLEAR_FLAG (hdma, __HAL_DMA_GET_HT_FLAG_INDEX(hdma));
 470              		.loc 1 213 0 is_stmt 0 discriminator 2
 471 01c6 5A4A     		ldr	r2, .L323+12
ARM GAS  C:\Users\n-is\AppData\Local\Temp\cctzTsGQ.s 			page 16


 472 01c8 9342     		cmp	r3, r2
 473 01ca 53D9     		bls	.L28
 213:Drivers/STM32F4xx_HAL_Driver/Src/stm32f4xx_hal_dma_ex.c ****     __HAL_DMA_CLEAR_FLAG (hdma, __HAL_DMA_GET_HT_FLAG_INDEX(hdma));
 474              		.loc 1 213 0 discriminator 51
 475 01cc A83A     		subs	r2, r2, #168
 476 01ce 9342     		cmp	r3, r2
 477 01d0 31D0     		beq	.L80
 213:Drivers/STM32F4xx_HAL_Driver/Src/stm32f4xx_hal_dma_ex.c ****     __HAL_DMA_CLEAR_FLAG (hdma, __HAL_DMA_GET_HT_FLAG_INDEX(hdma));
 478              		.loc 1 213 0 discriminator 53
 479 01d2 02F58062 		add	r2, r2, #1024
 480 01d6 9342     		cmp	r3, r2
 481 01d8 31D0     		beq	.L81
 213:Drivers/STM32F4xx_HAL_Driver/Src/stm32f4xx_hal_dma_ex.c ****     __HAL_DMA_CLEAR_FLAG (hdma, __HAL_DMA_GET_HT_FLAG_INDEX(hdma));
 482              		.loc 1 213 0 discriminator 55
 483 01da A2F56872 		sub	r2, r2, #928
 484 01de 9342     		cmp	r3, r2
 485 01e0 2FD0     		beq	.L82
 213:Drivers/STM32F4xx_HAL_Driver/Src/stm32f4xx_hal_dma_ex.c ****     __HAL_DMA_CLEAR_FLAG (hdma, __HAL_DMA_GET_HT_FLAG_INDEX(hdma));
 486              		.loc 1 213 0 discriminator 57
 487 01e2 02F58062 		add	r2, r2, #1024
 488 01e6 9342     		cmp	r3, r2
 489 01e8 2DD0     		beq	.L83
 213:Drivers/STM32F4xx_HAL_Driver/Src/stm32f4xx_hal_dma_ex.c ****     __HAL_DMA_CLEAR_FLAG (hdma, __HAL_DMA_GET_HT_FLAG_INDEX(hdma));
 490              		.loc 1 213 0 discriminator 59
 491 01ea A2F58962 		sub	r2, r2, #1096
 492 01ee 9342     		cmp	r3, r2
 493 01f0 2BD0     		beq	.L84
 213:Drivers/STM32F4xx_HAL_Driver/Src/stm32f4xx_hal_dma_ex.c ****     __HAL_DMA_CLEAR_FLAG (hdma, __HAL_DMA_GET_HT_FLAG_INDEX(hdma));
 494              		.loc 1 213 0 discriminator 61
 495 01f2 02F58062 		add	r2, r2, #1024
 496 01f6 9342     		cmp	r3, r2
 497 01f8 2AD0     		beq	.L85
 213:Drivers/STM32F4xx_HAL_Driver/Src/stm32f4xx_hal_dma_ex.c ****     __HAL_DMA_CLEAR_FLAG (hdma, __HAL_DMA_GET_HT_FLAG_INDEX(hdma));
 498              		.loc 1 213 0 discriminator 63
 499 01fa A2F56872 		sub	r2, r2, #928
 500 01fe 9342     		cmp	r3, r2
 501 0200 29D0     		beq	.L86
 213:Drivers/STM32F4xx_HAL_Driver/Src/stm32f4xx_hal_dma_ex.c ****     __HAL_DMA_CLEAR_FLAG (hdma, __HAL_DMA_GET_HT_FLAG_INDEX(hdma));
 502              		.loc 1 213 0 discriminator 65
 503 0202 02F58062 		add	r2, r2, #1024
 504 0206 9342     		cmp	r3, r2
 505 0208 28D0     		beq	.L87
 213:Drivers/STM32F4xx_HAL_Driver/Src/stm32f4xx_hal_dma_ex.c ****     __HAL_DMA_CLEAR_FLAG (hdma, __HAL_DMA_GET_HT_FLAG_INDEX(hdma));
 506              		.loc 1 213 0 discriminator 67
 507 020a A2F58962 		sub	r2, r2, #1096
 508 020e 9342     		cmp	r3, r2
 509 0210 27D0     		beq	.L88
 213:Drivers/STM32F4xx_HAL_Driver/Src/stm32f4xx_hal_dma_ex.c ****     __HAL_DMA_CLEAR_FLAG (hdma, __HAL_DMA_GET_HT_FLAG_INDEX(hdma));
 510              		.loc 1 213 0 discriminator 69
 511 0212 02F58062 		add	r2, r2, #1024
 512 0216 9342     		cmp	r3, r2
 513 0218 26D0     		beq	.L89
 213:Drivers/STM32F4xx_HAL_Driver/Src/stm32f4xx_hal_dma_ex.c ****     __HAL_DMA_CLEAR_FLAG (hdma, __HAL_DMA_GET_HT_FLAG_INDEX(hdma));
 514              		.loc 1 213 0 discriminator 71
 515 021a A2F56872 		sub	r2, r2, #928
 516 021e 9342     		cmp	r3, r2
 517 0220 25D0     		beq	.L90
ARM GAS  C:\Users\n-is\AppData\Local\Temp\cctzTsGQ.s 			page 17


 213:Drivers/STM32F4xx_HAL_Driver/Src/stm32f4xx_hal_dma_ex.c ****     __HAL_DMA_CLEAR_FLAG (hdma, __HAL_DMA_GET_HT_FLAG_INDEX(hdma));
 518              		.loc 1 213 0 discriminator 73
 519 0222 02F58062 		add	r2, r2, #1024
 520 0226 9342     		cmp	r3, r2
 521 0228 02D0     		beq	.L314
 213:Drivers/STM32F4xx_HAL_Driver/Src/stm32f4xx_hal_dma_ex.c ****     __HAL_DMA_CLEAR_FLAG (hdma, __HAL_DMA_GET_HT_FLAG_INDEX(hdma));
 522              		.loc 1 213 0
 523 022a 4FF00063 		mov	r3, #134217728
 524 022e 03E0     		b	.L29
 525              	.L314:
 526 0230 4FF40013 		mov	r3, #2097152
 527 0234 00E0     		b	.L29
 528              	.L80:
 529 0236 2023     		movs	r3, #32
 530              	.L29:
 213:Drivers/STM32F4xx_HAL_Driver/Src/stm32f4xx_hal_dma_ex.c ****     __HAL_DMA_CLEAR_FLAG (hdma, __HAL_DMA_GET_HT_FLAG_INDEX(hdma));
 531              		.loc 1 213 0 discriminator 100
 532 0238 3C4A     		ldr	r2, .L323+8
 533 023a 9360     		str	r3, [r2, #8]
 534              	.LVL33:
 535 023c 64E7     		b	.L27
 536              	.LVL34:
 537              	.L81:
 213:Drivers/STM32F4xx_HAL_Driver/Src/stm32f4xx_hal_dma_ex.c ****     __HAL_DMA_CLEAR_FLAG (hdma, __HAL_DMA_GET_HT_FLAG_INDEX(hdma));
 538              		.loc 1 213 0
 539 023e 2023     		movs	r3, #32
 540 0240 FAE7     		b	.L29
 541              	.L82:
 542 0242 2023     		movs	r3, #32
 543 0244 F8E7     		b	.L29
 544              	.L83:
 545 0246 2023     		movs	r3, #32
 546 0248 F6E7     		b	.L29
 547              	.L84:
 548 024a 4FF40063 		mov	r3, #2048
 549 024e F3E7     		b	.L29
 550              	.L85:
 551 0250 4FF40063 		mov	r3, #2048
 552 0254 F0E7     		b	.L29
 553              	.L86:
 554 0256 4FF40063 		mov	r3, #2048
 555 025a EDE7     		b	.L29
 556              	.L87:
 557 025c 4FF40063 		mov	r3, #2048
 558 0260 EAE7     		b	.L29
 559              	.L88:
 560 0262 4FF40013 		mov	r3, #2097152
 561 0266 E7E7     		b	.L29
 562              	.L89:
 563 0268 4FF40013 		mov	r3, #2097152
 564 026c E4E7     		b	.L29
 565              	.L90:
 566 026e 4FF40013 		mov	r3, #2097152
 567 0272 E1E7     		b	.L29
 568              	.L28:
 213:Drivers/STM32F4xx_HAL_Driver/Src/stm32f4xx_hal_dma_ex.c ****     __HAL_DMA_CLEAR_FLAG (hdma, __HAL_DMA_GET_HT_FLAG_INDEX(hdma));
 569              		.loc 1 213 0 discriminator 52
ARM GAS  C:\Users\n-is\AppData\Local\Temp\cctzTsGQ.s 			page 18


 570 0274 2F4A     		ldr	r2, .L323+16
 571 0276 9342     		cmp	r3, r2
 572 0278 60D9     		bls	.L30
 213:Drivers/STM32F4xx_HAL_Driver/Src/stm32f4xx_hal_dma_ex.c ****     __HAL_DMA_CLEAR_FLAG (hdma, __HAL_DMA_GET_HT_FLAG_INDEX(hdma));
 573              		.loc 1 213 0 discriminator 102
 574 027a 483A     		subs	r2, r2, #72
 575 027c 9342     		cmp	r3, r2
 576 027e 2ED0     		beq	.L92
 213:Drivers/STM32F4xx_HAL_Driver/Src/stm32f4xx_hal_dma_ex.c ****     __HAL_DMA_CLEAR_FLAG (hdma, __HAL_DMA_GET_HT_FLAG_INDEX(hdma));
 577              		.loc 1 213 0 discriminator 104
 578 0280 02F58062 		add	r2, r2, #1024
 579 0284 9342     		cmp	r3, r2
 580 0286 2ED0     		beq	.L93
 213:Drivers/STM32F4xx_HAL_Driver/Src/stm32f4xx_hal_dma_ex.c ****     __HAL_DMA_CLEAR_FLAG (hdma, __HAL_DMA_GET_HT_FLAG_INDEX(hdma));
 581              		.loc 1 213 0 discriminator 106
 582 0288 A2F56872 		sub	r2, r2, #928
 583 028c 9342     		cmp	r3, r2
 584 028e 2CD0     		beq	.L94
 213:Drivers/STM32F4xx_HAL_Driver/Src/stm32f4xx_hal_dma_ex.c ****     __HAL_DMA_CLEAR_FLAG (hdma, __HAL_DMA_GET_HT_FLAG_INDEX(hdma));
 585              		.loc 1 213 0 discriminator 108
 586 0290 02F58062 		add	r2, r2, #1024
 587 0294 9342     		cmp	r3, r2
 588 0296 2AD0     		beq	.L95
 213:Drivers/STM32F4xx_HAL_Driver/Src/stm32f4xx_hal_dma_ex.c ****     __HAL_DMA_CLEAR_FLAG (hdma, __HAL_DMA_GET_HT_FLAG_INDEX(hdma));
 589              		.loc 1 213 0 discriminator 110
 590 0298 A2F58962 		sub	r2, r2, #1096
 591 029c 9342     		cmp	r3, r2
 592 029e 28D0     		beq	.L96
 213:Drivers/STM32F4xx_HAL_Driver/Src/stm32f4xx_hal_dma_ex.c ****     __HAL_DMA_CLEAR_FLAG (hdma, __HAL_DMA_GET_HT_FLAG_INDEX(hdma));
 593              		.loc 1 213 0 discriminator 112
 594 02a0 02F58062 		add	r2, r2, #1024
 595 02a4 9342     		cmp	r3, r2
 596 02a6 27D0     		beq	.L97
 213:Drivers/STM32F4xx_HAL_Driver/Src/stm32f4xx_hal_dma_ex.c ****     __HAL_DMA_CLEAR_FLAG (hdma, __HAL_DMA_GET_HT_FLAG_INDEX(hdma));
 597              		.loc 1 213 0 discriminator 114
 598 02a8 A2F56872 		sub	r2, r2, #928
 599 02ac 9342     		cmp	r3, r2
 600 02ae 26D0     		beq	.L98
 213:Drivers/STM32F4xx_HAL_Driver/Src/stm32f4xx_hal_dma_ex.c ****     __HAL_DMA_CLEAR_FLAG (hdma, __HAL_DMA_GET_HT_FLAG_INDEX(hdma));
 601              		.loc 1 213 0 discriminator 116
 602 02b0 02F58062 		add	r2, r2, #1024
 603 02b4 9342     		cmp	r3, r2
 604 02b6 25D0     		beq	.L99
 213:Drivers/STM32F4xx_HAL_Driver/Src/stm32f4xx_hal_dma_ex.c ****     __HAL_DMA_CLEAR_FLAG (hdma, __HAL_DMA_GET_HT_FLAG_INDEX(hdma));
 605              		.loc 1 213 0 discriminator 118
 606 02b8 A2F58962 		sub	r2, r2, #1096
 607 02bc 9342     		cmp	r3, r2
 608 02be 24D0     		beq	.L100
 213:Drivers/STM32F4xx_HAL_Driver/Src/stm32f4xx_hal_dma_ex.c ****     __HAL_DMA_CLEAR_FLAG (hdma, __HAL_DMA_GET_HT_FLAG_INDEX(hdma));
 609              		.loc 1 213 0 discriminator 120
 610 02c0 02F58062 		add	r2, r2, #1024
 611 02c4 9342     		cmp	r3, r2
 612 02c6 23D0     		beq	.L101
 213:Drivers/STM32F4xx_HAL_Driver/Src/stm32f4xx_hal_dma_ex.c ****     __HAL_DMA_CLEAR_FLAG (hdma, __HAL_DMA_GET_HT_FLAG_INDEX(hdma));
 613              		.loc 1 213 0 discriminator 122
 614 02c8 A2F56872 		sub	r2, r2, #928
 615 02cc 9342     		cmp	r3, r2
ARM GAS  C:\Users\n-is\AppData\Local\Temp\cctzTsGQ.s 			page 19


 616 02ce 22D0     		beq	.L102
 213:Drivers/STM32F4xx_HAL_Driver/Src/stm32f4xx_hal_dma_ex.c ****     __HAL_DMA_CLEAR_FLAG (hdma, __HAL_DMA_GET_HT_FLAG_INDEX(hdma));
 617              		.loc 1 213 0 discriminator 124
 618 02d0 02F58062 		add	r2, r2, #1024
 619 02d4 9342     		cmp	r3, r2
 620 02d6 21D1     		bne	.L103
 213:Drivers/STM32F4xx_HAL_Driver/Src/stm32f4xx_hal_dma_ex.c ****     __HAL_DMA_CLEAR_FLAG (hdma, __HAL_DMA_GET_HT_FLAG_INDEX(hdma));
 621              		.loc 1 213 0
 622 02d8 4FF40013 		mov	r3, #2097152
 623 02dc 00E0     		b	.L31
 624              	.L92:
 625 02de 2023     		movs	r3, #32
 626              	.L31:
 213:Drivers/STM32F4xx_HAL_Driver/Src/stm32f4xx_hal_dma_ex.c ****     __HAL_DMA_CLEAR_FLAG (hdma, __HAL_DMA_GET_HT_FLAG_INDEX(hdma));
 627              		.loc 1 213 0 discriminator 151
 628 02e0 154A     		ldr	r2, .L323+20
 629 02e2 D360     		str	r3, [r2, #12]
 630              	.LVL35:
 631 02e4 10E7     		b	.L27
 632              	.LVL36:
 633              	.L93:
 213:Drivers/STM32F4xx_HAL_Driver/Src/stm32f4xx_hal_dma_ex.c ****     __HAL_DMA_CLEAR_FLAG (hdma, __HAL_DMA_GET_HT_FLAG_INDEX(hdma));
 634              		.loc 1 213 0
 635 02e6 2023     		movs	r3, #32
 636 02e8 FAE7     		b	.L31
 637              	.L94:
 638 02ea 2023     		movs	r3, #32
 639 02ec F8E7     		b	.L31
 640              	.L95:
 641 02ee 2023     		movs	r3, #32
 642 02f0 F6E7     		b	.L31
 643              	.L96:
 644 02f2 4FF40063 		mov	r3, #2048
 645 02f6 F3E7     		b	.L31
 646              	.L97:
 647 02f8 4FF40063 		mov	r3, #2048
 648 02fc F0E7     		b	.L31
 649              	.L98:
 650 02fe 4FF40063 		mov	r3, #2048
 651 0302 EDE7     		b	.L31
 652              	.L99:
 653 0304 4FF40063 		mov	r3, #2048
 654 0308 EAE7     		b	.L31
 655              	.L100:
 656 030a 4FF40013 		mov	r3, #2097152
 657 030e E7E7     		b	.L31
 658              	.L101:
 659 0310 4FF40013 		mov	r3, #2097152
 660 0314 E4E7     		b	.L31
 661              	.L102:
 662 0316 4FF40013 		mov	r3, #2097152
 663 031a E1E7     		b	.L31
 664              	.L103:
 665 031c 4FF00063 		mov	r3, #134217728
 666 0320 DEE7     		b	.L31
 667              	.L324:
 668 0322 00BF     		.align	2
ARM GAS  C:\Users\n-is\AppData\Local\Temp\cctzTsGQ.s 			page 20


 669              	.L323:
 670 0324 00000000 		.word	.LC0
 671 0328 58640240 		.word	1073898584
 672 032c 00640240 		.word	1073898496
 673 0330 B8600240 		.word	1073897656
 674 0334 58600240 		.word	1073897560
 675 0338 00600240 		.word	1073897472
 676              	.L30:
 213:Drivers/STM32F4xx_HAL_Driver/Src/stm32f4xx_hal_dma_ex.c ****     __HAL_DMA_CLEAR_FLAG (hdma, __HAL_DMA_GET_HT_FLAG_INDEX(hdma));
 677              		.loc 1 213 0 discriminator 103
 678 033c B34A     		ldr	r2, .L325
 679 033e 9342     		cmp	r3, r2
 680 0340 2ED0     		beq	.L104
 213:Drivers/STM32F4xx_HAL_Driver/Src/stm32f4xx_hal_dma_ex.c ****     __HAL_DMA_CLEAR_FLAG (hdma, __HAL_DMA_GET_HT_FLAG_INDEX(hdma));
 681              		.loc 1 213 0 discriminator 153
 682 0342 02F58062 		add	r2, r2, #1024
 683 0346 9342     		cmp	r3, r2
 684 0348 2ED0     		beq	.L105
 213:Drivers/STM32F4xx_HAL_Driver/Src/stm32f4xx_hal_dma_ex.c ****     __HAL_DMA_CLEAR_FLAG (hdma, __HAL_DMA_GET_HT_FLAG_INDEX(hdma));
 685              		.loc 1 213 0 discriminator 155
 686 034a A2F56872 		sub	r2, r2, #928
 687 034e 9342     		cmp	r3, r2
 688 0350 2CD0     		beq	.L106
 213:Drivers/STM32F4xx_HAL_Driver/Src/stm32f4xx_hal_dma_ex.c ****     __HAL_DMA_CLEAR_FLAG (hdma, __HAL_DMA_GET_HT_FLAG_INDEX(hdma));
 689              		.loc 1 213 0 discriminator 157
 690 0352 02F58062 		add	r2, r2, #1024
 691 0356 9342     		cmp	r3, r2
 692 0358 2AD0     		beq	.L107
 213:Drivers/STM32F4xx_HAL_Driver/Src/stm32f4xx_hal_dma_ex.c ****     __HAL_DMA_CLEAR_FLAG (hdma, __HAL_DMA_GET_HT_FLAG_INDEX(hdma));
 693              		.loc 1 213 0 discriminator 159
 694 035a A2F58962 		sub	r2, r2, #1096
 695 035e 9342     		cmp	r3, r2
 696 0360 28D0     		beq	.L108
 213:Drivers/STM32F4xx_HAL_Driver/Src/stm32f4xx_hal_dma_ex.c ****     __HAL_DMA_CLEAR_FLAG (hdma, __HAL_DMA_GET_HT_FLAG_INDEX(hdma));
 697              		.loc 1 213 0 discriminator 161
 698 0362 02F58062 		add	r2, r2, #1024
 699 0366 9342     		cmp	r3, r2
 700 0368 27D0     		beq	.L109
 213:Drivers/STM32F4xx_HAL_Driver/Src/stm32f4xx_hal_dma_ex.c ****     __HAL_DMA_CLEAR_FLAG (hdma, __HAL_DMA_GET_HT_FLAG_INDEX(hdma));
 701              		.loc 1 213 0 discriminator 163
 702 036a A2F56872 		sub	r2, r2, #928
 703 036e 9342     		cmp	r3, r2
 704 0370 26D0     		beq	.L110
 213:Drivers/STM32F4xx_HAL_Driver/Src/stm32f4xx_hal_dma_ex.c ****     __HAL_DMA_CLEAR_FLAG (hdma, __HAL_DMA_GET_HT_FLAG_INDEX(hdma));
 705              		.loc 1 213 0 discriminator 165
 706 0372 02F58062 		add	r2, r2, #1024
 707 0376 9342     		cmp	r3, r2
 708 0378 25D0     		beq	.L111
 213:Drivers/STM32F4xx_HAL_Driver/Src/stm32f4xx_hal_dma_ex.c ****     __HAL_DMA_CLEAR_FLAG (hdma, __HAL_DMA_GET_HT_FLAG_INDEX(hdma));
 709              		.loc 1 213 0 discriminator 167
 710 037a A2F58962 		sub	r2, r2, #1096
 711 037e 9342     		cmp	r3, r2
 712 0380 24D0     		beq	.L112
 213:Drivers/STM32F4xx_HAL_Driver/Src/stm32f4xx_hal_dma_ex.c ****     __HAL_DMA_CLEAR_FLAG (hdma, __HAL_DMA_GET_HT_FLAG_INDEX(hdma));
 713              		.loc 1 213 0 discriminator 169
 714 0382 02F58062 		add	r2, r2, #1024
 715 0386 9342     		cmp	r3, r2
ARM GAS  C:\Users\n-is\AppData\Local\Temp\cctzTsGQ.s 			page 21


 716 0388 23D0     		beq	.L113
 213:Drivers/STM32F4xx_HAL_Driver/Src/stm32f4xx_hal_dma_ex.c ****     __HAL_DMA_CLEAR_FLAG (hdma, __HAL_DMA_GET_HT_FLAG_INDEX(hdma));
 717              		.loc 1 213 0 discriminator 171
 718 038a A2F56872 		sub	r2, r2, #928
 719 038e 9342     		cmp	r3, r2
 720 0390 22D0     		beq	.L114
 213:Drivers/STM32F4xx_HAL_Driver/Src/stm32f4xx_hal_dma_ex.c ****     __HAL_DMA_CLEAR_FLAG (hdma, __HAL_DMA_GET_HT_FLAG_INDEX(hdma));
 721              		.loc 1 213 0 discriminator 173
 722 0392 02F58062 		add	r2, r2, #1024
 723 0396 9342     		cmp	r3, r2
 724 0398 21D1     		bne	.L115
 213:Drivers/STM32F4xx_HAL_Driver/Src/stm32f4xx_hal_dma_ex.c ****     __HAL_DMA_CLEAR_FLAG (hdma, __HAL_DMA_GET_HT_FLAG_INDEX(hdma));
 725              		.loc 1 213 0
 726 039a 4FF40013 		mov	r3, #2097152
 727 039e 00E0     		b	.L32
 728              	.L104:
 729 03a0 2023     		movs	r3, #32
 730              	.L32:
 213:Drivers/STM32F4xx_HAL_Driver/Src/stm32f4xx_hal_dma_ex.c ****     __HAL_DMA_CLEAR_FLAG (hdma, __HAL_DMA_GET_HT_FLAG_INDEX(hdma));
 731              		.loc 1 213 0 discriminator 200
 732 03a2 9B4A     		ldr	r2, .L325+4
 733 03a4 9360     		str	r3, [r2, #8]
 734              	.LVL37:
 735 03a6 AFE6     		b	.L27
 736              	.LVL38:
 737              	.L105:
 213:Drivers/STM32F4xx_HAL_Driver/Src/stm32f4xx_hal_dma_ex.c ****     __HAL_DMA_CLEAR_FLAG (hdma, __HAL_DMA_GET_HT_FLAG_INDEX(hdma));
 738              		.loc 1 213 0
 739 03a8 2023     		movs	r3, #32
 740 03aa FAE7     		b	.L32
 741              	.L106:
 742 03ac 2023     		movs	r3, #32
 743 03ae F8E7     		b	.L32
 744              	.L107:
 745 03b0 2023     		movs	r3, #32
 746 03b2 F6E7     		b	.L32
 747              	.L108:
 748 03b4 4FF40063 		mov	r3, #2048
 749 03b8 F3E7     		b	.L32
 750              	.L109:
 751 03ba 4FF40063 		mov	r3, #2048
 752 03be F0E7     		b	.L32
 753              	.L110:
 754 03c0 4FF40063 		mov	r3, #2048
 755 03c4 EDE7     		b	.L32
 756              	.L111:
 757 03c6 4FF40063 		mov	r3, #2048
 758 03ca EAE7     		b	.L32
 759              	.L112:
 760 03cc 4FF40013 		mov	r3, #2097152
 761 03d0 E7E7     		b	.L32
 762              	.L113:
 763 03d2 4FF40013 		mov	r3, #2097152
 764 03d6 E4E7     		b	.L32
 765              	.L114:
 766 03d8 4FF40013 		mov	r3, #2097152
 767 03dc E1E7     		b	.L32
ARM GAS  C:\Users\n-is\AppData\Local\Temp\cctzTsGQ.s 			page 22


 768              	.L115:
 769 03de 4FF00063 		mov	r3, #134217728
 770 03e2 DEE7     		b	.L32
 771              	.LVL39:
 772              	.L313:
 214:Drivers/STM32F4xx_HAL_Driver/Src/stm32f4xx_hal_dma_ex.c ****     __HAL_DMA_CLEAR_FLAG (hdma, __HAL_DMA_GET_TE_FLAG_INDEX(hdma));
 773              		.loc 1 214 0 is_stmt 1
 774 03e4 4FF48012 		mov	r2, #1048576
 775 03e8 00E0     		b	.L34
 776              	.L116:
 777 03ea 1022     		movs	r2, #16
 778              	.L34:
 214:Drivers/STM32F4xx_HAL_Driver/Src/stm32f4xx_hal_dma_ex.c ****     __HAL_DMA_CLEAR_FLAG (hdma, __HAL_DMA_GET_TE_FLAG_INDEX(hdma));
 779              		.loc 1 214 0 is_stmt 0 discriminator 50
 780 03ec 894B     		ldr	r3, .L325+8
 781 03ee DA60     		str	r2, [r3, #12]
 782              	.L35:
 215:Drivers/STM32F4xx_HAL_Driver/Src/stm32f4xx_hal_dma_ex.c ****     __HAL_DMA_CLEAR_FLAG (hdma, __HAL_DMA_GET_DME_FLAG_INDEX(hdma));
 783              		.loc 1 215 0 is_stmt 1
 784 03f0 2368     		ldr	r3, [r4]
 785 03f2 894A     		ldr	r2, .L325+12
 786 03f4 9342     		cmp	r3, r2
 787 03f6 40F2CE81 		bls	.L41
 215:Drivers/STM32F4xx_HAL_Driver/Src/stm32f4xx_hal_dma_ex.c ****     __HAL_DMA_CLEAR_FLAG (hdma, __HAL_DMA_GET_DME_FLAG_INDEX(hdma));
 788              		.loc 1 215 0 is_stmt 0 discriminator 1
 789 03fa A2F58962 		sub	r2, r2, #1096
 790 03fe 9342     		cmp	r3, r2
 791 0400 00F06781 		beq	.L164
 215:Drivers/STM32F4xx_HAL_Driver/Src/stm32f4xx_hal_dma_ex.c ****     __HAL_DMA_CLEAR_FLAG (hdma, __HAL_DMA_GET_DME_FLAG_INDEX(hdma));
 792              		.loc 1 215 0 discriminator 3
 793 0404 02F58062 		add	r2, r2, #1024
 794 0408 9342     		cmp	r3, r2
 795 040a 00F0A981 		beq	.L165
 215:Drivers/STM32F4xx_HAL_Driver/Src/stm32f4xx_hal_dma_ex.c ****     __HAL_DMA_CLEAR_FLAG (hdma, __HAL_DMA_GET_DME_FLAG_INDEX(hdma));
 796              		.loc 1 215 0 discriminator 5
 797 040e A2F56872 		sub	r2, r2, #928
 798 0412 9342     		cmp	r3, r2
 799 0414 00F0A681 		beq	.L166
 215:Drivers/STM32F4xx_HAL_Driver/Src/stm32f4xx_hal_dma_ex.c ****     __HAL_DMA_CLEAR_FLAG (hdma, __HAL_DMA_GET_DME_FLAG_INDEX(hdma));
 800              		.loc 1 215 0 discriminator 7
 801 0418 02F58062 		add	r2, r2, #1024
 802 041c 9342     		cmp	r3, r2
 803 041e 00F0A381 		beq	.L167
 215:Drivers/STM32F4xx_HAL_Driver/Src/stm32f4xx_hal_dma_ex.c ****     __HAL_DMA_CLEAR_FLAG (hdma, __HAL_DMA_GET_DME_FLAG_INDEX(hdma));
 804              		.loc 1 215 0 discriminator 9
 805 0422 A2F58962 		sub	r2, r2, #1096
 806 0426 9342     		cmp	r3, r2
 807 0428 00F0A081 		beq	.L168
 215:Drivers/STM32F4xx_HAL_Driver/Src/stm32f4xx_hal_dma_ex.c ****     __HAL_DMA_CLEAR_FLAG (hdma, __HAL_DMA_GET_DME_FLAG_INDEX(hdma));
 808              		.loc 1 215 0 discriminator 11
 809 042c 02F58062 		add	r2, r2, #1024
 810 0430 9342     		cmp	r3, r2
 811 0432 00F09E81 		beq	.L169
 215:Drivers/STM32F4xx_HAL_Driver/Src/stm32f4xx_hal_dma_ex.c ****     __HAL_DMA_CLEAR_FLAG (hdma, __HAL_DMA_GET_DME_FLAG_INDEX(hdma));
 812              		.loc 1 215 0 discriminator 13
 813 0436 A2F56872 		sub	r2, r2, #928
 814 043a 9342     		cmp	r3, r2
ARM GAS  C:\Users\n-is\AppData\Local\Temp\cctzTsGQ.s 			page 23


 815 043c 00F09C81 		beq	.L170
 215:Drivers/STM32F4xx_HAL_Driver/Src/stm32f4xx_hal_dma_ex.c ****     __HAL_DMA_CLEAR_FLAG (hdma, __HAL_DMA_GET_DME_FLAG_INDEX(hdma));
 816              		.loc 1 215 0 discriminator 15
 817 0440 02F58062 		add	r2, r2, #1024
 818 0444 9342     		cmp	r3, r2
 819 0446 00F09A81 		beq	.L171
 215:Drivers/STM32F4xx_HAL_Driver/Src/stm32f4xx_hal_dma_ex.c ****     __HAL_DMA_CLEAR_FLAG (hdma, __HAL_DMA_GET_DME_FLAG_INDEX(hdma));
 820              		.loc 1 215 0 discriminator 17
 821 044a A2F58962 		sub	r2, r2, #1096
 822 044e 9342     		cmp	r3, r2
 823 0450 00F09881 		beq	.L172
 215:Drivers/STM32F4xx_HAL_Driver/Src/stm32f4xx_hal_dma_ex.c ****     __HAL_DMA_CLEAR_FLAG (hdma, __HAL_DMA_GET_DME_FLAG_INDEX(hdma));
 824              		.loc 1 215 0 discriminator 19
 825 0454 02F58062 		add	r2, r2, #1024
 826 0458 9342     		cmp	r3, r2
 827 045a 00F09681 		beq	.L173
 215:Drivers/STM32F4xx_HAL_Driver/Src/stm32f4xx_hal_dma_ex.c ****     __HAL_DMA_CLEAR_FLAG (hdma, __HAL_DMA_GET_DME_FLAG_INDEX(hdma));
 828              		.loc 1 215 0 discriminator 21
 829 045e A2F56872 		sub	r2, r2, #928
 830 0462 9342     		cmp	r3, r2
 831 0464 00F09481 		beq	.L174
 215:Drivers/STM32F4xx_HAL_Driver/Src/stm32f4xx_hal_dma_ex.c ****     __HAL_DMA_CLEAR_FLAG (hdma, __HAL_DMA_GET_DME_FLAG_INDEX(hdma));
 832              		.loc 1 215 0 discriminator 23
 833 0468 02F58062 		add	r2, r2, #1024
 834 046c 9342     		cmp	r3, r2
 835 046e 00F02D81 		beq	.L315
 215:Drivers/STM32F4xx_HAL_Driver/Src/stm32f4xx_hal_dma_ex.c ****     __HAL_DMA_CLEAR_FLAG (hdma, __HAL_DMA_GET_DME_FLAG_INDEX(hdma));
 836              		.loc 1 215 0
 837 0472 4FF00072 		mov	r2, #33554432
 838 0476 2DE1     		b	.L42
 839              	.L117:
 214:Drivers/STM32F4xx_HAL_Driver/Src/stm32f4xx_hal_dma_ex.c ****     __HAL_DMA_CLEAR_FLAG (hdma, __HAL_DMA_GET_TE_FLAG_INDEX(hdma));
 840              		.loc 1 214 0 is_stmt 1
 841 0478 1022     		movs	r2, #16
 842 047a B7E7     		b	.L34
 843              	.L118:
 844 047c 1022     		movs	r2, #16
 845 047e B5E7     		b	.L34
 846              	.L119:
 847 0480 1022     		movs	r2, #16
 848 0482 B3E7     		b	.L34
 849              	.L120:
 850 0484 4FF48062 		mov	r2, #1024
 851 0488 B0E7     		b	.L34
 852              	.L121:
 853 048a 4FF48062 		mov	r2, #1024
 854 048e ADE7     		b	.L34
 855              	.L122:
 856 0490 4FF48062 		mov	r2, #1024
 857 0494 AAE7     		b	.L34
 858              	.L123:
 859 0496 4FF48062 		mov	r2, #1024
 860 049a A7E7     		b	.L34
 861              	.L124:
 862 049c 4FF48012 		mov	r2, #1048576
 863 04a0 A4E7     		b	.L34
 864              	.L125:
ARM GAS  C:\Users\n-is\AppData\Local\Temp\cctzTsGQ.s 			page 24


 865 04a2 4FF48012 		mov	r2, #1048576
 866 04a6 A1E7     		b	.L34
 867              	.L126:
 868 04a8 4FF48012 		mov	r2, #1048576
 869 04ac 9EE7     		b	.L34
 870              	.L33:
 214:Drivers/STM32F4xx_HAL_Driver/Src/stm32f4xx_hal_dma_ex.c ****     __HAL_DMA_CLEAR_FLAG (hdma, __HAL_DMA_GET_TE_FLAG_INDEX(hdma));
 871              		.loc 1 214 0 is_stmt 0 discriminator 2
 872 04ae 5B4A     		ldr	r2, .L325+16
 873 04b0 9342     		cmp	r3, r2
 874 04b2 53D9     		bls	.L36
 214:Drivers/STM32F4xx_HAL_Driver/Src/stm32f4xx_hal_dma_ex.c ****     __HAL_DMA_CLEAR_FLAG (hdma, __HAL_DMA_GET_TE_FLAG_INDEX(hdma));
 875              		.loc 1 214 0 discriminator 51
 876 04b4 A83A     		subs	r2, r2, #168
 877 04b6 9342     		cmp	r3, r2
 878 04b8 31D0     		beq	.L128
 214:Drivers/STM32F4xx_HAL_Driver/Src/stm32f4xx_hal_dma_ex.c ****     __HAL_DMA_CLEAR_FLAG (hdma, __HAL_DMA_GET_TE_FLAG_INDEX(hdma));
 879              		.loc 1 214 0 discriminator 53
 880 04ba 02F58062 		add	r2, r2, #1024
 881 04be 9342     		cmp	r3, r2
 882 04c0 31D0     		beq	.L129
 214:Drivers/STM32F4xx_HAL_Driver/Src/stm32f4xx_hal_dma_ex.c ****     __HAL_DMA_CLEAR_FLAG (hdma, __HAL_DMA_GET_TE_FLAG_INDEX(hdma));
 883              		.loc 1 214 0 discriminator 55
 884 04c2 A2F56872 		sub	r2, r2, #928
 885 04c6 9342     		cmp	r3, r2
 886 04c8 2FD0     		beq	.L130
 214:Drivers/STM32F4xx_HAL_Driver/Src/stm32f4xx_hal_dma_ex.c ****     __HAL_DMA_CLEAR_FLAG (hdma, __HAL_DMA_GET_TE_FLAG_INDEX(hdma));
 887              		.loc 1 214 0 discriminator 57
 888 04ca 02F58062 		add	r2, r2, #1024
 889 04ce 9342     		cmp	r3, r2
 890 04d0 2DD0     		beq	.L131
 214:Drivers/STM32F4xx_HAL_Driver/Src/stm32f4xx_hal_dma_ex.c ****     __HAL_DMA_CLEAR_FLAG (hdma, __HAL_DMA_GET_TE_FLAG_INDEX(hdma));
 891              		.loc 1 214 0 discriminator 59
 892 04d2 A2F58962 		sub	r2, r2, #1096
 893 04d6 9342     		cmp	r3, r2
 894 04d8 2BD0     		beq	.L132
 214:Drivers/STM32F4xx_HAL_Driver/Src/stm32f4xx_hal_dma_ex.c ****     __HAL_DMA_CLEAR_FLAG (hdma, __HAL_DMA_GET_TE_FLAG_INDEX(hdma));
 895              		.loc 1 214 0 discriminator 61
 896 04da 02F58062 		add	r2, r2, #1024
 897 04de 9342     		cmp	r3, r2
 898 04e0 2AD0     		beq	.L133
 214:Drivers/STM32F4xx_HAL_Driver/Src/stm32f4xx_hal_dma_ex.c ****     __HAL_DMA_CLEAR_FLAG (hdma, __HAL_DMA_GET_TE_FLAG_INDEX(hdma));
 899              		.loc 1 214 0 discriminator 63
 900 04e2 A2F56872 		sub	r2, r2, #928
 901 04e6 9342     		cmp	r3, r2
 902 04e8 29D0     		beq	.L134
 214:Drivers/STM32F4xx_HAL_Driver/Src/stm32f4xx_hal_dma_ex.c ****     __HAL_DMA_CLEAR_FLAG (hdma, __HAL_DMA_GET_TE_FLAG_INDEX(hdma));
 903              		.loc 1 214 0 discriminator 65
 904 04ea 02F58062 		add	r2, r2, #1024
 905 04ee 9342     		cmp	r3, r2
 906 04f0 28D0     		beq	.L135
 214:Drivers/STM32F4xx_HAL_Driver/Src/stm32f4xx_hal_dma_ex.c ****     __HAL_DMA_CLEAR_FLAG (hdma, __HAL_DMA_GET_TE_FLAG_INDEX(hdma));
 907              		.loc 1 214 0 discriminator 67
 908 04f2 A2F58962 		sub	r2, r2, #1096
 909 04f6 9342     		cmp	r3, r2
 910 04f8 27D0     		beq	.L136
 214:Drivers/STM32F4xx_HAL_Driver/Src/stm32f4xx_hal_dma_ex.c ****     __HAL_DMA_CLEAR_FLAG (hdma, __HAL_DMA_GET_TE_FLAG_INDEX(hdma));
ARM GAS  C:\Users\n-is\AppData\Local\Temp\cctzTsGQ.s 			page 25


 911              		.loc 1 214 0 discriminator 69
 912 04fa 02F58062 		add	r2, r2, #1024
 913 04fe 9342     		cmp	r3, r2
 914 0500 26D0     		beq	.L137
 214:Drivers/STM32F4xx_HAL_Driver/Src/stm32f4xx_hal_dma_ex.c ****     __HAL_DMA_CLEAR_FLAG (hdma, __HAL_DMA_GET_TE_FLAG_INDEX(hdma));
 915              		.loc 1 214 0 discriminator 71
 916 0502 A2F56872 		sub	r2, r2, #928
 917 0506 9342     		cmp	r3, r2
 918 0508 25D0     		beq	.L138
 214:Drivers/STM32F4xx_HAL_Driver/Src/stm32f4xx_hal_dma_ex.c ****     __HAL_DMA_CLEAR_FLAG (hdma, __HAL_DMA_GET_TE_FLAG_INDEX(hdma));
 919              		.loc 1 214 0 discriminator 73
 920 050a 02F58062 		add	r2, r2, #1024
 921 050e 9342     		cmp	r3, r2
 922 0510 02D0     		beq	.L316
 214:Drivers/STM32F4xx_HAL_Driver/Src/stm32f4xx_hal_dma_ex.c ****     __HAL_DMA_CLEAR_FLAG (hdma, __HAL_DMA_GET_TE_FLAG_INDEX(hdma));
 923              		.loc 1 214 0
 924 0512 4FF08063 		mov	r3, #67108864
 925 0516 03E0     		b	.L37
 926              	.L316:
 927 0518 4FF48013 		mov	r3, #1048576
 928 051c 00E0     		b	.L37
 929              	.L128:
 930 051e 1023     		movs	r3, #16
 931              	.L37:
 214:Drivers/STM32F4xx_HAL_Driver/Src/stm32f4xx_hal_dma_ex.c ****     __HAL_DMA_CLEAR_FLAG (hdma, __HAL_DMA_GET_TE_FLAG_INDEX(hdma));
 932              		.loc 1 214 0 discriminator 100
 933 0520 3C4A     		ldr	r2, .L325+8
 934 0522 9360     		str	r3, [r2, #8]
 935 0524 64E7     		b	.L35
 936              	.L129:
 214:Drivers/STM32F4xx_HAL_Driver/Src/stm32f4xx_hal_dma_ex.c ****     __HAL_DMA_CLEAR_FLAG (hdma, __HAL_DMA_GET_TE_FLAG_INDEX(hdma));
 937              		.loc 1 214 0
 938 0526 1023     		movs	r3, #16
 939 0528 FAE7     		b	.L37
 940              	.L130:
 941 052a 1023     		movs	r3, #16
 942 052c F8E7     		b	.L37
 943              	.L131:
 944 052e 1023     		movs	r3, #16
 945 0530 F6E7     		b	.L37
 946              	.L132:
 947 0532 4FF48063 		mov	r3, #1024
 948 0536 F3E7     		b	.L37
 949              	.L133:
 950 0538 4FF48063 		mov	r3, #1024
 951 053c F0E7     		b	.L37
 952              	.L134:
 953 053e 4FF48063 		mov	r3, #1024
 954 0542 EDE7     		b	.L37
 955              	.L135:
 956 0544 4FF48063 		mov	r3, #1024
 957 0548 EAE7     		b	.L37
 958              	.L136:
 959 054a 4FF48013 		mov	r3, #1048576
 960 054e E7E7     		b	.L37
 961              	.L137:
 962 0550 4FF48013 		mov	r3, #1048576
ARM GAS  C:\Users\n-is\AppData\Local\Temp\cctzTsGQ.s 			page 26


 963 0554 E4E7     		b	.L37
 964              	.L138:
 965 0556 4FF48013 		mov	r3, #1048576
 966 055a E1E7     		b	.L37
 967              	.L36:
 214:Drivers/STM32F4xx_HAL_Driver/Src/stm32f4xx_hal_dma_ex.c ****     __HAL_DMA_CLEAR_FLAG (hdma, __HAL_DMA_GET_TE_FLAG_INDEX(hdma));
 968              		.loc 1 214 0 discriminator 52
 969 055c 304A     		ldr	r2, .L325+20
 970 055e 9342     		cmp	r3, r2
 971 0560 60D9     		bls	.L38
 214:Drivers/STM32F4xx_HAL_Driver/Src/stm32f4xx_hal_dma_ex.c ****     __HAL_DMA_CLEAR_FLAG (hdma, __HAL_DMA_GET_TE_FLAG_INDEX(hdma));
 972              		.loc 1 214 0 discriminator 102
 973 0562 483A     		subs	r2, r2, #72
 974 0564 9342     		cmp	r3, r2
 975 0566 2ED0     		beq	.L140
 214:Drivers/STM32F4xx_HAL_Driver/Src/stm32f4xx_hal_dma_ex.c ****     __HAL_DMA_CLEAR_FLAG (hdma, __HAL_DMA_GET_TE_FLAG_INDEX(hdma));
 976              		.loc 1 214 0 discriminator 104
 977 0568 02F58062 		add	r2, r2, #1024
 978 056c 9342     		cmp	r3, r2
 979 056e 2ED0     		beq	.L141
 214:Drivers/STM32F4xx_HAL_Driver/Src/stm32f4xx_hal_dma_ex.c ****     __HAL_DMA_CLEAR_FLAG (hdma, __HAL_DMA_GET_TE_FLAG_INDEX(hdma));
 980              		.loc 1 214 0 discriminator 106
 981 0570 A2F56872 		sub	r2, r2, #928
 982 0574 9342     		cmp	r3, r2
 983 0576 2CD0     		beq	.L142
 214:Drivers/STM32F4xx_HAL_Driver/Src/stm32f4xx_hal_dma_ex.c ****     __HAL_DMA_CLEAR_FLAG (hdma, __HAL_DMA_GET_TE_FLAG_INDEX(hdma));
 984              		.loc 1 214 0 discriminator 108
 985 0578 02F58062 		add	r2, r2, #1024
 986 057c 9342     		cmp	r3, r2
 987 057e 2AD0     		beq	.L143
 214:Drivers/STM32F4xx_HAL_Driver/Src/stm32f4xx_hal_dma_ex.c ****     __HAL_DMA_CLEAR_FLAG (hdma, __HAL_DMA_GET_TE_FLAG_INDEX(hdma));
 988              		.loc 1 214 0 discriminator 110
 989 0580 A2F58962 		sub	r2, r2, #1096
 990 0584 9342     		cmp	r3, r2
 991 0586 28D0     		beq	.L144
 214:Drivers/STM32F4xx_HAL_Driver/Src/stm32f4xx_hal_dma_ex.c ****     __HAL_DMA_CLEAR_FLAG (hdma, __HAL_DMA_GET_TE_FLAG_INDEX(hdma));
 992              		.loc 1 214 0 discriminator 112
 993 0588 02F58062 		add	r2, r2, #1024
 994 058c 9342     		cmp	r3, r2
 995 058e 27D0     		beq	.L145
 214:Drivers/STM32F4xx_HAL_Driver/Src/stm32f4xx_hal_dma_ex.c ****     __HAL_DMA_CLEAR_FLAG (hdma, __HAL_DMA_GET_TE_FLAG_INDEX(hdma));
 996              		.loc 1 214 0 discriminator 114
 997 0590 A2F56872 		sub	r2, r2, #928
 998 0594 9342     		cmp	r3, r2
 999 0596 26D0     		beq	.L146
 214:Drivers/STM32F4xx_HAL_Driver/Src/stm32f4xx_hal_dma_ex.c ****     __HAL_DMA_CLEAR_FLAG (hdma, __HAL_DMA_GET_TE_FLAG_INDEX(hdma));
 1000              		.loc 1 214 0 discriminator 116
 1001 0598 02F58062 		add	r2, r2, #1024
 1002 059c 9342     		cmp	r3, r2
 1003 059e 25D0     		beq	.L147
 214:Drivers/STM32F4xx_HAL_Driver/Src/stm32f4xx_hal_dma_ex.c ****     __HAL_DMA_CLEAR_FLAG (hdma, __HAL_DMA_GET_TE_FLAG_INDEX(hdma));
 1004              		.loc 1 214 0 discriminator 118
 1005 05a0 A2F58962 		sub	r2, r2, #1096
 1006 05a4 9342     		cmp	r3, r2
 1007 05a6 24D0     		beq	.L148
 214:Drivers/STM32F4xx_HAL_Driver/Src/stm32f4xx_hal_dma_ex.c ****     __HAL_DMA_CLEAR_FLAG (hdma, __HAL_DMA_GET_TE_FLAG_INDEX(hdma));
 1008              		.loc 1 214 0 discriminator 120
ARM GAS  C:\Users\n-is\AppData\Local\Temp\cctzTsGQ.s 			page 27


 1009 05a8 02F58062 		add	r2, r2, #1024
 1010 05ac 9342     		cmp	r3, r2
 1011 05ae 23D0     		beq	.L149
 214:Drivers/STM32F4xx_HAL_Driver/Src/stm32f4xx_hal_dma_ex.c ****     __HAL_DMA_CLEAR_FLAG (hdma, __HAL_DMA_GET_TE_FLAG_INDEX(hdma));
 1012              		.loc 1 214 0 discriminator 122
 1013 05b0 A2F56872 		sub	r2, r2, #928
 1014 05b4 9342     		cmp	r3, r2
 1015 05b6 22D0     		beq	.L150
 214:Drivers/STM32F4xx_HAL_Driver/Src/stm32f4xx_hal_dma_ex.c ****     __HAL_DMA_CLEAR_FLAG (hdma, __HAL_DMA_GET_TE_FLAG_INDEX(hdma));
 1016              		.loc 1 214 0 discriminator 124
 1017 05b8 02F58062 		add	r2, r2, #1024
 1018 05bc 9342     		cmp	r3, r2
 1019 05be 21D1     		bne	.L151
 214:Drivers/STM32F4xx_HAL_Driver/Src/stm32f4xx_hal_dma_ex.c ****     __HAL_DMA_CLEAR_FLAG (hdma, __HAL_DMA_GET_TE_FLAG_INDEX(hdma));
 1020              		.loc 1 214 0
 1021 05c0 4FF48013 		mov	r3, #1048576
 1022 05c4 00E0     		b	.L39
 1023              	.L140:
 1024 05c6 1023     		movs	r3, #16
 1025              	.L39:
 214:Drivers/STM32F4xx_HAL_Driver/Src/stm32f4xx_hal_dma_ex.c ****     __HAL_DMA_CLEAR_FLAG (hdma, __HAL_DMA_GET_TE_FLAG_INDEX(hdma));
 1026              		.loc 1 214 0 discriminator 151
 1027 05c8 114A     		ldr	r2, .L325+4
 1028 05ca D360     		str	r3, [r2, #12]
 1029 05cc 10E7     		b	.L35
 1030              	.L141:
 214:Drivers/STM32F4xx_HAL_Driver/Src/stm32f4xx_hal_dma_ex.c ****     __HAL_DMA_CLEAR_FLAG (hdma, __HAL_DMA_GET_TE_FLAG_INDEX(hdma));
 1031              		.loc 1 214 0
 1032 05ce 1023     		movs	r3, #16
 1033 05d0 FAE7     		b	.L39
 1034              	.L142:
 1035 05d2 1023     		movs	r3, #16
 1036 05d4 F8E7     		b	.L39
 1037              	.L143:
 1038 05d6 1023     		movs	r3, #16
 1039 05d8 F6E7     		b	.L39
 1040              	.L144:
 1041 05da 4FF48063 		mov	r3, #1024
 1042 05de F3E7     		b	.L39
 1043              	.L145:
 1044 05e0 4FF48063 		mov	r3, #1024
 1045 05e4 F0E7     		b	.L39
 1046              	.L146:
 1047 05e6 4FF48063 		mov	r3, #1024
 1048 05ea EDE7     		b	.L39
 1049              	.L147:
 1050 05ec 4FF48063 		mov	r3, #1024
 1051 05f0 EAE7     		b	.L39
 1052              	.L148:
 1053 05f2 4FF48013 		mov	r3, #1048576
 1054 05f6 E7E7     		b	.L39
 1055              	.L149:
 1056 05f8 4FF48013 		mov	r3, #1048576
 1057 05fc E4E7     		b	.L39
 1058              	.L150:
 1059 05fe 4FF48013 		mov	r3, #1048576
 1060 0602 E1E7     		b	.L39
ARM GAS  C:\Users\n-is\AppData\Local\Temp\cctzTsGQ.s 			page 28


 1061              	.L151:
 1062 0604 4FF08063 		mov	r3, #67108864
 1063 0608 DEE7     		b	.L39
 1064              	.L326:
 1065 060a 00BF     		.align	2
 1066              	.L325:
 1067 060c 10600240 		.word	1073897488
 1068 0610 00600240 		.word	1073897472
 1069 0614 00640240 		.word	1073898496
 1070 0618 58640240 		.word	1073898584
 1071 061c B8600240 		.word	1073897656
 1072 0620 58600240 		.word	1073897560
 1073              	.L38:
 214:Drivers/STM32F4xx_HAL_Driver/Src/stm32f4xx_hal_dma_ex.c ****     __HAL_DMA_CLEAR_FLAG (hdma, __HAL_DMA_GET_TE_FLAG_INDEX(hdma));
 1074              		.loc 1 214 0 discriminator 103
 1075 0624 B34A     		ldr	r2, .L327
 1076 0626 9342     		cmp	r3, r2
 1077 0628 2ED0     		beq	.L152
 214:Drivers/STM32F4xx_HAL_Driver/Src/stm32f4xx_hal_dma_ex.c ****     __HAL_DMA_CLEAR_FLAG (hdma, __HAL_DMA_GET_TE_FLAG_INDEX(hdma));
 1078              		.loc 1 214 0 discriminator 153
 1079 062a 02F58062 		add	r2, r2, #1024
 1080 062e 9342     		cmp	r3, r2
 1081 0630 2ED0     		beq	.L153
 214:Drivers/STM32F4xx_HAL_Driver/Src/stm32f4xx_hal_dma_ex.c ****     __HAL_DMA_CLEAR_FLAG (hdma, __HAL_DMA_GET_TE_FLAG_INDEX(hdma));
 1082              		.loc 1 214 0 discriminator 155
 1083 0632 A2F56872 		sub	r2, r2, #928
 1084 0636 9342     		cmp	r3, r2
 1085 0638 2CD0     		beq	.L154
 214:Drivers/STM32F4xx_HAL_Driver/Src/stm32f4xx_hal_dma_ex.c ****     __HAL_DMA_CLEAR_FLAG (hdma, __HAL_DMA_GET_TE_FLAG_INDEX(hdma));
 1086              		.loc 1 214 0 discriminator 157
 1087 063a 02F58062 		add	r2, r2, #1024
 1088 063e 9342     		cmp	r3, r2
 1089 0640 2AD0     		beq	.L155
 214:Drivers/STM32F4xx_HAL_Driver/Src/stm32f4xx_hal_dma_ex.c ****     __HAL_DMA_CLEAR_FLAG (hdma, __HAL_DMA_GET_TE_FLAG_INDEX(hdma));
 1090              		.loc 1 214 0 discriminator 159
 1091 0642 A2F58962 		sub	r2, r2, #1096
 1092 0646 9342     		cmp	r3, r2
 1093 0648 28D0     		beq	.L156
 214:Drivers/STM32F4xx_HAL_Driver/Src/stm32f4xx_hal_dma_ex.c ****     __HAL_DMA_CLEAR_FLAG (hdma, __HAL_DMA_GET_TE_FLAG_INDEX(hdma));
 1094              		.loc 1 214 0 discriminator 161
 1095 064a 02F58062 		add	r2, r2, #1024
 1096 064e 9342     		cmp	r3, r2
 1097 0650 27D0     		beq	.L157
 214:Drivers/STM32F4xx_HAL_Driver/Src/stm32f4xx_hal_dma_ex.c ****     __HAL_DMA_CLEAR_FLAG (hdma, __HAL_DMA_GET_TE_FLAG_INDEX(hdma));
 1098              		.loc 1 214 0 discriminator 163
 1099 0652 A2F56872 		sub	r2, r2, #928
 1100 0656 9342     		cmp	r3, r2
 1101 0658 26D0     		beq	.L158
 214:Drivers/STM32F4xx_HAL_Driver/Src/stm32f4xx_hal_dma_ex.c ****     __HAL_DMA_CLEAR_FLAG (hdma, __HAL_DMA_GET_TE_FLAG_INDEX(hdma));
 1102              		.loc 1 214 0 discriminator 165
 1103 065a 02F58062 		add	r2, r2, #1024
 1104 065e 9342     		cmp	r3, r2
 1105 0660 25D0     		beq	.L159
 214:Drivers/STM32F4xx_HAL_Driver/Src/stm32f4xx_hal_dma_ex.c ****     __HAL_DMA_CLEAR_FLAG (hdma, __HAL_DMA_GET_TE_FLAG_INDEX(hdma));
 1106              		.loc 1 214 0 discriminator 167
 1107 0662 A2F58962 		sub	r2, r2, #1096
 1108 0666 9342     		cmp	r3, r2
ARM GAS  C:\Users\n-is\AppData\Local\Temp\cctzTsGQ.s 			page 29


 1109 0668 24D0     		beq	.L160
 214:Drivers/STM32F4xx_HAL_Driver/Src/stm32f4xx_hal_dma_ex.c ****     __HAL_DMA_CLEAR_FLAG (hdma, __HAL_DMA_GET_TE_FLAG_INDEX(hdma));
 1110              		.loc 1 214 0 discriminator 169
 1111 066a 02F58062 		add	r2, r2, #1024
 1112 066e 9342     		cmp	r3, r2
 1113 0670 23D0     		beq	.L161
 214:Drivers/STM32F4xx_HAL_Driver/Src/stm32f4xx_hal_dma_ex.c ****     __HAL_DMA_CLEAR_FLAG (hdma, __HAL_DMA_GET_TE_FLAG_INDEX(hdma));
 1114              		.loc 1 214 0 discriminator 171
 1115 0672 A2F56872 		sub	r2, r2, #928
 1116 0676 9342     		cmp	r3, r2
 1117 0678 22D0     		beq	.L162
 214:Drivers/STM32F4xx_HAL_Driver/Src/stm32f4xx_hal_dma_ex.c ****     __HAL_DMA_CLEAR_FLAG (hdma, __HAL_DMA_GET_TE_FLAG_INDEX(hdma));
 1118              		.loc 1 214 0 discriminator 173
 1119 067a 02F58062 		add	r2, r2, #1024
 1120 067e 9342     		cmp	r3, r2
 1121 0680 21D1     		bne	.L163
 214:Drivers/STM32F4xx_HAL_Driver/Src/stm32f4xx_hal_dma_ex.c ****     __HAL_DMA_CLEAR_FLAG (hdma, __HAL_DMA_GET_TE_FLAG_INDEX(hdma));
 1122              		.loc 1 214 0
 1123 0682 4FF48013 		mov	r3, #1048576
 1124 0686 00E0     		b	.L40
 1125              	.L152:
 1126 0688 1023     		movs	r3, #16
 1127              	.L40:
 214:Drivers/STM32F4xx_HAL_Driver/Src/stm32f4xx_hal_dma_ex.c ****     __HAL_DMA_CLEAR_FLAG (hdma, __HAL_DMA_GET_TE_FLAG_INDEX(hdma));
 1128              		.loc 1 214 0 discriminator 200
 1129 068a 9B4A     		ldr	r2, .L327+4
 1130 068c 9360     		str	r3, [r2, #8]
 1131 068e AFE6     		b	.L35
 1132              	.L153:
 214:Drivers/STM32F4xx_HAL_Driver/Src/stm32f4xx_hal_dma_ex.c ****     __HAL_DMA_CLEAR_FLAG (hdma, __HAL_DMA_GET_TE_FLAG_INDEX(hdma));
 1133              		.loc 1 214 0
 1134 0690 1023     		movs	r3, #16
 1135 0692 FAE7     		b	.L40
 1136              	.L154:
 1137 0694 1023     		movs	r3, #16
 1138 0696 F8E7     		b	.L40
 1139              	.L155:
 1140 0698 1023     		movs	r3, #16
 1141 069a F6E7     		b	.L40
 1142              	.L156:
 1143 069c 4FF48063 		mov	r3, #1024
 1144 06a0 F3E7     		b	.L40
 1145              	.L157:
 1146 06a2 4FF48063 		mov	r3, #1024
 1147 06a6 F0E7     		b	.L40
 1148              	.L158:
 1149 06a8 4FF48063 		mov	r3, #1024
 1150 06ac EDE7     		b	.L40
 1151              	.L159:
 1152 06ae 4FF48063 		mov	r3, #1024
 1153 06b2 EAE7     		b	.L40
 1154              	.L160:
 1155 06b4 4FF48013 		mov	r3, #1048576
 1156 06b8 E7E7     		b	.L40
 1157              	.L161:
 1158 06ba 4FF48013 		mov	r3, #1048576
 1159 06be E4E7     		b	.L40
ARM GAS  C:\Users\n-is\AppData\Local\Temp\cctzTsGQ.s 			page 30


 1160              	.L162:
 1161 06c0 4FF48013 		mov	r3, #1048576
 1162 06c4 E1E7     		b	.L40
 1163              	.L163:
 1164 06c6 4FF08063 		mov	r3, #67108864
 1165 06ca DEE7     		b	.L40
 1166              	.L315:
 215:Drivers/STM32F4xx_HAL_Driver/Src/stm32f4xx_hal_dma_ex.c ****     __HAL_DMA_CLEAR_FLAG (hdma, __HAL_DMA_GET_DME_FLAG_INDEX(hdma));
 1167              		.loc 1 215 0 is_stmt 1
 1168 06cc 4FF40022 		mov	r2, #524288
 1169 06d0 00E0     		b	.L42
 1170              	.L164:
 1171 06d2 0822     		movs	r2, #8
 1172              	.L42:
 215:Drivers/STM32F4xx_HAL_Driver/Src/stm32f4xx_hal_dma_ex.c ****     __HAL_DMA_CLEAR_FLAG (hdma, __HAL_DMA_GET_DME_FLAG_INDEX(hdma));
 1173              		.loc 1 215 0 is_stmt 0 discriminator 50
 1174 06d4 894B     		ldr	r3, .L327+8
 1175 06d6 DA60     		str	r2, [r3, #12]
 1176              	.L43:
 216:Drivers/STM32F4xx_HAL_Driver/Src/stm32f4xx_hal_dma_ex.c ****     __HAL_DMA_CLEAR_FLAG (hdma, __HAL_DMA_GET_FE_FLAG_INDEX(hdma));
 1177              		.loc 1 216 0 is_stmt 1
 1178 06d8 2368     		ldr	r3, [r4]
 1179 06da 894A     		ldr	r2, .L327+12
 1180 06dc 9342     		cmp	r3, r2
 1181 06de 40F2CE81 		bls	.L49
 216:Drivers/STM32F4xx_HAL_Driver/Src/stm32f4xx_hal_dma_ex.c ****     __HAL_DMA_CLEAR_FLAG (hdma, __HAL_DMA_GET_FE_FLAG_INDEX(hdma));
 1182              		.loc 1 216 0 is_stmt 0 discriminator 1
 1183 06e2 A2F58962 		sub	r2, r2, #1096
 1184 06e6 9342     		cmp	r3, r2
 1185 06e8 00F06781 		beq	.L212
 216:Drivers/STM32F4xx_HAL_Driver/Src/stm32f4xx_hal_dma_ex.c ****     __HAL_DMA_CLEAR_FLAG (hdma, __HAL_DMA_GET_FE_FLAG_INDEX(hdma));
 1186              		.loc 1 216 0 discriminator 3
 1187 06ec 02F58062 		add	r2, r2, #1024
 1188 06f0 9342     		cmp	r3, r2
 1189 06f2 00F0A981 		beq	.L213
 216:Drivers/STM32F4xx_HAL_Driver/Src/stm32f4xx_hal_dma_ex.c ****     __HAL_DMA_CLEAR_FLAG (hdma, __HAL_DMA_GET_FE_FLAG_INDEX(hdma));
 1190              		.loc 1 216 0 discriminator 5
 1191 06f6 A2F56872 		sub	r2, r2, #928
 1192 06fa 9342     		cmp	r3, r2
 1193 06fc 00F0A681 		beq	.L214
 216:Drivers/STM32F4xx_HAL_Driver/Src/stm32f4xx_hal_dma_ex.c ****     __HAL_DMA_CLEAR_FLAG (hdma, __HAL_DMA_GET_FE_FLAG_INDEX(hdma));
 1194              		.loc 1 216 0 discriminator 7
 1195 0700 02F58062 		add	r2, r2, #1024
 1196 0704 9342     		cmp	r3, r2
 1197 0706 00F0A381 		beq	.L215
 216:Drivers/STM32F4xx_HAL_Driver/Src/stm32f4xx_hal_dma_ex.c ****     __HAL_DMA_CLEAR_FLAG (hdma, __HAL_DMA_GET_FE_FLAG_INDEX(hdma));
 1198              		.loc 1 216 0 discriminator 9
 1199 070a A2F58962 		sub	r2, r2, #1096
 1200 070e 9342     		cmp	r3, r2
 1201 0710 00F0A081 		beq	.L216
 216:Drivers/STM32F4xx_HAL_Driver/Src/stm32f4xx_hal_dma_ex.c ****     __HAL_DMA_CLEAR_FLAG (hdma, __HAL_DMA_GET_FE_FLAG_INDEX(hdma));
 1202              		.loc 1 216 0 discriminator 11
 1203 0714 02F58062 		add	r2, r2, #1024
 1204 0718 9342     		cmp	r3, r2
 1205 071a 00F09E81 		beq	.L217
 216:Drivers/STM32F4xx_HAL_Driver/Src/stm32f4xx_hal_dma_ex.c ****     __HAL_DMA_CLEAR_FLAG (hdma, __HAL_DMA_GET_FE_FLAG_INDEX(hdma));
 1206              		.loc 1 216 0 discriminator 13
ARM GAS  C:\Users\n-is\AppData\Local\Temp\cctzTsGQ.s 			page 31


 1207 071e A2F56872 		sub	r2, r2, #928
 1208 0722 9342     		cmp	r3, r2
 1209 0724 00F09C81 		beq	.L218
 216:Drivers/STM32F4xx_HAL_Driver/Src/stm32f4xx_hal_dma_ex.c ****     __HAL_DMA_CLEAR_FLAG (hdma, __HAL_DMA_GET_FE_FLAG_INDEX(hdma));
 1210              		.loc 1 216 0 discriminator 15
 1211 0728 02F58062 		add	r2, r2, #1024
 1212 072c 9342     		cmp	r3, r2
 1213 072e 00F09A81 		beq	.L219
 216:Drivers/STM32F4xx_HAL_Driver/Src/stm32f4xx_hal_dma_ex.c ****     __HAL_DMA_CLEAR_FLAG (hdma, __HAL_DMA_GET_FE_FLAG_INDEX(hdma));
 1214              		.loc 1 216 0 discriminator 17
 1215 0732 A2F58962 		sub	r2, r2, #1096
 1216 0736 9342     		cmp	r3, r2
 1217 0738 00F09881 		beq	.L220
 216:Drivers/STM32F4xx_HAL_Driver/Src/stm32f4xx_hal_dma_ex.c ****     __HAL_DMA_CLEAR_FLAG (hdma, __HAL_DMA_GET_FE_FLAG_INDEX(hdma));
 1218              		.loc 1 216 0 discriminator 19
 1219 073c 02F58062 		add	r2, r2, #1024
 1220 0740 9342     		cmp	r3, r2
 1221 0742 00F09681 		beq	.L221
 216:Drivers/STM32F4xx_HAL_Driver/Src/stm32f4xx_hal_dma_ex.c ****     __HAL_DMA_CLEAR_FLAG (hdma, __HAL_DMA_GET_FE_FLAG_INDEX(hdma));
 1222              		.loc 1 216 0 discriminator 21
 1223 0746 A2F56872 		sub	r2, r2, #928
 1224 074a 9342     		cmp	r3, r2
 1225 074c 00F09481 		beq	.L222
 216:Drivers/STM32F4xx_HAL_Driver/Src/stm32f4xx_hal_dma_ex.c ****     __HAL_DMA_CLEAR_FLAG (hdma, __HAL_DMA_GET_FE_FLAG_INDEX(hdma));
 1226              		.loc 1 216 0 discriminator 23
 1227 0750 02F58062 		add	r2, r2, #1024
 1228 0754 9342     		cmp	r3, r2
 1229 0756 00F02D81 		beq	.L317
 216:Drivers/STM32F4xx_HAL_Driver/Src/stm32f4xx_hal_dma_ex.c ****     __HAL_DMA_CLEAR_FLAG (hdma, __HAL_DMA_GET_FE_FLAG_INDEX(hdma));
 1230              		.loc 1 216 0
 1231 075a 4FF08072 		mov	r2, #16777216
 1232 075e 2DE1     		b	.L50
 1233              	.L165:
 215:Drivers/STM32F4xx_HAL_Driver/Src/stm32f4xx_hal_dma_ex.c ****     __HAL_DMA_CLEAR_FLAG (hdma, __HAL_DMA_GET_DME_FLAG_INDEX(hdma));
 1234              		.loc 1 215 0 is_stmt 1
 1235 0760 0822     		movs	r2, #8
 1236 0762 B7E7     		b	.L42
 1237              	.L166:
 1238 0764 0822     		movs	r2, #8
 1239 0766 B5E7     		b	.L42
 1240              	.L167:
 1241 0768 0822     		movs	r2, #8
 1242 076a B3E7     		b	.L42
 1243              	.L168:
 1244 076c 4FF40072 		mov	r2, #512
 1245 0770 B0E7     		b	.L42
 1246              	.L169:
 1247 0772 4FF40072 		mov	r2, #512
 1248 0776 ADE7     		b	.L42
 1249              	.L170:
 1250 0778 4FF40072 		mov	r2, #512
 1251 077c AAE7     		b	.L42
 1252              	.L171:
 1253 077e 4FF40072 		mov	r2, #512
 1254 0782 A7E7     		b	.L42
 1255              	.L172:
 1256 0784 4FF40022 		mov	r2, #524288
ARM GAS  C:\Users\n-is\AppData\Local\Temp\cctzTsGQ.s 			page 32


 1257 0788 A4E7     		b	.L42
 1258              	.L173:
 1259 078a 4FF40022 		mov	r2, #524288
 1260 078e A1E7     		b	.L42
 1261              	.L174:
 1262 0790 4FF40022 		mov	r2, #524288
 1263 0794 9EE7     		b	.L42
 1264              	.L41:
 215:Drivers/STM32F4xx_HAL_Driver/Src/stm32f4xx_hal_dma_ex.c ****     __HAL_DMA_CLEAR_FLAG (hdma, __HAL_DMA_GET_DME_FLAG_INDEX(hdma));
 1265              		.loc 1 215 0 is_stmt 0 discriminator 2
 1266 0796 5B4A     		ldr	r2, .L327+16
 1267 0798 9342     		cmp	r3, r2
 1268 079a 53D9     		bls	.L44
 215:Drivers/STM32F4xx_HAL_Driver/Src/stm32f4xx_hal_dma_ex.c ****     __HAL_DMA_CLEAR_FLAG (hdma, __HAL_DMA_GET_DME_FLAG_INDEX(hdma));
 1269              		.loc 1 215 0 discriminator 51
 1270 079c A83A     		subs	r2, r2, #168
 1271 079e 9342     		cmp	r3, r2
 1272 07a0 31D0     		beq	.L176
 215:Drivers/STM32F4xx_HAL_Driver/Src/stm32f4xx_hal_dma_ex.c ****     __HAL_DMA_CLEAR_FLAG (hdma, __HAL_DMA_GET_DME_FLAG_INDEX(hdma));
 1273              		.loc 1 215 0 discriminator 53
 1274 07a2 02F58062 		add	r2, r2, #1024
 1275 07a6 9342     		cmp	r3, r2
 1276 07a8 31D0     		beq	.L177
 215:Drivers/STM32F4xx_HAL_Driver/Src/stm32f4xx_hal_dma_ex.c ****     __HAL_DMA_CLEAR_FLAG (hdma, __HAL_DMA_GET_DME_FLAG_INDEX(hdma));
 1277              		.loc 1 215 0 discriminator 55
 1278 07aa A2F56872 		sub	r2, r2, #928
 1279 07ae 9342     		cmp	r3, r2
 1280 07b0 2FD0     		beq	.L178
 215:Drivers/STM32F4xx_HAL_Driver/Src/stm32f4xx_hal_dma_ex.c ****     __HAL_DMA_CLEAR_FLAG (hdma, __HAL_DMA_GET_DME_FLAG_INDEX(hdma));
 1281              		.loc 1 215 0 discriminator 57
 1282 07b2 02F58062 		add	r2, r2, #1024
 1283 07b6 9342     		cmp	r3, r2
 1284 07b8 2DD0     		beq	.L179
 215:Drivers/STM32F4xx_HAL_Driver/Src/stm32f4xx_hal_dma_ex.c ****     __HAL_DMA_CLEAR_FLAG (hdma, __HAL_DMA_GET_DME_FLAG_INDEX(hdma));
 1285              		.loc 1 215 0 discriminator 59
 1286 07ba A2F58962 		sub	r2, r2, #1096
 1287 07be 9342     		cmp	r3, r2
 1288 07c0 2BD0     		beq	.L180
 215:Drivers/STM32F4xx_HAL_Driver/Src/stm32f4xx_hal_dma_ex.c ****     __HAL_DMA_CLEAR_FLAG (hdma, __HAL_DMA_GET_DME_FLAG_INDEX(hdma));
 1289              		.loc 1 215 0 discriminator 61
 1290 07c2 02F58062 		add	r2, r2, #1024
 1291 07c6 9342     		cmp	r3, r2
 1292 07c8 2AD0     		beq	.L181
 215:Drivers/STM32F4xx_HAL_Driver/Src/stm32f4xx_hal_dma_ex.c ****     __HAL_DMA_CLEAR_FLAG (hdma, __HAL_DMA_GET_DME_FLAG_INDEX(hdma));
 1293              		.loc 1 215 0 discriminator 63
 1294 07ca A2F56872 		sub	r2, r2, #928
 1295 07ce 9342     		cmp	r3, r2
 1296 07d0 29D0     		beq	.L182
 215:Drivers/STM32F4xx_HAL_Driver/Src/stm32f4xx_hal_dma_ex.c ****     __HAL_DMA_CLEAR_FLAG (hdma, __HAL_DMA_GET_DME_FLAG_INDEX(hdma));
 1297              		.loc 1 215 0 discriminator 65
 1298 07d2 02F58062 		add	r2, r2, #1024
 1299 07d6 9342     		cmp	r3, r2
 1300 07d8 28D0     		beq	.L183
 215:Drivers/STM32F4xx_HAL_Driver/Src/stm32f4xx_hal_dma_ex.c ****     __HAL_DMA_CLEAR_FLAG (hdma, __HAL_DMA_GET_DME_FLAG_INDEX(hdma));
 1301              		.loc 1 215 0 discriminator 67
 1302 07da A2F58962 		sub	r2, r2, #1096
 1303 07de 9342     		cmp	r3, r2
ARM GAS  C:\Users\n-is\AppData\Local\Temp\cctzTsGQ.s 			page 33


 1304 07e0 27D0     		beq	.L184
 215:Drivers/STM32F4xx_HAL_Driver/Src/stm32f4xx_hal_dma_ex.c ****     __HAL_DMA_CLEAR_FLAG (hdma, __HAL_DMA_GET_DME_FLAG_INDEX(hdma));
 1305              		.loc 1 215 0 discriminator 69
 1306 07e2 02F58062 		add	r2, r2, #1024
 1307 07e6 9342     		cmp	r3, r2
 1308 07e8 26D0     		beq	.L185
 215:Drivers/STM32F4xx_HAL_Driver/Src/stm32f4xx_hal_dma_ex.c ****     __HAL_DMA_CLEAR_FLAG (hdma, __HAL_DMA_GET_DME_FLAG_INDEX(hdma));
 1309              		.loc 1 215 0 discriminator 71
 1310 07ea A2F56872 		sub	r2, r2, #928
 1311 07ee 9342     		cmp	r3, r2
 1312 07f0 25D0     		beq	.L186
 215:Drivers/STM32F4xx_HAL_Driver/Src/stm32f4xx_hal_dma_ex.c ****     __HAL_DMA_CLEAR_FLAG (hdma, __HAL_DMA_GET_DME_FLAG_INDEX(hdma));
 1313              		.loc 1 215 0 discriminator 73
 1314 07f2 02F58062 		add	r2, r2, #1024
 1315 07f6 9342     		cmp	r3, r2
 1316 07f8 02D0     		beq	.L318
 215:Drivers/STM32F4xx_HAL_Driver/Src/stm32f4xx_hal_dma_ex.c ****     __HAL_DMA_CLEAR_FLAG (hdma, __HAL_DMA_GET_DME_FLAG_INDEX(hdma));
 1317              		.loc 1 215 0
 1318 07fa 4FF00073 		mov	r3, #33554432
 1319 07fe 03E0     		b	.L45
 1320              	.L318:
 1321 0800 4FF40023 		mov	r3, #524288
 1322 0804 00E0     		b	.L45
 1323              	.L176:
 1324 0806 0823     		movs	r3, #8
 1325              	.L45:
 215:Drivers/STM32F4xx_HAL_Driver/Src/stm32f4xx_hal_dma_ex.c ****     __HAL_DMA_CLEAR_FLAG (hdma, __HAL_DMA_GET_DME_FLAG_INDEX(hdma));
 1326              		.loc 1 215 0 discriminator 100
 1327 0808 3C4A     		ldr	r2, .L327+8
 1328 080a 9360     		str	r3, [r2, #8]
 1329 080c 64E7     		b	.L43
 1330              	.L177:
 215:Drivers/STM32F4xx_HAL_Driver/Src/stm32f4xx_hal_dma_ex.c ****     __HAL_DMA_CLEAR_FLAG (hdma, __HAL_DMA_GET_DME_FLAG_INDEX(hdma));
 1331              		.loc 1 215 0
 1332 080e 0823     		movs	r3, #8
 1333 0810 FAE7     		b	.L45
 1334              	.L178:
 1335 0812 0823     		movs	r3, #8
 1336 0814 F8E7     		b	.L45
 1337              	.L179:
 1338 0816 0823     		movs	r3, #8
 1339 0818 F6E7     		b	.L45
 1340              	.L180:
 1341 081a 4FF40073 		mov	r3, #512
 1342 081e F3E7     		b	.L45
 1343              	.L181:
 1344 0820 4FF40073 		mov	r3, #512
 1345 0824 F0E7     		b	.L45
 1346              	.L182:
 1347 0826 4FF40073 		mov	r3, #512
 1348 082a EDE7     		b	.L45
 1349              	.L183:
 1350 082c 4FF40073 		mov	r3, #512
 1351 0830 EAE7     		b	.L45
 1352              	.L184:
 1353 0832 4FF40023 		mov	r3, #524288
 1354 0836 E7E7     		b	.L45
ARM GAS  C:\Users\n-is\AppData\Local\Temp\cctzTsGQ.s 			page 34


 1355              	.L185:
 1356 0838 4FF40023 		mov	r3, #524288
 1357 083c E4E7     		b	.L45
 1358              	.L186:
 1359 083e 4FF40023 		mov	r3, #524288
 1360 0842 E1E7     		b	.L45
 1361              	.L44:
 215:Drivers/STM32F4xx_HAL_Driver/Src/stm32f4xx_hal_dma_ex.c ****     __HAL_DMA_CLEAR_FLAG (hdma, __HAL_DMA_GET_DME_FLAG_INDEX(hdma));
 1362              		.loc 1 215 0 discriminator 52
 1363 0844 304A     		ldr	r2, .L327+20
 1364 0846 9342     		cmp	r3, r2
 1365 0848 60D9     		bls	.L46
 215:Drivers/STM32F4xx_HAL_Driver/Src/stm32f4xx_hal_dma_ex.c ****     __HAL_DMA_CLEAR_FLAG (hdma, __HAL_DMA_GET_DME_FLAG_INDEX(hdma));
 1366              		.loc 1 215 0 discriminator 102
 1367 084a 483A     		subs	r2, r2, #72
 1368 084c 9342     		cmp	r3, r2
 1369 084e 2ED0     		beq	.L188
 215:Drivers/STM32F4xx_HAL_Driver/Src/stm32f4xx_hal_dma_ex.c ****     __HAL_DMA_CLEAR_FLAG (hdma, __HAL_DMA_GET_DME_FLAG_INDEX(hdma));
 1370              		.loc 1 215 0 discriminator 104
 1371 0850 02F58062 		add	r2, r2, #1024
 1372 0854 9342     		cmp	r3, r2
 1373 0856 2ED0     		beq	.L189
 215:Drivers/STM32F4xx_HAL_Driver/Src/stm32f4xx_hal_dma_ex.c ****     __HAL_DMA_CLEAR_FLAG (hdma, __HAL_DMA_GET_DME_FLAG_INDEX(hdma));
 1374              		.loc 1 215 0 discriminator 106
 1375 0858 A2F56872 		sub	r2, r2, #928
 1376 085c 9342     		cmp	r3, r2
 1377 085e 2CD0     		beq	.L190
 215:Drivers/STM32F4xx_HAL_Driver/Src/stm32f4xx_hal_dma_ex.c ****     __HAL_DMA_CLEAR_FLAG (hdma, __HAL_DMA_GET_DME_FLAG_INDEX(hdma));
 1378              		.loc 1 215 0 discriminator 108
 1379 0860 02F58062 		add	r2, r2, #1024
 1380 0864 9342     		cmp	r3, r2
 1381 0866 2AD0     		beq	.L191
 215:Drivers/STM32F4xx_HAL_Driver/Src/stm32f4xx_hal_dma_ex.c ****     __HAL_DMA_CLEAR_FLAG (hdma, __HAL_DMA_GET_DME_FLAG_INDEX(hdma));
 1382              		.loc 1 215 0 discriminator 110
 1383 0868 A2F58962 		sub	r2, r2, #1096
 1384 086c 9342     		cmp	r3, r2
 1385 086e 28D0     		beq	.L192
 215:Drivers/STM32F4xx_HAL_Driver/Src/stm32f4xx_hal_dma_ex.c ****     __HAL_DMA_CLEAR_FLAG (hdma, __HAL_DMA_GET_DME_FLAG_INDEX(hdma));
 1386              		.loc 1 215 0 discriminator 112
 1387 0870 02F58062 		add	r2, r2, #1024
 1388 0874 9342     		cmp	r3, r2
 1389 0876 27D0     		beq	.L193
 215:Drivers/STM32F4xx_HAL_Driver/Src/stm32f4xx_hal_dma_ex.c ****     __HAL_DMA_CLEAR_FLAG (hdma, __HAL_DMA_GET_DME_FLAG_INDEX(hdma));
 1390              		.loc 1 215 0 discriminator 114
 1391 0878 A2F56872 		sub	r2, r2, #928
 1392 087c 9342     		cmp	r3, r2
 1393 087e 26D0     		beq	.L194
 215:Drivers/STM32F4xx_HAL_Driver/Src/stm32f4xx_hal_dma_ex.c ****     __HAL_DMA_CLEAR_FLAG (hdma, __HAL_DMA_GET_DME_FLAG_INDEX(hdma));
 1394              		.loc 1 215 0 discriminator 116
 1395 0880 02F58062 		add	r2, r2, #1024
 1396 0884 9342     		cmp	r3, r2
 1397 0886 25D0     		beq	.L195
 215:Drivers/STM32F4xx_HAL_Driver/Src/stm32f4xx_hal_dma_ex.c ****     __HAL_DMA_CLEAR_FLAG (hdma, __HAL_DMA_GET_DME_FLAG_INDEX(hdma));
 1398              		.loc 1 215 0 discriminator 118
 1399 0888 A2F58962 		sub	r2, r2, #1096
 1400 088c 9342     		cmp	r3, r2
 1401 088e 24D0     		beq	.L196
ARM GAS  C:\Users\n-is\AppData\Local\Temp\cctzTsGQ.s 			page 35


 215:Drivers/STM32F4xx_HAL_Driver/Src/stm32f4xx_hal_dma_ex.c ****     __HAL_DMA_CLEAR_FLAG (hdma, __HAL_DMA_GET_DME_FLAG_INDEX(hdma));
 1402              		.loc 1 215 0 discriminator 120
 1403 0890 02F58062 		add	r2, r2, #1024
 1404 0894 9342     		cmp	r3, r2
 1405 0896 23D0     		beq	.L197
 215:Drivers/STM32F4xx_HAL_Driver/Src/stm32f4xx_hal_dma_ex.c ****     __HAL_DMA_CLEAR_FLAG (hdma, __HAL_DMA_GET_DME_FLAG_INDEX(hdma));
 1406              		.loc 1 215 0 discriminator 122
 1407 0898 A2F56872 		sub	r2, r2, #928
 1408 089c 9342     		cmp	r3, r2
 1409 089e 22D0     		beq	.L198
 215:Drivers/STM32F4xx_HAL_Driver/Src/stm32f4xx_hal_dma_ex.c ****     __HAL_DMA_CLEAR_FLAG (hdma, __HAL_DMA_GET_DME_FLAG_INDEX(hdma));
 1410              		.loc 1 215 0 discriminator 124
 1411 08a0 02F58062 		add	r2, r2, #1024
 1412 08a4 9342     		cmp	r3, r2
 1413 08a6 21D1     		bne	.L199
 215:Drivers/STM32F4xx_HAL_Driver/Src/stm32f4xx_hal_dma_ex.c ****     __HAL_DMA_CLEAR_FLAG (hdma, __HAL_DMA_GET_DME_FLAG_INDEX(hdma));
 1414              		.loc 1 215 0
 1415 08a8 4FF40023 		mov	r3, #524288
 1416 08ac 00E0     		b	.L47
 1417              	.L188:
 1418 08ae 0823     		movs	r3, #8
 1419              	.L47:
 215:Drivers/STM32F4xx_HAL_Driver/Src/stm32f4xx_hal_dma_ex.c ****     __HAL_DMA_CLEAR_FLAG (hdma, __HAL_DMA_GET_DME_FLAG_INDEX(hdma));
 1420              		.loc 1 215 0 discriminator 151
 1421 08b0 114A     		ldr	r2, .L327+4
 1422 08b2 D360     		str	r3, [r2, #12]
 1423 08b4 10E7     		b	.L43
 1424              	.L189:
 215:Drivers/STM32F4xx_HAL_Driver/Src/stm32f4xx_hal_dma_ex.c ****     __HAL_DMA_CLEAR_FLAG (hdma, __HAL_DMA_GET_DME_FLAG_INDEX(hdma));
 1425              		.loc 1 215 0
 1426 08b6 0823     		movs	r3, #8
 1427 08b8 FAE7     		b	.L47
 1428              	.L190:
 1429 08ba 0823     		movs	r3, #8
 1430 08bc F8E7     		b	.L47
 1431              	.L191:
 1432 08be 0823     		movs	r3, #8
 1433 08c0 F6E7     		b	.L47
 1434              	.L192:
 1435 08c2 4FF40073 		mov	r3, #512
 1436 08c6 F3E7     		b	.L47
 1437              	.L193:
 1438 08c8 4FF40073 		mov	r3, #512
 1439 08cc F0E7     		b	.L47
 1440              	.L194:
 1441 08ce 4FF40073 		mov	r3, #512
 1442 08d2 EDE7     		b	.L47
 1443              	.L195:
 1444 08d4 4FF40073 		mov	r3, #512
 1445 08d8 EAE7     		b	.L47
 1446              	.L196:
 1447 08da 4FF40023 		mov	r3, #524288
 1448 08de E7E7     		b	.L47
 1449              	.L197:
 1450 08e0 4FF40023 		mov	r3, #524288
 1451 08e4 E4E7     		b	.L47
 1452              	.L198:
ARM GAS  C:\Users\n-is\AppData\Local\Temp\cctzTsGQ.s 			page 36


 1453 08e6 4FF40023 		mov	r3, #524288
 1454 08ea E1E7     		b	.L47
 1455              	.L199:
 1456 08ec 4FF00073 		mov	r3, #33554432
 1457 08f0 DEE7     		b	.L47
 1458              	.L328:
 1459 08f2 00BF     		.align	2
 1460              	.L327:
 1461 08f4 10600240 		.word	1073897488
 1462 08f8 00600240 		.word	1073897472
 1463 08fc 00640240 		.word	1073898496
 1464 0900 58640240 		.word	1073898584
 1465 0904 B8600240 		.word	1073897656
 1466 0908 58600240 		.word	1073897560
 1467              	.L46:
 215:Drivers/STM32F4xx_HAL_Driver/Src/stm32f4xx_hal_dma_ex.c ****     __HAL_DMA_CLEAR_FLAG (hdma, __HAL_DMA_GET_DME_FLAG_INDEX(hdma));
 1468              		.loc 1 215 0 discriminator 103
 1469 090c B34A     		ldr	r2, .L329
 1470 090e 9342     		cmp	r3, r2
 1471 0910 2ED0     		beq	.L200
 215:Drivers/STM32F4xx_HAL_Driver/Src/stm32f4xx_hal_dma_ex.c ****     __HAL_DMA_CLEAR_FLAG (hdma, __HAL_DMA_GET_DME_FLAG_INDEX(hdma));
 1472              		.loc 1 215 0 discriminator 153
 1473 0912 02F58062 		add	r2, r2, #1024
 1474 0916 9342     		cmp	r3, r2
 1475 0918 2ED0     		beq	.L201
 215:Drivers/STM32F4xx_HAL_Driver/Src/stm32f4xx_hal_dma_ex.c ****     __HAL_DMA_CLEAR_FLAG (hdma, __HAL_DMA_GET_DME_FLAG_INDEX(hdma));
 1476              		.loc 1 215 0 discriminator 155
 1477 091a A2F56872 		sub	r2, r2, #928
 1478 091e 9342     		cmp	r3, r2
 1479 0920 2CD0     		beq	.L202
 215:Drivers/STM32F4xx_HAL_Driver/Src/stm32f4xx_hal_dma_ex.c ****     __HAL_DMA_CLEAR_FLAG (hdma, __HAL_DMA_GET_DME_FLAG_INDEX(hdma));
 1480              		.loc 1 215 0 discriminator 157
 1481 0922 02F58062 		add	r2, r2, #1024
 1482 0926 9342     		cmp	r3, r2
 1483 0928 2AD0     		beq	.L203
 215:Drivers/STM32F4xx_HAL_Driver/Src/stm32f4xx_hal_dma_ex.c ****     __HAL_DMA_CLEAR_FLAG (hdma, __HAL_DMA_GET_DME_FLAG_INDEX(hdma));
 1484              		.loc 1 215 0 discriminator 159
 1485 092a A2F58962 		sub	r2, r2, #1096
 1486 092e 9342     		cmp	r3, r2
 1487 0930 28D0     		beq	.L204
 215:Drivers/STM32F4xx_HAL_Driver/Src/stm32f4xx_hal_dma_ex.c ****     __HAL_DMA_CLEAR_FLAG (hdma, __HAL_DMA_GET_DME_FLAG_INDEX(hdma));
 1488              		.loc 1 215 0 discriminator 161
 1489 0932 02F58062 		add	r2, r2, #1024
 1490 0936 9342     		cmp	r3, r2
 1491 0938 27D0     		beq	.L205
 215:Drivers/STM32F4xx_HAL_Driver/Src/stm32f4xx_hal_dma_ex.c ****     __HAL_DMA_CLEAR_FLAG (hdma, __HAL_DMA_GET_DME_FLAG_INDEX(hdma));
 1492              		.loc 1 215 0 discriminator 163
 1493 093a A2F56872 		sub	r2, r2, #928
 1494 093e 9342     		cmp	r3, r2
 1495 0940 26D0     		beq	.L206
 215:Drivers/STM32F4xx_HAL_Driver/Src/stm32f4xx_hal_dma_ex.c ****     __HAL_DMA_CLEAR_FLAG (hdma, __HAL_DMA_GET_DME_FLAG_INDEX(hdma));
 1496              		.loc 1 215 0 discriminator 165
 1497 0942 02F58062 		add	r2, r2, #1024
 1498 0946 9342     		cmp	r3, r2
 1499 0948 25D0     		beq	.L207
 215:Drivers/STM32F4xx_HAL_Driver/Src/stm32f4xx_hal_dma_ex.c ****     __HAL_DMA_CLEAR_FLAG (hdma, __HAL_DMA_GET_DME_FLAG_INDEX(hdma));
 1500              		.loc 1 215 0 discriminator 167
ARM GAS  C:\Users\n-is\AppData\Local\Temp\cctzTsGQ.s 			page 37


 1501 094a A2F58962 		sub	r2, r2, #1096
 1502 094e 9342     		cmp	r3, r2
 1503 0950 24D0     		beq	.L208
 215:Drivers/STM32F4xx_HAL_Driver/Src/stm32f4xx_hal_dma_ex.c ****     __HAL_DMA_CLEAR_FLAG (hdma, __HAL_DMA_GET_DME_FLAG_INDEX(hdma));
 1504              		.loc 1 215 0 discriminator 169
 1505 0952 02F58062 		add	r2, r2, #1024
 1506 0956 9342     		cmp	r3, r2
 1507 0958 23D0     		beq	.L209
 215:Drivers/STM32F4xx_HAL_Driver/Src/stm32f4xx_hal_dma_ex.c ****     __HAL_DMA_CLEAR_FLAG (hdma, __HAL_DMA_GET_DME_FLAG_INDEX(hdma));
 1508              		.loc 1 215 0 discriminator 171
 1509 095a A2F56872 		sub	r2, r2, #928
 1510 095e 9342     		cmp	r3, r2
 1511 0960 22D0     		beq	.L210
 215:Drivers/STM32F4xx_HAL_Driver/Src/stm32f4xx_hal_dma_ex.c ****     __HAL_DMA_CLEAR_FLAG (hdma, __HAL_DMA_GET_DME_FLAG_INDEX(hdma));
 1512              		.loc 1 215 0 discriminator 173
 1513 0962 02F58062 		add	r2, r2, #1024
 1514 0966 9342     		cmp	r3, r2
 1515 0968 21D1     		bne	.L211
 215:Drivers/STM32F4xx_HAL_Driver/Src/stm32f4xx_hal_dma_ex.c ****     __HAL_DMA_CLEAR_FLAG (hdma, __HAL_DMA_GET_DME_FLAG_INDEX(hdma));
 1516              		.loc 1 215 0
 1517 096a 4FF40023 		mov	r3, #524288
 1518 096e 00E0     		b	.L48
 1519              	.L200:
 1520 0970 0823     		movs	r3, #8
 1521              	.L48:
 215:Drivers/STM32F4xx_HAL_Driver/Src/stm32f4xx_hal_dma_ex.c ****     __HAL_DMA_CLEAR_FLAG (hdma, __HAL_DMA_GET_DME_FLAG_INDEX(hdma));
 1522              		.loc 1 215 0 discriminator 200
 1523 0972 9B4A     		ldr	r2, .L329+4
 1524 0974 9360     		str	r3, [r2, #8]
 1525 0976 AFE6     		b	.L43
 1526              	.L201:
 215:Drivers/STM32F4xx_HAL_Driver/Src/stm32f4xx_hal_dma_ex.c ****     __HAL_DMA_CLEAR_FLAG (hdma, __HAL_DMA_GET_DME_FLAG_INDEX(hdma));
 1527              		.loc 1 215 0
 1528 0978 0823     		movs	r3, #8
 1529 097a FAE7     		b	.L48
 1530              	.L202:
 1531 097c 0823     		movs	r3, #8
 1532 097e F8E7     		b	.L48
 1533              	.L203:
 1534 0980 0823     		movs	r3, #8
 1535 0982 F6E7     		b	.L48
 1536              	.L204:
 1537 0984 4FF40073 		mov	r3, #512
 1538 0988 F3E7     		b	.L48
 1539              	.L205:
 1540 098a 4FF40073 		mov	r3, #512
 1541 098e F0E7     		b	.L48
 1542              	.L206:
 1543 0990 4FF40073 		mov	r3, #512
 1544 0994 EDE7     		b	.L48
 1545              	.L207:
 1546 0996 4FF40073 		mov	r3, #512
 1547 099a EAE7     		b	.L48
 1548              	.L208:
 1549 099c 4FF40023 		mov	r3, #524288
 1550 09a0 E7E7     		b	.L48
 1551              	.L209:
ARM GAS  C:\Users\n-is\AppData\Local\Temp\cctzTsGQ.s 			page 38


 1552 09a2 4FF40023 		mov	r3, #524288
 1553 09a6 E4E7     		b	.L48
 1554              	.L210:
 1555 09a8 4FF40023 		mov	r3, #524288
 1556 09ac E1E7     		b	.L48
 1557              	.L211:
 1558 09ae 4FF00073 		mov	r3, #33554432
 1559 09b2 DEE7     		b	.L48
 1560              	.L317:
 216:Drivers/STM32F4xx_HAL_Driver/Src/stm32f4xx_hal_dma_ex.c ****     __HAL_DMA_CLEAR_FLAG (hdma, __HAL_DMA_GET_FE_FLAG_INDEX(hdma));
 1561              		.loc 1 216 0 is_stmt 1
 1562 09b4 4FF48022 		mov	r2, #262144
 1563 09b8 00E0     		b	.L50
 1564              	.L212:
 1565 09ba 0422     		movs	r2, #4
 1566              	.L50:
 216:Drivers/STM32F4xx_HAL_Driver/Src/stm32f4xx_hal_dma_ex.c ****     __HAL_DMA_CLEAR_FLAG (hdma, __HAL_DMA_GET_FE_FLAG_INDEX(hdma));
 1567              		.loc 1 216 0 is_stmt 0 discriminator 50
 1568 09bc 894B     		ldr	r3, .L329+8
 1569 09be DA60     		str	r2, [r3, #12]
 1570              	.L51:
 217:Drivers/STM32F4xx_HAL_Driver/Src/stm32f4xx_hal_dma_ex.c **** 
 1571              		.loc 1 217 0 is_stmt 1
 1572 09c0 2368     		ldr	r3, [r4]
 1573 09c2 894A     		ldr	r2, .L329+12
 1574 09c4 9342     		cmp	r3, r2
 1575 09c6 40F2A181 		bls	.L57
 217:Drivers/STM32F4xx_HAL_Driver/Src/stm32f4xx_hal_dma_ex.c **** 
 1576              		.loc 1 217 0 is_stmt 0 discriminator 1
 1577 09ca A2F58962 		sub	r2, r2, #1096
 1578 09ce 9342     		cmp	r3, r2
 1579 09d0 00F06781 		beq	.L260
 217:Drivers/STM32F4xx_HAL_Driver/Src/stm32f4xx_hal_dma_ex.c **** 
 1580              		.loc 1 217 0 discriminator 3
 1581 09d4 02F58062 		add	r2, r2, #1024
 1582 09d8 9342     		cmp	r3, r2
 1583 09da 00F08081 		beq	.L261
 217:Drivers/STM32F4xx_HAL_Driver/Src/stm32f4xx_hal_dma_ex.c **** 
 1584              		.loc 1 217 0 discriminator 5
 1585 09de A2F56872 		sub	r2, r2, #928
 1586 09e2 9342     		cmp	r3, r2
 1587 09e4 00F07D81 		beq	.L262
 217:Drivers/STM32F4xx_HAL_Driver/Src/stm32f4xx_hal_dma_ex.c **** 
 1588              		.loc 1 217 0 discriminator 7
 1589 09e8 02F58062 		add	r2, r2, #1024
 1590 09ec 9342     		cmp	r3, r2
 1591 09ee 00F07A81 		beq	.L263
 217:Drivers/STM32F4xx_HAL_Driver/Src/stm32f4xx_hal_dma_ex.c **** 
 1592              		.loc 1 217 0 discriminator 9
 1593 09f2 A2F58962 		sub	r2, r2, #1096
 1594 09f6 9342     		cmp	r3, r2
 1595 09f8 00F07781 		beq	.L264
 217:Drivers/STM32F4xx_HAL_Driver/Src/stm32f4xx_hal_dma_ex.c **** 
 1596              		.loc 1 217 0 discriminator 11
 1597 09fc 02F58062 		add	r2, r2, #1024
 1598 0a00 9342     		cmp	r3, r2
 1599 0a02 00F07481 		beq	.L265
ARM GAS  C:\Users\n-is\AppData\Local\Temp\cctzTsGQ.s 			page 39


 217:Drivers/STM32F4xx_HAL_Driver/Src/stm32f4xx_hal_dma_ex.c **** 
 1600              		.loc 1 217 0 discriminator 13
 1601 0a06 A2F56872 		sub	r2, r2, #928
 1602 0a0a 9342     		cmp	r3, r2
 1603 0a0c 00F07181 		beq	.L266
 217:Drivers/STM32F4xx_HAL_Driver/Src/stm32f4xx_hal_dma_ex.c **** 
 1604              		.loc 1 217 0 discriminator 15
 1605 0a10 02F58062 		add	r2, r2, #1024
 1606 0a14 9342     		cmp	r3, r2
 1607 0a16 00F06E81 		beq	.L267
 217:Drivers/STM32F4xx_HAL_Driver/Src/stm32f4xx_hal_dma_ex.c **** 
 1608              		.loc 1 217 0 discriminator 17
 1609 0a1a A2F58962 		sub	r2, r2, #1096
 1610 0a1e 9342     		cmp	r3, r2
 1611 0a20 00F06B81 		beq	.L268
 217:Drivers/STM32F4xx_HAL_Driver/Src/stm32f4xx_hal_dma_ex.c **** 
 1612              		.loc 1 217 0 discriminator 19
 1613 0a24 02F58062 		add	r2, r2, #1024
 1614 0a28 9342     		cmp	r3, r2
 1615 0a2a 00F06981 		beq	.L269
 217:Drivers/STM32F4xx_HAL_Driver/Src/stm32f4xx_hal_dma_ex.c **** 
 1616              		.loc 1 217 0 discriminator 21
 1617 0a2e A2F56872 		sub	r2, r2, #928
 1618 0a32 9342     		cmp	r3, r2
 1619 0a34 00F06781 		beq	.L270
 217:Drivers/STM32F4xx_HAL_Driver/Src/stm32f4xx_hal_dma_ex.c **** 
 1620              		.loc 1 217 0 discriminator 23
 1621 0a38 02F58062 		add	r2, r2, #1024
 1622 0a3c 9342     		cmp	r3, r2
 1623 0a3e 00F02D81 		beq	.L319
 217:Drivers/STM32F4xx_HAL_Driver/Src/stm32f4xx_hal_dma_ex.c **** 
 1624              		.loc 1 217 0
 1625 0a42 4FF48002 		mov	r2, #4194304
 1626 0a46 2DE1     		b	.L58
 1627              	.L213:
 216:Drivers/STM32F4xx_HAL_Driver/Src/stm32f4xx_hal_dma_ex.c ****     __HAL_DMA_CLEAR_FLAG (hdma, __HAL_DMA_GET_FE_FLAG_INDEX(hdma));
 1628              		.loc 1 216 0 is_stmt 1
 1629 0a48 0422     		movs	r2, #4
 1630 0a4a B7E7     		b	.L50
 1631              	.L214:
 1632 0a4c 0422     		movs	r2, #4
 1633 0a4e B5E7     		b	.L50
 1634              	.L215:
 1635 0a50 0422     		movs	r2, #4
 1636 0a52 B3E7     		b	.L50
 1637              	.L216:
 1638 0a54 4FF48072 		mov	r2, #256
 1639 0a58 B0E7     		b	.L50
 1640              	.L217:
 1641 0a5a 4FF48072 		mov	r2, #256
 1642 0a5e ADE7     		b	.L50
 1643              	.L218:
 1644 0a60 4FF48072 		mov	r2, #256
 1645 0a64 AAE7     		b	.L50
 1646              	.L219:
 1647 0a66 4FF48072 		mov	r2, #256
 1648 0a6a A7E7     		b	.L50
ARM GAS  C:\Users\n-is\AppData\Local\Temp\cctzTsGQ.s 			page 40


 1649              	.L220:
 1650 0a6c 4FF48022 		mov	r2, #262144
 1651 0a70 A4E7     		b	.L50
 1652              	.L221:
 1653 0a72 4FF48022 		mov	r2, #262144
 1654 0a76 A1E7     		b	.L50
 1655              	.L222:
 1656 0a78 4FF48022 		mov	r2, #262144
 1657 0a7c 9EE7     		b	.L50
 1658              	.L49:
 216:Drivers/STM32F4xx_HAL_Driver/Src/stm32f4xx_hal_dma_ex.c ****     __HAL_DMA_CLEAR_FLAG (hdma, __HAL_DMA_GET_FE_FLAG_INDEX(hdma));
 1659              		.loc 1 216 0 is_stmt 0 discriminator 2
 1660 0a7e 5B4A     		ldr	r2, .L329+16
 1661 0a80 9342     		cmp	r3, r2
 1662 0a82 53D9     		bls	.L52
 216:Drivers/STM32F4xx_HAL_Driver/Src/stm32f4xx_hal_dma_ex.c ****     __HAL_DMA_CLEAR_FLAG (hdma, __HAL_DMA_GET_FE_FLAG_INDEX(hdma));
 1663              		.loc 1 216 0 discriminator 51
 1664 0a84 A83A     		subs	r2, r2, #168
 1665 0a86 9342     		cmp	r3, r2
 1666 0a88 31D0     		beq	.L224
 216:Drivers/STM32F4xx_HAL_Driver/Src/stm32f4xx_hal_dma_ex.c ****     __HAL_DMA_CLEAR_FLAG (hdma, __HAL_DMA_GET_FE_FLAG_INDEX(hdma));
 1667              		.loc 1 216 0 discriminator 53
 1668 0a8a 02F58062 		add	r2, r2, #1024
 1669 0a8e 9342     		cmp	r3, r2
 1670 0a90 31D0     		beq	.L225
 216:Drivers/STM32F4xx_HAL_Driver/Src/stm32f4xx_hal_dma_ex.c ****     __HAL_DMA_CLEAR_FLAG (hdma, __HAL_DMA_GET_FE_FLAG_INDEX(hdma));
 1671              		.loc 1 216 0 discriminator 55
 1672 0a92 A2F56872 		sub	r2, r2, #928
 1673 0a96 9342     		cmp	r3, r2
 1674 0a98 2FD0     		beq	.L226
 216:Drivers/STM32F4xx_HAL_Driver/Src/stm32f4xx_hal_dma_ex.c ****     __HAL_DMA_CLEAR_FLAG (hdma, __HAL_DMA_GET_FE_FLAG_INDEX(hdma));
 1675              		.loc 1 216 0 discriminator 57
 1676 0a9a 02F58062 		add	r2, r2, #1024
 1677 0a9e 9342     		cmp	r3, r2
 1678 0aa0 2DD0     		beq	.L227
 216:Drivers/STM32F4xx_HAL_Driver/Src/stm32f4xx_hal_dma_ex.c ****     __HAL_DMA_CLEAR_FLAG (hdma, __HAL_DMA_GET_FE_FLAG_INDEX(hdma));
 1679              		.loc 1 216 0 discriminator 59
 1680 0aa2 A2F58962 		sub	r2, r2, #1096
 1681 0aa6 9342     		cmp	r3, r2
 1682 0aa8 2BD0     		beq	.L228
 216:Drivers/STM32F4xx_HAL_Driver/Src/stm32f4xx_hal_dma_ex.c ****     __HAL_DMA_CLEAR_FLAG (hdma, __HAL_DMA_GET_FE_FLAG_INDEX(hdma));
 1683              		.loc 1 216 0 discriminator 61
 1684 0aaa 02F58062 		add	r2, r2, #1024
 1685 0aae 9342     		cmp	r3, r2
 1686 0ab0 2AD0     		beq	.L229
 216:Drivers/STM32F4xx_HAL_Driver/Src/stm32f4xx_hal_dma_ex.c ****     __HAL_DMA_CLEAR_FLAG (hdma, __HAL_DMA_GET_FE_FLAG_INDEX(hdma));
 1687              		.loc 1 216 0 discriminator 63
 1688 0ab2 A2F56872 		sub	r2, r2, #928
 1689 0ab6 9342     		cmp	r3, r2
 1690 0ab8 29D0     		beq	.L230
 216:Drivers/STM32F4xx_HAL_Driver/Src/stm32f4xx_hal_dma_ex.c ****     __HAL_DMA_CLEAR_FLAG (hdma, __HAL_DMA_GET_FE_FLAG_INDEX(hdma));
 1691              		.loc 1 216 0 discriminator 65
 1692 0aba 02F58062 		add	r2, r2, #1024
 1693 0abe 9342     		cmp	r3, r2
 1694 0ac0 28D0     		beq	.L231
 216:Drivers/STM32F4xx_HAL_Driver/Src/stm32f4xx_hal_dma_ex.c ****     __HAL_DMA_CLEAR_FLAG (hdma, __HAL_DMA_GET_FE_FLAG_INDEX(hdma));
 1695              		.loc 1 216 0 discriminator 67
ARM GAS  C:\Users\n-is\AppData\Local\Temp\cctzTsGQ.s 			page 41


 1696 0ac2 A2F58962 		sub	r2, r2, #1096
 1697 0ac6 9342     		cmp	r3, r2
 1698 0ac8 27D0     		beq	.L232
 216:Drivers/STM32F4xx_HAL_Driver/Src/stm32f4xx_hal_dma_ex.c ****     __HAL_DMA_CLEAR_FLAG (hdma, __HAL_DMA_GET_FE_FLAG_INDEX(hdma));
 1699              		.loc 1 216 0 discriminator 69
 1700 0aca 02F58062 		add	r2, r2, #1024
 1701 0ace 9342     		cmp	r3, r2
 1702 0ad0 26D0     		beq	.L233
 216:Drivers/STM32F4xx_HAL_Driver/Src/stm32f4xx_hal_dma_ex.c ****     __HAL_DMA_CLEAR_FLAG (hdma, __HAL_DMA_GET_FE_FLAG_INDEX(hdma));
 1703              		.loc 1 216 0 discriminator 71
 1704 0ad2 A2F56872 		sub	r2, r2, #928
 1705 0ad6 9342     		cmp	r3, r2
 1706 0ad8 25D0     		beq	.L234
 216:Drivers/STM32F4xx_HAL_Driver/Src/stm32f4xx_hal_dma_ex.c ****     __HAL_DMA_CLEAR_FLAG (hdma, __HAL_DMA_GET_FE_FLAG_INDEX(hdma));
 1707              		.loc 1 216 0 discriminator 73
 1708 0ada 02F58062 		add	r2, r2, #1024
 1709 0ade 9342     		cmp	r3, r2
 1710 0ae0 02D0     		beq	.L320
 216:Drivers/STM32F4xx_HAL_Driver/Src/stm32f4xx_hal_dma_ex.c ****     __HAL_DMA_CLEAR_FLAG (hdma, __HAL_DMA_GET_FE_FLAG_INDEX(hdma));
 1711              		.loc 1 216 0
 1712 0ae2 4FF08073 		mov	r3, #16777216
 1713 0ae6 03E0     		b	.L53
 1714              	.L320:
 1715 0ae8 4FF48023 		mov	r3, #262144
 1716 0aec 00E0     		b	.L53
 1717              	.L224:
 1718 0aee 0423     		movs	r3, #4
 1719              	.L53:
 216:Drivers/STM32F4xx_HAL_Driver/Src/stm32f4xx_hal_dma_ex.c ****     __HAL_DMA_CLEAR_FLAG (hdma, __HAL_DMA_GET_FE_FLAG_INDEX(hdma));
 1720              		.loc 1 216 0 discriminator 100
 1721 0af0 3C4A     		ldr	r2, .L329+8
 1722 0af2 9360     		str	r3, [r2, #8]
 1723 0af4 64E7     		b	.L51
 1724              	.L225:
 216:Drivers/STM32F4xx_HAL_Driver/Src/stm32f4xx_hal_dma_ex.c ****     __HAL_DMA_CLEAR_FLAG (hdma, __HAL_DMA_GET_FE_FLAG_INDEX(hdma));
 1725              		.loc 1 216 0
 1726 0af6 0423     		movs	r3, #4
 1727 0af8 FAE7     		b	.L53
 1728              	.L226:
 1729 0afa 0423     		movs	r3, #4
 1730 0afc F8E7     		b	.L53
 1731              	.L227:
 1732 0afe 0423     		movs	r3, #4
 1733 0b00 F6E7     		b	.L53
 1734              	.L228:
 1735 0b02 4FF48073 		mov	r3, #256
 1736 0b06 F3E7     		b	.L53
 1737              	.L229:
 1738 0b08 4FF48073 		mov	r3, #256
 1739 0b0c F0E7     		b	.L53
 1740              	.L230:
 1741 0b0e 4FF48073 		mov	r3, #256
 1742 0b12 EDE7     		b	.L53
 1743              	.L231:
 1744 0b14 4FF48073 		mov	r3, #256
 1745 0b18 EAE7     		b	.L53
 1746              	.L232:
ARM GAS  C:\Users\n-is\AppData\Local\Temp\cctzTsGQ.s 			page 42


 1747 0b1a 4FF48023 		mov	r3, #262144
 1748 0b1e E7E7     		b	.L53
 1749              	.L233:
 1750 0b20 4FF48023 		mov	r3, #262144
 1751 0b24 E4E7     		b	.L53
 1752              	.L234:
 1753 0b26 4FF48023 		mov	r3, #262144
 1754 0b2a E1E7     		b	.L53
 1755              	.L52:
 216:Drivers/STM32F4xx_HAL_Driver/Src/stm32f4xx_hal_dma_ex.c ****     __HAL_DMA_CLEAR_FLAG (hdma, __HAL_DMA_GET_FE_FLAG_INDEX(hdma));
 1756              		.loc 1 216 0 discriminator 52
 1757 0b2c 304A     		ldr	r2, .L329+20
 1758 0b2e 9342     		cmp	r3, r2
 1759 0b30 60D9     		bls	.L54
 216:Drivers/STM32F4xx_HAL_Driver/Src/stm32f4xx_hal_dma_ex.c ****     __HAL_DMA_CLEAR_FLAG (hdma, __HAL_DMA_GET_FE_FLAG_INDEX(hdma));
 1760              		.loc 1 216 0 discriminator 102
 1761 0b32 483A     		subs	r2, r2, #72
 1762 0b34 9342     		cmp	r3, r2
 1763 0b36 2ED0     		beq	.L236
 216:Drivers/STM32F4xx_HAL_Driver/Src/stm32f4xx_hal_dma_ex.c ****     __HAL_DMA_CLEAR_FLAG (hdma, __HAL_DMA_GET_FE_FLAG_INDEX(hdma));
 1764              		.loc 1 216 0 discriminator 104
 1765 0b38 02F58062 		add	r2, r2, #1024
 1766 0b3c 9342     		cmp	r3, r2
 1767 0b3e 2ED0     		beq	.L237
 216:Drivers/STM32F4xx_HAL_Driver/Src/stm32f4xx_hal_dma_ex.c ****     __HAL_DMA_CLEAR_FLAG (hdma, __HAL_DMA_GET_FE_FLAG_INDEX(hdma));
 1768              		.loc 1 216 0 discriminator 106
 1769 0b40 A2F56872 		sub	r2, r2, #928
 1770 0b44 9342     		cmp	r3, r2
 1771 0b46 2CD0     		beq	.L238
 216:Drivers/STM32F4xx_HAL_Driver/Src/stm32f4xx_hal_dma_ex.c ****     __HAL_DMA_CLEAR_FLAG (hdma, __HAL_DMA_GET_FE_FLAG_INDEX(hdma));
 1772              		.loc 1 216 0 discriminator 108
 1773 0b48 02F58062 		add	r2, r2, #1024
 1774 0b4c 9342     		cmp	r3, r2
 1775 0b4e 2AD0     		beq	.L239
 216:Drivers/STM32F4xx_HAL_Driver/Src/stm32f4xx_hal_dma_ex.c ****     __HAL_DMA_CLEAR_FLAG (hdma, __HAL_DMA_GET_FE_FLAG_INDEX(hdma));
 1776              		.loc 1 216 0 discriminator 110
 1777 0b50 A2F58962 		sub	r2, r2, #1096
 1778 0b54 9342     		cmp	r3, r2
 1779 0b56 28D0     		beq	.L240
 216:Drivers/STM32F4xx_HAL_Driver/Src/stm32f4xx_hal_dma_ex.c ****     __HAL_DMA_CLEAR_FLAG (hdma, __HAL_DMA_GET_FE_FLAG_INDEX(hdma));
 1780              		.loc 1 216 0 discriminator 112
 1781 0b58 02F58062 		add	r2, r2, #1024
 1782 0b5c 9342     		cmp	r3, r2
 1783 0b5e 27D0     		beq	.L241
 216:Drivers/STM32F4xx_HAL_Driver/Src/stm32f4xx_hal_dma_ex.c ****     __HAL_DMA_CLEAR_FLAG (hdma, __HAL_DMA_GET_FE_FLAG_INDEX(hdma));
 1784              		.loc 1 216 0 discriminator 114
 1785 0b60 A2F56872 		sub	r2, r2, #928
 1786 0b64 9342     		cmp	r3, r2
 1787 0b66 26D0     		beq	.L242
 216:Drivers/STM32F4xx_HAL_Driver/Src/stm32f4xx_hal_dma_ex.c ****     __HAL_DMA_CLEAR_FLAG (hdma, __HAL_DMA_GET_FE_FLAG_INDEX(hdma));
 1788              		.loc 1 216 0 discriminator 116
 1789 0b68 02F58062 		add	r2, r2, #1024
 1790 0b6c 9342     		cmp	r3, r2
 1791 0b6e 25D0     		beq	.L243
 216:Drivers/STM32F4xx_HAL_Driver/Src/stm32f4xx_hal_dma_ex.c ****     __HAL_DMA_CLEAR_FLAG (hdma, __HAL_DMA_GET_FE_FLAG_INDEX(hdma));
 1792              		.loc 1 216 0 discriminator 118
 1793 0b70 A2F58962 		sub	r2, r2, #1096
ARM GAS  C:\Users\n-is\AppData\Local\Temp\cctzTsGQ.s 			page 43


 1794 0b74 9342     		cmp	r3, r2
 1795 0b76 24D0     		beq	.L244
 216:Drivers/STM32F4xx_HAL_Driver/Src/stm32f4xx_hal_dma_ex.c ****     __HAL_DMA_CLEAR_FLAG (hdma, __HAL_DMA_GET_FE_FLAG_INDEX(hdma));
 1796              		.loc 1 216 0 discriminator 120
 1797 0b78 02F58062 		add	r2, r2, #1024
 1798 0b7c 9342     		cmp	r3, r2
 1799 0b7e 23D0     		beq	.L245
 216:Drivers/STM32F4xx_HAL_Driver/Src/stm32f4xx_hal_dma_ex.c ****     __HAL_DMA_CLEAR_FLAG (hdma, __HAL_DMA_GET_FE_FLAG_INDEX(hdma));
 1800              		.loc 1 216 0 discriminator 122
 1801 0b80 A2F56872 		sub	r2, r2, #928
 1802 0b84 9342     		cmp	r3, r2
 1803 0b86 22D0     		beq	.L246
 216:Drivers/STM32F4xx_HAL_Driver/Src/stm32f4xx_hal_dma_ex.c ****     __HAL_DMA_CLEAR_FLAG (hdma, __HAL_DMA_GET_FE_FLAG_INDEX(hdma));
 1804              		.loc 1 216 0 discriminator 124
 1805 0b88 02F58062 		add	r2, r2, #1024
 1806 0b8c 9342     		cmp	r3, r2
 1807 0b8e 21D1     		bne	.L247
 216:Drivers/STM32F4xx_HAL_Driver/Src/stm32f4xx_hal_dma_ex.c ****     __HAL_DMA_CLEAR_FLAG (hdma, __HAL_DMA_GET_FE_FLAG_INDEX(hdma));
 1808              		.loc 1 216 0
 1809 0b90 4FF48023 		mov	r3, #262144
 1810 0b94 00E0     		b	.L55
 1811              	.L236:
 1812 0b96 0423     		movs	r3, #4
 1813              	.L55:
 216:Drivers/STM32F4xx_HAL_Driver/Src/stm32f4xx_hal_dma_ex.c ****     __HAL_DMA_CLEAR_FLAG (hdma, __HAL_DMA_GET_FE_FLAG_INDEX(hdma));
 1814              		.loc 1 216 0 discriminator 151
 1815 0b98 114A     		ldr	r2, .L329+4
 1816 0b9a D360     		str	r3, [r2, #12]
 1817 0b9c 10E7     		b	.L51
 1818              	.L237:
 216:Drivers/STM32F4xx_HAL_Driver/Src/stm32f4xx_hal_dma_ex.c ****     __HAL_DMA_CLEAR_FLAG (hdma, __HAL_DMA_GET_FE_FLAG_INDEX(hdma));
 1819              		.loc 1 216 0
 1820 0b9e 0423     		movs	r3, #4
 1821 0ba0 FAE7     		b	.L55
 1822              	.L238:
 1823 0ba2 0423     		movs	r3, #4
 1824 0ba4 F8E7     		b	.L55
 1825              	.L239:
 1826 0ba6 0423     		movs	r3, #4
 1827 0ba8 F6E7     		b	.L55
 1828              	.L240:
 1829 0baa 4FF48073 		mov	r3, #256
 1830 0bae F3E7     		b	.L55
 1831              	.L241:
 1832 0bb0 4FF48073 		mov	r3, #256
 1833 0bb4 F0E7     		b	.L55
 1834              	.L242:
 1835 0bb6 4FF48073 		mov	r3, #256
 1836 0bba EDE7     		b	.L55
 1837              	.L243:
 1838 0bbc 4FF48073 		mov	r3, #256
 1839 0bc0 EAE7     		b	.L55
 1840              	.L244:
 1841 0bc2 4FF48023 		mov	r3, #262144
 1842 0bc6 E7E7     		b	.L55
 1843              	.L245:
 1844 0bc8 4FF48023 		mov	r3, #262144
ARM GAS  C:\Users\n-is\AppData\Local\Temp\cctzTsGQ.s 			page 44


 1845 0bcc E4E7     		b	.L55
 1846              	.L246:
 1847 0bce 4FF48023 		mov	r3, #262144
 1848 0bd2 E1E7     		b	.L55
 1849              	.L247:
 1850 0bd4 4FF08073 		mov	r3, #16777216
 1851 0bd8 DEE7     		b	.L55
 1852              	.L330:
 1853 0bda 00BF     		.align	2
 1854              	.L329:
 1855 0bdc 10600240 		.word	1073897488
 1856 0be0 00600240 		.word	1073897472
 1857 0be4 00640240 		.word	1073898496
 1858 0be8 58640240 		.word	1073898584
 1859 0bec B8600240 		.word	1073897656
 1860 0bf0 58600240 		.word	1073897560
 1861              	.L54:
 216:Drivers/STM32F4xx_HAL_Driver/Src/stm32f4xx_hal_dma_ex.c ****     __HAL_DMA_CLEAR_FLAG (hdma, __HAL_DMA_GET_FE_FLAG_INDEX(hdma));
 1862              		.loc 1 216 0 discriminator 103
 1863 0bf4 B94A     		ldr	r2, .L331
 1864 0bf6 9342     		cmp	r3, r2
 1865 0bf8 2ED0     		beq	.L248
 216:Drivers/STM32F4xx_HAL_Driver/Src/stm32f4xx_hal_dma_ex.c ****     __HAL_DMA_CLEAR_FLAG (hdma, __HAL_DMA_GET_FE_FLAG_INDEX(hdma));
 1866              		.loc 1 216 0 discriminator 153
 1867 0bfa 02F58062 		add	r2, r2, #1024
 1868 0bfe 9342     		cmp	r3, r2
 1869 0c00 2ED0     		beq	.L249
 216:Drivers/STM32F4xx_HAL_Driver/Src/stm32f4xx_hal_dma_ex.c ****     __HAL_DMA_CLEAR_FLAG (hdma, __HAL_DMA_GET_FE_FLAG_INDEX(hdma));
 1870              		.loc 1 216 0 discriminator 155
 1871 0c02 A2F56872 		sub	r2, r2, #928
 1872 0c06 9342     		cmp	r3, r2
 1873 0c08 2CD0     		beq	.L250
 216:Drivers/STM32F4xx_HAL_Driver/Src/stm32f4xx_hal_dma_ex.c ****     __HAL_DMA_CLEAR_FLAG (hdma, __HAL_DMA_GET_FE_FLAG_INDEX(hdma));
 1874              		.loc 1 216 0 discriminator 157
 1875 0c0a 02F58062 		add	r2, r2, #1024
 1876 0c0e 9342     		cmp	r3, r2
 1877 0c10 2AD0     		beq	.L251
 216:Drivers/STM32F4xx_HAL_Driver/Src/stm32f4xx_hal_dma_ex.c ****     __HAL_DMA_CLEAR_FLAG (hdma, __HAL_DMA_GET_FE_FLAG_INDEX(hdma));
 1878              		.loc 1 216 0 discriminator 159
 1879 0c12 A2F58962 		sub	r2, r2, #1096
 1880 0c16 9342     		cmp	r3, r2
 1881 0c18 28D0     		beq	.L252
 216:Drivers/STM32F4xx_HAL_Driver/Src/stm32f4xx_hal_dma_ex.c ****     __HAL_DMA_CLEAR_FLAG (hdma, __HAL_DMA_GET_FE_FLAG_INDEX(hdma));
 1882              		.loc 1 216 0 discriminator 161
 1883 0c1a 02F58062 		add	r2, r2, #1024
 1884 0c1e 9342     		cmp	r3, r2
 1885 0c20 27D0     		beq	.L253
 216:Drivers/STM32F4xx_HAL_Driver/Src/stm32f4xx_hal_dma_ex.c ****     __HAL_DMA_CLEAR_FLAG (hdma, __HAL_DMA_GET_FE_FLAG_INDEX(hdma));
 1886              		.loc 1 216 0 discriminator 163
 1887 0c22 A2F56872 		sub	r2, r2, #928
 1888 0c26 9342     		cmp	r3, r2
 1889 0c28 26D0     		beq	.L254
 216:Drivers/STM32F4xx_HAL_Driver/Src/stm32f4xx_hal_dma_ex.c ****     __HAL_DMA_CLEAR_FLAG (hdma, __HAL_DMA_GET_FE_FLAG_INDEX(hdma));
 1890              		.loc 1 216 0 discriminator 165
 1891 0c2a 02F58062 		add	r2, r2, #1024
 1892 0c2e 9342     		cmp	r3, r2
 1893 0c30 25D0     		beq	.L255
ARM GAS  C:\Users\n-is\AppData\Local\Temp\cctzTsGQ.s 			page 45


 216:Drivers/STM32F4xx_HAL_Driver/Src/stm32f4xx_hal_dma_ex.c ****     __HAL_DMA_CLEAR_FLAG (hdma, __HAL_DMA_GET_FE_FLAG_INDEX(hdma));
 1894              		.loc 1 216 0 discriminator 167
 1895 0c32 A2F58962 		sub	r2, r2, #1096
 1896 0c36 9342     		cmp	r3, r2
 1897 0c38 24D0     		beq	.L256
 216:Drivers/STM32F4xx_HAL_Driver/Src/stm32f4xx_hal_dma_ex.c ****     __HAL_DMA_CLEAR_FLAG (hdma, __HAL_DMA_GET_FE_FLAG_INDEX(hdma));
 1898              		.loc 1 216 0 discriminator 169
 1899 0c3a 02F58062 		add	r2, r2, #1024
 1900 0c3e 9342     		cmp	r3, r2
 1901 0c40 23D0     		beq	.L257
 216:Drivers/STM32F4xx_HAL_Driver/Src/stm32f4xx_hal_dma_ex.c ****     __HAL_DMA_CLEAR_FLAG (hdma, __HAL_DMA_GET_FE_FLAG_INDEX(hdma));
 1902              		.loc 1 216 0 discriminator 171
 1903 0c42 A2F56872 		sub	r2, r2, #928
 1904 0c46 9342     		cmp	r3, r2
 1905 0c48 22D0     		beq	.L258
 216:Drivers/STM32F4xx_HAL_Driver/Src/stm32f4xx_hal_dma_ex.c ****     __HAL_DMA_CLEAR_FLAG (hdma, __HAL_DMA_GET_FE_FLAG_INDEX(hdma));
 1906              		.loc 1 216 0 discriminator 173
 1907 0c4a 02F58062 		add	r2, r2, #1024
 1908 0c4e 9342     		cmp	r3, r2
 1909 0c50 21D1     		bne	.L259
 216:Drivers/STM32F4xx_HAL_Driver/Src/stm32f4xx_hal_dma_ex.c ****     __HAL_DMA_CLEAR_FLAG (hdma, __HAL_DMA_GET_FE_FLAG_INDEX(hdma));
 1910              		.loc 1 216 0
 1911 0c52 4FF48023 		mov	r3, #262144
 1912 0c56 00E0     		b	.L56
 1913              	.L248:
 1914 0c58 0423     		movs	r3, #4
 1915              	.L56:
 216:Drivers/STM32F4xx_HAL_Driver/Src/stm32f4xx_hal_dma_ex.c ****     __HAL_DMA_CLEAR_FLAG (hdma, __HAL_DMA_GET_FE_FLAG_INDEX(hdma));
 1916              		.loc 1 216 0 discriminator 200
 1917 0c5a A14A     		ldr	r2, .L331+4
 1918 0c5c 9360     		str	r3, [r2, #8]
 1919 0c5e AFE6     		b	.L51
 1920              	.L249:
 216:Drivers/STM32F4xx_HAL_Driver/Src/stm32f4xx_hal_dma_ex.c ****     __HAL_DMA_CLEAR_FLAG (hdma, __HAL_DMA_GET_FE_FLAG_INDEX(hdma));
 1921              		.loc 1 216 0
 1922 0c60 0423     		movs	r3, #4
 1923 0c62 FAE7     		b	.L56
 1924              	.L250:
 1925 0c64 0423     		movs	r3, #4
 1926 0c66 F8E7     		b	.L56
 1927              	.L251:
 1928 0c68 0423     		movs	r3, #4
 1929 0c6a F6E7     		b	.L56
 1930              	.L252:
 1931 0c6c 4FF48073 		mov	r3, #256
 1932 0c70 F3E7     		b	.L56
 1933              	.L253:
 1934 0c72 4FF48073 		mov	r3, #256
 1935 0c76 F0E7     		b	.L56
 1936              	.L254:
 1937 0c78 4FF48073 		mov	r3, #256
 1938 0c7c EDE7     		b	.L56
 1939              	.L255:
 1940 0c7e 4FF48073 		mov	r3, #256
 1941 0c82 EAE7     		b	.L56
 1942              	.L256:
 1943 0c84 4FF48023 		mov	r3, #262144
ARM GAS  C:\Users\n-is\AppData\Local\Temp\cctzTsGQ.s 			page 46


 1944 0c88 E7E7     		b	.L56
 1945              	.L257:
 1946 0c8a 4FF48023 		mov	r3, #262144
 1947 0c8e E4E7     		b	.L56
 1948              	.L258:
 1949 0c90 4FF48023 		mov	r3, #262144
 1950 0c94 E1E7     		b	.L56
 1951              	.L259:
 1952 0c96 4FF08073 		mov	r3, #16777216
 1953 0c9a DEE7     		b	.L56
 1954              	.L319:
 217:Drivers/STM32F4xx_HAL_Driver/Src/stm32f4xx_hal_dma_ex.c **** 
 1955              		.loc 1 217 0 is_stmt 1
 1956 0c9c 4FF48032 		mov	r2, #65536
 1957 0ca0 00E0     		b	.L58
 1958              	.L260:
 1959 0ca2 0122     		movs	r2, #1
 1960              	.L58:
 217:Drivers/STM32F4xx_HAL_Driver/Src/stm32f4xx_hal_dma_ex.c **** 
 1961              		.loc 1 217 0 is_stmt 0 discriminator 50
 1962 0ca4 8F4B     		ldr	r3, .L331+8
 1963 0ca6 DA60     		str	r2, [r3, #12]
 1964              	.L59:
 220:Drivers/STM32F4xx_HAL_Driver/Src/stm32f4xx_hal_dma_ex.c ****     hdma->Instance->FCR |= DMA_IT_FE;
 1965              		.loc 1 220 0 is_stmt 1
 1966 0ca8 2268     		ldr	r2, [r4]
 1967 0caa 1368     		ldr	r3, [r2]
 1968 0cac 43F01603 		orr	r3, r3, #22
 1969 0cb0 1360     		str	r3, [r2]
 221:Drivers/STM32F4xx_HAL_Driver/Src/stm32f4xx_hal_dma_ex.c ****     
 1970              		.loc 1 221 0
 1971 0cb2 2268     		ldr	r2, [r4]
 1972 0cb4 5369     		ldr	r3, [r2, #20]
 1973 0cb6 43F08003 		orr	r3, r3, #128
 1974 0cba 5361     		str	r3, [r2, #20]
 223:Drivers/STM32F4xx_HAL_Driver/Src/stm32f4xx_hal_dma_ex.c ****     {
 1975              		.loc 1 223 0
 1976 0cbc 236C     		ldr	r3, [r4, #64]
 1977 0cbe 002B     		cmp	r3, #0
 1978 0cc0 00F02481 		beq	.L321
 1979              	.L65:
 225:Drivers/STM32F4xx_HAL_Driver/Src/stm32f4xx_hal_dma_ex.c ****     }
 1980              		.loc 1 225 0
 1981 0cc4 2268     		ldr	r2, [r4]
 1982 0cc6 1368     		ldr	r3, [r2]
 1983 0cc8 43F00803 		orr	r3, r3, #8
 1984 0ccc 1360     		str	r3, [r2]
 1985              	.L66:
 229:Drivers/STM32F4xx_HAL_Driver/Src/stm32f4xx_hal_dma_ex.c ****   }
 1986              		.loc 1 229 0
 1987 0cce 2268     		ldr	r2, [r4]
 1988 0cd0 1368     		ldr	r3, [r2]
 1989 0cd2 43F00103 		orr	r3, r3, #1
 1990 0cd6 1360     		str	r3, [r2]
 173:Drivers/STM32F4xx_HAL_Driver/Src/stm32f4xx_hal_dma_ex.c ****   
 1991              		.loc 1 173 0
 1992 0cd8 0020     		movs	r0, #0
ARM GAS  C:\Users\n-is\AppData\Local\Temp\cctzTsGQ.s 			page 47


 1993 0cda FFF7C4B9 		b	.L21
 1994              	.L261:
 217:Drivers/STM32F4xx_HAL_Driver/Src/stm32f4xx_hal_dma_ex.c **** 
 1995              		.loc 1 217 0
 1996 0cde 0122     		movs	r2, #1
 1997 0ce0 E0E7     		b	.L58
 1998              	.L262:
 1999 0ce2 0122     		movs	r2, #1
 2000 0ce4 DEE7     		b	.L58
 2001              	.L263:
 2002 0ce6 0122     		movs	r2, #1
 2003 0ce8 DCE7     		b	.L58
 2004              	.L264:
 2005 0cea 4022     		movs	r2, #64
 2006 0cec DAE7     		b	.L58
 2007              	.L265:
 2008 0cee 4022     		movs	r2, #64
 2009 0cf0 D8E7     		b	.L58
 2010              	.L266:
 2011 0cf2 4022     		movs	r2, #64
 2012 0cf4 D6E7     		b	.L58
 2013              	.L267:
 2014 0cf6 4022     		movs	r2, #64
 2015 0cf8 D4E7     		b	.L58
 2016              	.L268:
 2017 0cfa 4FF48032 		mov	r2, #65536
 2018 0cfe D1E7     		b	.L58
 2019              	.L269:
 2020 0d00 4FF48032 		mov	r2, #65536
 2021 0d04 CEE7     		b	.L58
 2022              	.L270:
 2023 0d06 4FF48032 		mov	r2, #65536
 2024 0d0a CBE7     		b	.L58
 2025              	.L57:
 217:Drivers/STM32F4xx_HAL_Driver/Src/stm32f4xx_hal_dma_ex.c **** 
 2026              		.loc 1 217 0 is_stmt 0 discriminator 2
 2027 0d0c 764A     		ldr	r2, .L331+12
 2028 0d0e 9342     		cmp	r3, r2
 2029 0d10 4FD9     		bls	.L60
 217:Drivers/STM32F4xx_HAL_Driver/Src/stm32f4xx_hal_dma_ex.c **** 
 2030              		.loc 1 217 0 discriminator 51
 2031 0d12 A83A     		subs	r2, r2, #168
 2032 0d14 9342     		cmp	r3, r2
 2033 0d16 31D0     		beq	.L272
 217:Drivers/STM32F4xx_HAL_Driver/Src/stm32f4xx_hal_dma_ex.c **** 
 2034              		.loc 1 217 0 discriminator 53
 2035 0d18 02F58062 		add	r2, r2, #1024
 2036 0d1c 9342     		cmp	r3, r2
 2037 0d1e 31D0     		beq	.L273
 217:Drivers/STM32F4xx_HAL_Driver/Src/stm32f4xx_hal_dma_ex.c **** 
 2038              		.loc 1 217 0 discriminator 55
 2039 0d20 A2F56872 		sub	r2, r2, #928
 2040 0d24 9342     		cmp	r3, r2
 2041 0d26 2FD0     		beq	.L274
 217:Drivers/STM32F4xx_HAL_Driver/Src/stm32f4xx_hal_dma_ex.c **** 
 2042              		.loc 1 217 0 discriminator 57
 2043 0d28 02F58062 		add	r2, r2, #1024
ARM GAS  C:\Users\n-is\AppData\Local\Temp\cctzTsGQ.s 			page 48


 2044 0d2c 9342     		cmp	r3, r2
 2045 0d2e 2DD0     		beq	.L275
 217:Drivers/STM32F4xx_HAL_Driver/Src/stm32f4xx_hal_dma_ex.c **** 
 2046              		.loc 1 217 0 discriminator 59
 2047 0d30 A2F58962 		sub	r2, r2, #1096
 2048 0d34 9342     		cmp	r3, r2
 2049 0d36 2BD0     		beq	.L276
 217:Drivers/STM32F4xx_HAL_Driver/Src/stm32f4xx_hal_dma_ex.c **** 
 2050              		.loc 1 217 0 discriminator 61
 2051 0d38 02F58062 		add	r2, r2, #1024
 2052 0d3c 9342     		cmp	r3, r2
 2053 0d3e 29D0     		beq	.L277
 217:Drivers/STM32F4xx_HAL_Driver/Src/stm32f4xx_hal_dma_ex.c **** 
 2054              		.loc 1 217 0 discriminator 63
 2055 0d40 A2F56872 		sub	r2, r2, #928
 2056 0d44 9342     		cmp	r3, r2
 2057 0d46 27D0     		beq	.L278
 217:Drivers/STM32F4xx_HAL_Driver/Src/stm32f4xx_hal_dma_ex.c **** 
 2058              		.loc 1 217 0 discriminator 65
 2059 0d48 02F58062 		add	r2, r2, #1024
 2060 0d4c 9342     		cmp	r3, r2
 2061 0d4e 25D0     		beq	.L279
 217:Drivers/STM32F4xx_HAL_Driver/Src/stm32f4xx_hal_dma_ex.c **** 
 2062              		.loc 1 217 0 discriminator 67
 2063 0d50 A2F58962 		sub	r2, r2, #1096
 2064 0d54 9342     		cmp	r3, r2
 2065 0d56 23D0     		beq	.L280
 217:Drivers/STM32F4xx_HAL_Driver/Src/stm32f4xx_hal_dma_ex.c **** 
 2066              		.loc 1 217 0 discriminator 69
 2067 0d58 02F58062 		add	r2, r2, #1024
 2068 0d5c 9342     		cmp	r3, r2
 2069 0d5e 22D0     		beq	.L281
 217:Drivers/STM32F4xx_HAL_Driver/Src/stm32f4xx_hal_dma_ex.c **** 
 2070              		.loc 1 217 0 discriminator 71
 2071 0d60 A2F56872 		sub	r2, r2, #928
 2072 0d64 9342     		cmp	r3, r2
 2073 0d66 21D0     		beq	.L282
 217:Drivers/STM32F4xx_HAL_Driver/Src/stm32f4xx_hal_dma_ex.c **** 
 2074              		.loc 1 217 0 discriminator 73
 2075 0d68 02F58062 		add	r2, r2, #1024
 2076 0d6c 9342     		cmp	r3, r2
 2077 0d6e 02D0     		beq	.L322
 217:Drivers/STM32F4xx_HAL_Driver/Src/stm32f4xx_hal_dma_ex.c **** 
 2078              		.loc 1 217 0
 2079 0d70 4FF48003 		mov	r3, #4194304
 2080 0d74 03E0     		b	.L61
 2081              	.L322:
 2082 0d76 4FF48033 		mov	r3, #65536
 2083 0d7a 00E0     		b	.L61
 2084              	.L272:
 2085 0d7c 0123     		movs	r3, #1
 2086              	.L61:
 217:Drivers/STM32F4xx_HAL_Driver/Src/stm32f4xx_hal_dma_ex.c **** 
 2087              		.loc 1 217 0 discriminator 100
 2088 0d7e 594A     		ldr	r2, .L331+8
 2089 0d80 9360     		str	r3, [r2, #8]
 2090 0d82 91E7     		b	.L59
ARM GAS  C:\Users\n-is\AppData\Local\Temp\cctzTsGQ.s 			page 49


 2091              	.L273:
 217:Drivers/STM32F4xx_HAL_Driver/Src/stm32f4xx_hal_dma_ex.c **** 
 2092              		.loc 1 217 0
 2093 0d84 0123     		movs	r3, #1
 2094 0d86 FAE7     		b	.L61
 2095              	.L274:
 2096 0d88 0123     		movs	r3, #1
 2097 0d8a F8E7     		b	.L61
 2098              	.L275:
 2099 0d8c 0123     		movs	r3, #1
 2100 0d8e F6E7     		b	.L61
 2101              	.L276:
 2102 0d90 4023     		movs	r3, #64
 2103 0d92 F4E7     		b	.L61
 2104              	.L277:
 2105 0d94 4023     		movs	r3, #64
 2106 0d96 F2E7     		b	.L61
 2107              	.L278:
 2108 0d98 4023     		movs	r3, #64
 2109 0d9a F0E7     		b	.L61
 2110              	.L279:
 2111 0d9c 4023     		movs	r3, #64
 2112 0d9e EEE7     		b	.L61
 2113              	.L280:
 2114 0da0 4FF48033 		mov	r3, #65536
 2115 0da4 EBE7     		b	.L61
 2116              	.L281:
 2117 0da6 4FF48033 		mov	r3, #65536
 2118 0daa E8E7     		b	.L61
 2119              	.L282:
 2120 0dac 4FF48033 		mov	r3, #65536
 2121 0db0 E5E7     		b	.L61
 2122              	.L60:
 217:Drivers/STM32F4xx_HAL_Driver/Src/stm32f4xx_hal_dma_ex.c **** 
 2123              		.loc 1 217 0 discriminator 52
 2124 0db2 4E4A     		ldr	r2, .L331+16
 2125 0db4 9342     		cmp	r3, r2
 2126 0db6 4FD9     		bls	.L62
 217:Drivers/STM32F4xx_HAL_Driver/Src/stm32f4xx_hal_dma_ex.c **** 
 2127              		.loc 1 217 0 discriminator 102
 2128 0db8 483A     		subs	r2, r2, #72
 2129 0dba 9342     		cmp	r3, r2
 2130 0dbc 2ED0     		beq	.L284
 217:Drivers/STM32F4xx_HAL_Driver/Src/stm32f4xx_hal_dma_ex.c **** 
 2131              		.loc 1 217 0 discriminator 104
 2132 0dbe 02F58062 		add	r2, r2, #1024
 2133 0dc2 9342     		cmp	r3, r2
 2134 0dc4 2ED0     		beq	.L285
 217:Drivers/STM32F4xx_HAL_Driver/Src/stm32f4xx_hal_dma_ex.c **** 
 2135              		.loc 1 217 0 discriminator 106
 2136 0dc6 A2F56872 		sub	r2, r2, #928
 2137 0dca 9342     		cmp	r3, r2
 2138 0dcc 2CD0     		beq	.L286
 217:Drivers/STM32F4xx_HAL_Driver/Src/stm32f4xx_hal_dma_ex.c **** 
 2139              		.loc 1 217 0 discriminator 108
 2140 0dce 02F58062 		add	r2, r2, #1024
 2141 0dd2 9342     		cmp	r3, r2
ARM GAS  C:\Users\n-is\AppData\Local\Temp\cctzTsGQ.s 			page 50


 2142 0dd4 2AD0     		beq	.L287
 217:Drivers/STM32F4xx_HAL_Driver/Src/stm32f4xx_hal_dma_ex.c **** 
 2143              		.loc 1 217 0 discriminator 110
 2144 0dd6 A2F58962 		sub	r2, r2, #1096
 2145 0dda 9342     		cmp	r3, r2
 2146 0ddc 28D0     		beq	.L288
 217:Drivers/STM32F4xx_HAL_Driver/Src/stm32f4xx_hal_dma_ex.c **** 
 2147              		.loc 1 217 0 discriminator 112
 2148 0dde 02F58062 		add	r2, r2, #1024
 2149 0de2 9342     		cmp	r3, r2
 2150 0de4 26D0     		beq	.L289
 217:Drivers/STM32F4xx_HAL_Driver/Src/stm32f4xx_hal_dma_ex.c **** 
 2151              		.loc 1 217 0 discriminator 114
 2152 0de6 A2F56872 		sub	r2, r2, #928
 2153 0dea 9342     		cmp	r3, r2
 2154 0dec 24D0     		beq	.L290
 217:Drivers/STM32F4xx_HAL_Driver/Src/stm32f4xx_hal_dma_ex.c **** 
 2155              		.loc 1 217 0 discriminator 116
 2156 0dee 02F58062 		add	r2, r2, #1024
 2157 0df2 9342     		cmp	r3, r2
 2158 0df4 22D0     		beq	.L291
 217:Drivers/STM32F4xx_HAL_Driver/Src/stm32f4xx_hal_dma_ex.c **** 
 2159              		.loc 1 217 0 discriminator 118
 2160 0df6 A2F58962 		sub	r2, r2, #1096
 2161 0dfa 9342     		cmp	r3, r2
 2162 0dfc 20D0     		beq	.L292
 217:Drivers/STM32F4xx_HAL_Driver/Src/stm32f4xx_hal_dma_ex.c **** 
 2163              		.loc 1 217 0 discriminator 120
 2164 0dfe 02F58062 		add	r2, r2, #1024
 2165 0e02 9342     		cmp	r3, r2
 2166 0e04 1FD0     		beq	.L293
 217:Drivers/STM32F4xx_HAL_Driver/Src/stm32f4xx_hal_dma_ex.c **** 
 2167              		.loc 1 217 0 discriminator 122
 2168 0e06 A2F56872 		sub	r2, r2, #928
 2169 0e0a 9342     		cmp	r3, r2
 2170 0e0c 1ED0     		beq	.L294
 217:Drivers/STM32F4xx_HAL_Driver/Src/stm32f4xx_hal_dma_ex.c **** 
 2171              		.loc 1 217 0 discriminator 124
 2172 0e0e 02F58062 		add	r2, r2, #1024
 2173 0e12 9342     		cmp	r3, r2
 2174 0e14 1DD1     		bne	.L295
 217:Drivers/STM32F4xx_HAL_Driver/Src/stm32f4xx_hal_dma_ex.c **** 
 2175              		.loc 1 217 0
 2176 0e16 4FF48033 		mov	r3, #65536
 2177 0e1a 00E0     		b	.L63
 2178              	.L284:
 2179 0e1c 0123     		movs	r3, #1
 2180              	.L63:
 217:Drivers/STM32F4xx_HAL_Driver/Src/stm32f4xx_hal_dma_ex.c **** 
 2181              		.loc 1 217 0 discriminator 151
 2182 0e1e 304A     		ldr	r2, .L331+4
 2183 0e20 D360     		str	r3, [r2, #12]
 2184 0e22 41E7     		b	.L59
 2185              	.L285:
 217:Drivers/STM32F4xx_HAL_Driver/Src/stm32f4xx_hal_dma_ex.c **** 
 2186              		.loc 1 217 0
 2187 0e24 0123     		movs	r3, #1
ARM GAS  C:\Users\n-is\AppData\Local\Temp\cctzTsGQ.s 			page 51


 2188 0e26 FAE7     		b	.L63
 2189              	.L286:
 2190 0e28 0123     		movs	r3, #1
 2191 0e2a F8E7     		b	.L63
 2192              	.L287:
 2193 0e2c 0123     		movs	r3, #1
 2194 0e2e F6E7     		b	.L63
 2195              	.L288:
 2196 0e30 4023     		movs	r3, #64
 2197 0e32 F4E7     		b	.L63
 2198              	.L289:
 2199 0e34 4023     		movs	r3, #64
 2200 0e36 F2E7     		b	.L63
 2201              	.L290:
 2202 0e38 4023     		movs	r3, #64
 2203 0e3a F0E7     		b	.L63
 2204              	.L291:
 2205 0e3c 4023     		movs	r3, #64
 2206 0e3e EEE7     		b	.L63
 2207              	.L292:
 2208 0e40 4FF48033 		mov	r3, #65536
 2209 0e44 EBE7     		b	.L63
 2210              	.L293:
 2211 0e46 4FF48033 		mov	r3, #65536
 2212 0e4a E8E7     		b	.L63
 2213              	.L294:
 2214 0e4c 4FF48033 		mov	r3, #65536
 2215 0e50 E5E7     		b	.L63
 2216              	.L295:
 2217 0e52 4FF48003 		mov	r3, #4194304
 2218 0e56 E2E7     		b	.L63
 2219              	.L62:
 217:Drivers/STM32F4xx_HAL_Driver/Src/stm32f4xx_hal_dma_ex.c **** 
 2220              		.loc 1 217 0 discriminator 103
 2221 0e58 204A     		ldr	r2, .L331
 2222 0e5a 9342     		cmp	r3, r2
 2223 0e5c 2ED0     		beq	.L296
 217:Drivers/STM32F4xx_HAL_Driver/Src/stm32f4xx_hal_dma_ex.c **** 
 2224              		.loc 1 217 0 discriminator 153
 2225 0e5e 02F58062 		add	r2, r2, #1024
 2226 0e62 9342     		cmp	r3, r2
 2227 0e64 2ED0     		beq	.L297
 217:Drivers/STM32F4xx_HAL_Driver/Src/stm32f4xx_hal_dma_ex.c **** 
 2228              		.loc 1 217 0 discriminator 155
 2229 0e66 A2F56872 		sub	r2, r2, #928
 2230 0e6a 9342     		cmp	r3, r2
 2231 0e6c 2CD0     		beq	.L298
 217:Drivers/STM32F4xx_HAL_Driver/Src/stm32f4xx_hal_dma_ex.c **** 
 2232              		.loc 1 217 0 discriminator 157
 2233 0e6e 02F58062 		add	r2, r2, #1024
 2234 0e72 9342     		cmp	r3, r2
 2235 0e74 2AD0     		beq	.L299
 217:Drivers/STM32F4xx_HAL_Driver/Src/stm32f4xx_hal_dma_ex.c **** 
 2236              		.loc 1 217 0 discriminator 159
 2237 0e76 A2F58962 		sub	r2, r2, #1096
 2238 0e7a 9342     		cmp	r3, r2
 2239 0e7c 28D0     		beq	.L300
ARM GAS  C:\Users\n-is\AppData\Local\Temp\cctzTsGQ.s 			page 52


 217:Drivers/STM32F4xx_HAL_Driver/Src/stm32f4xx_hal_dma_ex.c **** 
 2240              		.loc 1 217 0 discriminator 161
 2241 0e7e 02F58062 		add	r2, r2, #1024
 2242 0e82 9342     		cmp	r3, r2
 2243 0e84 26D0     		beq	.L301
 217:Drivers/STM32F4xx_HAL_Driver/Src/stm32f4xx_hal_dma_ex.c **** 
 2244              		.loc 1 217 0 discriminator 163
 2245 0e86 A2F56872 		sub	r2, r2, #928
 2246 0e8a 9342     		cmp	r3, r2
 2247 0e8c 24D0     		beq	.L302
 217:Drivers/STM32F4xx_HAL_Driver/Src/stm32f4xx_hal_dma_ex.c **** 
 2248              		.loc 1 217 0 discriminator 165
 2249 0e8e 02F58062 		add	r2, r2, #1024
 2250 0e92 9342     		cmp	r3, r2
 2251 0e94 2CD0     		beq	.L303
 217:Drivers/STM32F4xx_HAL_Driver/Src/stm32f4xx_hal_dma_ex.c **** 
 2252              		.loc 1 217 0 discriminator 167
 2253 0e96 A2F58962 		sub	r2, r2, #1096
 2254 0e9a 9342     		cmp	r3, r2
 2255 0e9c 2AD0     		beq	.L304
 217:Drivers/STM32F4xx_HAL_Driver/Src/stm32f4xx_hal_dma_ex.c **** 
 2256              		.loc 1 217 0 discriminator 169
 2257 0e9e 02F58062 		add	r2, r2, #1024
 2258 0ea2 9342     		cmp	r3, r2
 2259 0ea4 29D0     		beq	.L305
 217:Drivers/STM32F4xx_HAL_Driver/Src/stm32f4xx_hal_dma_ex.c **** 
 2260              		.loc 1 217 0 discriminator 171
 2261 0ea6 A2F56872 		sub	r2, r2, #928
 2262 0eaa 9342     		cmp	r3, r2
 2263 0eac 28D0     		beq	.L306
 217:Drivers/STM32F4xx_HAL_Driver/Src/stm32f4xx_hal_dma_ex.c **** 
 2264              		.loc 1 217 0 discriminator 173
 2265 0eae 02F58062 		add	r2, r2, #1024
 2266 0eb2 9342     		cmp	r3, r2
 2267 0eb4 27D1     		bne	.L307
 217:Drivers/STM32F4xx_HAL_Driver/Src/stm32f4xx_hal_dma_ex.c **** 
 2268              		.loc 1 217 0
 2269 0eb6 4FF48033 		mov	r3, #65536
 2270 0eba 00E0     		b	.L64
 2271              	.L296:
 2272 0ebc 0123     		movs	r3, #1
 2273              	.L64:
 217:Drivers/STM32F4xx_HAL_Driver/Src/stm32f4xx_hal_dma_ex.c **** 
 2274              		.loc 1 217 0 discriminator 200
 2275 0ebe 084A     		ldr	r2, .L331+4
 2276 0ec0 9360     		str	r3, [r2, #8]
 2277 0ec2 F1E6     		b	.L59
 2278              	.L297:
 217:Drivers/STM32F4xx_HAL_Driver/Src/stm32f4xx_hal_dma_ex.c **** 
 2279              		.loc 1 217 0
 2280 0ec4 0123     		movs	r3, #1
 2281 0ec6 FAE7     		b	.L64
 2282              	.L298:
 2283 0ec8 0123     		movs	r3, #1
 2284 0eca F8E7     		b	.L64
 2285              	.L299:
 2286 0ecc 0123     		movs	r3, #1
ARM GAS  C:\Users\n-is\AppData\Local\Temp\cctzTsGQ.s 			page 53


 2287 0ece F6E7     		b	.L64
 2288              	.L300:
 2289 0ed0 4023     		movs	r3, #64
 2290 0ed2 F4E7     		b	.L64
 2291              	.L301:
 2292 0ed4 4023     		movs	r3, #64
 2293 0ed6 F2E7     		b	.L64
 2294              	.L302:
 2295 0ed8 4023     		movs	r3, #64
 2296 0eda F0E7     		b	.L64
 2297              	.L332:
 2298              		.align	2
 2299              	.L331:
 2300 0edc 10600240 		.word	1073897488
 2301 0ee0 00600240 		.word	1073897472
 2302 0ee4 00640240 		.word	1073898496
 2303 0ee8 B8600240 		.word	1073897656
 2304 0eec 58600240 		.word	1073897560
 2305              	.L303:
 2306 0ef0 4023     		movs	r3, #64
 2307 0ef2 E4E7     		b	.L64
 2308              	.L304:
 2309 0ef4 4FF48033 		mov	r3, #65536
 2310 0ef8 E1E7     		b	.L64
 2311              	.L305:
 2312 0efa 4FF48033 		mov	r3, #65536
 2313 0efe DEE7     		b	.L64
 2314              	.L306:
 2315 0f00 4FF48033 		mov	r3, #65536
 2316 0f04 DBE7     		b	.L64
 2317              	.L307:
 2318 0f06 4FF48003 		mov	r3, #4194304
 2319 0f0a D8E7     		b	.L64
 2320              	.L321:
 223:Drivers/STM32F4xx_HAL_Driver/Src/stm32f4xx_hal_dma_ex.c ****     {
 2321              		.loc 1 223 0 is_stmt 1 discriminator 1
 2322 0f0c A36C     		ldr	r3, [r4, #72]
 2323 0f0e 002B     		cmp	r3, #0
 2324 0f10 7FF4D8AE 		bne	.L65
 2325 0f14 DBE6     		b	.L66
 2326              	.LVL40:
 2327              	.L67:
 193:Drivers/STM32F4xx_HAL_Driver/Src/stm32f4xx_hal_dma_ex.c ****   
 2328              		.loc 1 193 0
 2329 0f16 0220     		movs	r0, #2
 2330 0f18 FFF7A5B8 		b	.L21
 2331              		.cfi_endproc
 2332              	.LFE127:
 2334              		.section	.text.HAL_DMAEx_ChangeMemory,"ax",%progbits
 2335              		.align	1
 2336              		.global	HAL_DMAEx_ChangeMemory
 2337              		.syntax unified
 2338              		.thumb
 2339              		.thumb_func
 2340              		.fpu fpv4-sp-d16
 2342              	HAL_DMAEx_ChangeMemory:
 2343              	.LFB128:
ARM GAS  C:\Users\n-is\AppData\Local\Temp\cctzTsGQ.s 			page 54


 257:Drivers/STM32F4xx_HAL_Driver/Src/stm32f4xx_hal_dma_ex.c ****   if(memory == MEMORY0)
 2344              		.loc 1 257 0
 2345              		.cfi_startproc
 2346              		@ args = 0, pretend = 0, frame = 0
 2347              		@ frame_needed = 0, uses_anonymous_args = 0
 2348              		@ link register save eliminated.
 2349              	.LVL41:
 258:Drivers/STM32F4xx_HAL_Driver/Src/stm32f4xx_hal_dma_ex.c ****   {
 2350              		.loc 1 258 0
 2351 0000 1AB1     		cbz	r2, .L336
 266:Drivers/STM32F4xx_HAL_Driver/Src/stm32f4xx_hal_dma_ex.c ****   }
 2352              		.loc 1 266 0
 2353 0002 0368     		ldr	r3, [r0]
 2354 0004 1961     		str	r1, [r3, #16]
 2355              	.L335:
 270:Drivers/STM32F4xx_HAL_Driver/Src/stm32f4xx_hal_dma_ex.c **** 
 2356              		.loc 1 270 0
 2357 0006 0020     		movs	r0, #0
 2358              	.LVL42:
 2359 0008 7047     		bx	lr
 2360              	.LVL43:
 2361              	.L336:
 261:Drivers/STM32F4xx_HAL_Driver/Src/stm32f4xx_hal_dma_ex.c ****   }
 2362              		.loc 1 261 0
 2363 000a 0368     		ldr	r3, [r0]
 2364 000c D960     		str	r1, [r3, #12]
 2365 000e FAE7     		b	.L335
 2366              		.cfi_endproc
 2367              	.LFE128:
 2369              		.section	.rodata.HAL_DMAEx_MultiBufferStart.str1.4,"aMS",%progbits,1
 2370              		.align	2
 2371              	.LC0:
 2372 0000 44726976 		.ascii	"Drivers/STM32F4xx_HAL_Driver/Src/stm32f4xx_hal_dma_"
 2372      6572732F 
 2372      53544D33 
 2372      32463478 
 2372      785F4841 
 2373 0033 65782E63 		.ascii	"ex.c\000"
 2373      00
 2374              		.text
 2375              	.Letext0:
 2376              		.file 2 "c:\\program files (x86)\\gnu tools arm embedded\\7 2018-q2-update\\arm-none-eabi\\include
 2377              		.file 3 "c:\\program files (x86)\\gnu tools arm embedded\\7 2018-q2-update\\arm-none-eabi\\include
 2378              		.file 4 "Drivers/CMSIS/Include/core_cm4.h"
 2379              		.file 5 "Drivers/CMSIS/Device/ST/STM32F4xx/Include/system_stm32f4xx.h"
 2380              		.file 6 "Drivers/CMSIS/Device/ST/STM32F4xx/Include/stm32f407xx.h"
 2381              		.file 7 "c:\\program files (x86)\\gnu tools arm embedded\\7 2018-q2-update\\arm-none-eabi\\include
 2382              		.file 8 "c:\\program files (x86)\\gnu tools arm embedded\\7 2018-q2-update\\arm-none-eabi\\include
 2383              		.file 9 "c:\\program files (x86)\\gnu tools arm embedded\\7 2018-q2-update\\lib\\gcc\\arm-none-eab
 2384              		.file 10 "c:\\program files (x86)\\gnu tools arm embedded\\7 2018-q2-update\\arm-none-eabi\\includ
 2385              		.file 11 "Drivers/STM32F4xx_HAL_Driver/Inc/stm32f4xx_hal_def.h"
 2386              		.file 12 "Drivers/STM32F4xx_HAL_Driver/Inc/stm32f4xx_hal_dma.h"
 2387              		.file 13 "Drivers/STM32F4xx_HAL_Driver/Inc/stm32f4xx_hal_dma_ex.h"
 2388              		.file 14 "Core/Inc/stm32f4xx_hal_conf.h"
ARM GAS  C:\Users\n-is\AppData\Local\Temp\cctzTsGQ.s 			page 55

