ARM GAS  C:\Users\n-is\AppData\Local\Temp\cc3jxhl4.s 			page 1


   1              		.cpu cortex-m4
   2              		.eabi_attribute 27, 1
   3              		.eabi_attribute 28, 1
   4              		.eabi_attribute 20, 1
   5              		.eabi_attribute 21, 1
   6              		.eabi_attribute 23, 3
   7              		.eabi_attribute 24, 1
   8              		.eabi_attribute 25, 1
   9              		.eabi_attribute 26, 1
  10              		.eabi_attribute 30, 1
  11              		.eabi_attribute 34, 1
  12              		.eabi_attribute 18, 4
  13              		.file	"stm32f4xx_hal_adc.c"
  14              		.text
  15              	.Ltext0:
  16              		.cfi_sections	.debug_frame
  17              		.section	.text.ADC_Init,"ax",%progbits
  18              		.align	1
  19              		.syntax unified
  20              		.thumb
  21              		.thumb_func
  22              		.fpu fpv4-sp-d16
  24              	ADC_Init:
  25              	.LFB148:
  26              		.file 1 "Drivers/STM32F4xx_HAL_Driver/Src/stm32f4xx_hal_adc.c"
   1:Drivers/STM32F4xx_HAL_Driver/Src/stm32f4xx_hal_adc.c **** /**
   2:Drivers/STM32F4xx_HAL_Driver/Src/stm32f4xx_hal_adc.c ****   ******************************************************************************
   3:Drivers/STM32F4xx_HAL_Driver/Src/stm32f4xx_hal_adc.c ****   * @file    stm32f4xx_hal_adc.c
   4:Drivers/STM32F4xx_HAL_Driver/Src/stm32f4xx_hal_adc.c ****   * @author  MCD Application Team
   5:Drivers/STM32F4xx_HAL_Driver/Src/stm32f4xx_hal_adc.c ****   * @brief   This file provides firmware functions to manage the following 
   6:Drivers/STM32F4xx_HAL_Driver/Src/stm32f4xx_hal_adc.c ****   *          functionalities of the Analog to Digital Convertor (ADC) peripheral:
   7:Drivers/STM32F4xx_HAL_Driver/Src/stm32f4xx_hal_adc.c ****   *           + Initialization and de-initialization functions
   8:Drivers/STM32F4xx_HAL_Driver/Src/stm32f4xx_hal_adc.c ****   *           + IO operation functions
   9:Drivers/STM32F4xx_HAL_Driver/Src/stm32f4xx_hal_adc.c ****   *           + State and errors functions
  10:Drivers/STM32F4xx_HAL_Driver/Src/stm32f4xx_hal_adc.c ****   *         
  11:Drivers/STM32F4xx_HAL_Driver/Src/stm32f4xx_hal_adc.c ****   @verbatim
  12:Drivers/STM32F4xx_HAL_Driver/Src/stm32f4xx_hal_adc.c ****   ==============================================================================
  13:Drivers/STM32F4xx_HAL_Driver/Src/stm32f4xx_hal_adc.c ****                     ##### ADC Peripheral features #####
  14:Drivers/STM32F4xx_HAL_Driver/Src/stm32f4xx_hal_adc.c ****   ==============================================================================
  15:Drivers/STM32F4xx_HAL_Driver/Src/stm32f4xx_hal_adc.c ****   [..] 
  16:Drivers/STM32F4xx_HAL_Driver/Src/stm32f4xx_hal_adc.c ****   (#) 12-bit, 10-bit, 8-bit or 6-bit configurable resolution.
  17:Drivers/STM32F4xx_HAL_Driver/Src/stm32f4xx_hal_adc.c ****   (#) Interrupt generation at the end of conversion, end of injected conversion,  
  18:Drivers/STM32F4xx_HAL_Driver/Src/stm32f4xx_hal_adc.c ****       and in case of analog watchdog or overrun events
  19:Drivers/STM32F4xx_HAL_Driver/Src/stm32f4xx_hal_adc.c ****   (#) Single and continuous conversion modes.
  20:Drivers/STM32F4xx_HAL_Driver/Src/stm32f4xx_hal_adc.c ****   (#) Scan mode for automatic conversion of channel 0 to channel x.
  21:Drivers/STM32F4xx_HAL_Driver/Src/stm32f4xx_hal_adc.c ****   (#) Data alignment with in-built data coherency.
  22:Drivers/STM32F4xx_HAL_Driver/Src/stm32f4xx_hal_adc.c ****   (#) Channel-wise programmable sampling time.
  23:Drivers/STM32F4xx_HAL_Driver/Src/stm32f4xx_hal_adc.c ****   (#) External trigger option with configurable polarity for both regular and 
  24:Drivers/STM32F4xx_HAL_Driver/Src/stm32f4xx_hal_adc.c ****       injected conversion.
  25:Drivers/STM32F4xx_HAL_Driver/Src/stm32f4xx_hal_adc.c ****   (#) Dual/Triple mode (on devices with 2 ADCs or more).
  26:Drivers/STM32F4xx_HAL_Driver/Src/stm32f4xx_hal_adc.c ****   (#) Configurable DMA data storage in Dual/Triple ADC mode. 
  27:Drivers/STM32F4xx_HAL_Driver/Src/stm32f4xx_hal_adc.c ****   (#) Configurable delay between conversions in Dual/Triple interleaved mode.
  28:Drivers/STM32F4xx_HAL_Driver/Src/stm32f4xx_hal_adc.c ****   (#) ADC conversion type (refer to the datasheets).
  29:Drivers/STM32F4xx_HAL_Driver/Src/stm32f4xx_hal_adc.c ****   (#) ADC supply requirements: 2.4 V to 3.6 V at full speed and down to 1.8 V at 
  30:Drivers/STM32F4xx_HAL_Driver/Src/stm32f4xx_hal_adc.c ****       slower speed.
  31:Drivers/STM32F4xx_HAL_Driver/Src/stm32f4xx_hal_adc.c ****   (#) ADC input range: VREF(minus) = VIN = VREF(plus).
  32:Drivers/STM32F4xx_HAL_Driver/Src/stm32f4xx_hal_adc.c ****   (#) DMA request generation during regular channel conversion.
ARM GAS  C:\Users\n-is\AppData\Local\Temp\cc3jxhl4.s 			page 2


  33:Drivers/STM32F4xx_HAL_Driver/Src/stm32f4xx_hal_adc.c **** 
  34:Drivers/STM32F4xx_HAL_Driver/Src/stm32f4xx_hal_adc.c **** 
  35:Drivers/STM32F4xx_HAL_Driver/Src/stm32f4xx_hal_adc.c ****                      ##### How to use this driver #####
  36:Drivers/STM32F4xx_HAL_Driver/Src/stm32f4xx_hal_adc.c ****   ==============================================================================
  37:Drivers/STM32F4xx_HAL_Driver/Src/stm32f4xx_hal_adc.c ****   [..]
  38:Drivers/STM32F4xx_HAL_Driver/Src/stm32f4xx_hal_adc.c ****   (#)Initialize the ADC low level resources by implementing the HAL_ADC_MspInit():
  39:Drivers/STM32F4xx_HAL_Driver/Src/stm32f4xx_hal_adc.c ****        (##) Enable the ADC interface clock using __HAL_RCC_ADC_CLK_ENABLE()
  40:Drivers/STM32F4xx_HAL_Driver/Src/stm32f4xx_hal_adc.c ****        (##) ADC pins configuration
  41:Drivers/STM32F4xx_HAL_Driver/Src/stm32f4xx_hal_adc.c ****              (+++) Enable the clock for the ADC GPIOs using the following function:
  42:Drivers/STM32F4xx_HAL_Driver/Src/stm32f4xx_hal_adc.c ****                    __HAL_RCC_GPIOx_CLK_ENABLE()  
  43:Drivers/STM32F4xx_HAL_Driver/Src/stm32f4xx_hal_adc.c ****              (+++) Configure these ADC pins in analog mode using HAL_GPIO_Init() 
  44:Drivers/STM32F4xx_HAL_Driver/Src/stm32f4xx_hal_adc.c ****        (##) In case of using interrupts (e.g. HAL_ADC_Start_IT())
  45:Drivers/STM32F4xx_HAL_Driver/Src/stm32f4xx_hal_adc.c ****              (+++) Configure the ADC interrupt priority using HAL_NVIC_SetPriority()
  46:Drivers/STM32F4xx_HAL_Driver/Src/stm32f4xx_hal_adc.c ****              (+++) Enable the ADC IRQ handler using HAL_NVIC_EnableIRQ()
  47:Drivers/STM32F4xx_HAL_Driver/Src/stm32f4xx_hal_adc.c ****              (+++) In ADC IRQ handler, call HAL_ADC_IRQHandler()
  48:Drivers/STM32F4xx_HAL_Driver/Src/stm32f4xx_hal_adc.c ****        (##) In case of using DMA to control data transfer (e.g. HAL_ADC_Start_DMA())
  49:Drivers/STM32F4xx_HAL_Driver/Src/stm32f4xx_hal_adc.c ****              (+++) Enable the DMAx interface clock using __HAL_RCC_DMAx_CLK_ENABLE()
  50:Drivers/STM32F4xx_HAL_Driver/Src/stm32f4xx_hal_adc.c ****              (+++) Configure and enable two DMA streams stream for managing data
  51:Drivers/STM32F4xx_HAL_Driver/Src/stm32f4xx_hal_adc.c ****                  transfer from peripheral to memory (output stream)
  52:Drivers/STM32F4xx_HAL_Driver/Src/stm32f4xx_hal_adc.c ****              (+++) Associate the initialized DMA handle to the CRYP DMA handle
  53:Drivers/STM32F4xx_HAL_Driver/Src/stm32f4xx_hal_adc.c ****                  using  __HAL_LINKDMA()
  54:Drivers/STM32F4xx_HAL_Driver/Src/stm32f4xx_hal_adc.c ****              (+++) Configure the priority and enable the NVIC for the transfer complete
  55:Drivers/STM32F4xx_HAL_Driver/Src/stm32f4xx_hal_adc.c ****                  interrupt on the two DMA Streams. The output stream should have higher
  56:Drivers/STM32F4xx_HAL_Driver/Src/stm32f4xx_hal_adc.c ****                  priority than the input stream.
  57:Drivers/STM32F4xx_HAL_Driver/Src/stm32f4xx_hal_adc.c ****                        
  58:Drivers/STM32F4xx_HAL_Driver/Src/stm32f4xx_hal_adc.c ****     *** Configuration of ADC, groups regular/injected, channels parameters ***
  59:Drivers/STM32F4xx_HAL_Driver/Src/stm32f4xx_hal_adc.c ****   ==============================================================================
  60:Drivers/STM32F4xx_HAL_Driver/Src/stm32f4xx_hal_adc.c ****   [..]
  61:Drivers/STM32F4xx_HAL_Driver/Src/stm32f4xx_hal_adc.c ****   (#) Configure the ADC parameters (resolution, data alignment, ...)
  62:Drivers/STM32F4xx_HAL_Driver/Src/stm32f4xx_hal_adc.c ****       and regular group parameters (conversion trigger, sequencer, ...)
  63:Drivers/STM32F4xx_HAL_Driver/Src/stm32f4xx_hal_adc.c ****       using function HAL_ADC_Init().
  64:Drivers/STM32F4xx_HAL_Driver/Src/stm32f4xx_hal_adc.c **** 
  65:Drivers/STM32F4xx_HAL_Driver/Src/stm32f4xx_hal_adc.c ****   (#) Configure the channels for regular group parameters (channel number, 
  66:Drivers/STM32F4xx_HAL_Driver/Src/stm32f4xx_hal_adc.c ****       channel rank into sequencer, ..., into regular group)
  67:Drivers/STM32F4xx_HAL_Driver/Src/stm32f4xx_hal_adc.c ****       using function HAL_ADC_ConfigChannel().
  68:Drivers/STM32F4xx_HAL_Driver/Src/stm32f4xx_hal_adc.c **** 
  69:Drivers/STM32F4xx_HAL_Driver/Src/stm32f4xx_hal_adc.c ****   (#) Optionally, configure the injected group parameters (conversion trigger, 
  70:Drivers/STM32F4xx_HAL_Driver/Src/stm32f4xx_hal_adc.c ****       sequencer, ..., of injected group)
  71:Drivers/STM32F4xx_HAL_Driver/Src/stm32f4xx_hal_adc.c ****       and the channels for injected group parameters (channel number, 
  72:Drivers/STM32F4xx_HAL_Driver/Src/stm32f4xx_hal_adc.c ****       channel rank into sequencer, ..., into injected group)
  73:Drivers/STM32F4xx_HAL_Driver/Src/stm32f4xx_hal_adc.c ****       using function HAL_ADCEx_InjectedConfigChannel().
  74:Drivers/STM32F4xx_HAL_Driver/Src/stm32f4xx_hal_adc.c **** 
  75:Drivers/STM32F4xx_HAL_Driver/Src/stm32f4xx_hal_adc.c ****   (#) Optionally, configure the analog watchdog parameters (channels
  76:Drivers/STM32F4xx_HAL_Driver/Src/stm32f4xx_hal_adc.c ****       monitored, thresholds, ...) using function HAL_ADC_AnalogWDGConfig().
  77:Drivers/STM32F4xx_HAL_Driver/Src/stm32f4xx_hal_adc.c **** 
  78:Drivers/STM32F4xx_HAL_Driver/Src/stm32f4xx_hal_adc.c ****   (#) Optionally, for devices with several ADC instances: configure the 
  79:Drivers/STM32F4xx_HAL_Driver/Src/stm32f4xx_hal_adc.c ****       multimode parameters using function HAL_ADCEx_MultiModeConfigChannel().
  80:Drivers/STM32F4xx_HAL_Driver/Src/stm32f4xx_hal_adc.c **** 
  81:Drivers/STM32F4xx_HAL_Driver/Src/stm32f4xx_hal_adc.c ****                        *** Execution of ADC conversions ***
  82:Drivers/STM32F4xx_HAL_Driver/Src/stm32f4xx_hal_adc.c ****   ==============================================================================
  83:Drivers/STM32F4xx_HAL_Driver/Src/stm32f4xx_hal_adc.c ****   [..]  
  84:Drivers/STM32F4xx_HAL_Driver/Src/stm32f4xx_hal_adc.c ****   (#) ADC driver can be used among three modes: polling, interruption,
  85:Drivers/STM32F4xx_HAL_Driver/Src/stm32f4xx_hal_adc.c ****       transfer by DMA.    
  86:Drivers/STM32F4xx_HAL_Driver/Src/stm32f4xx_hal_adc.c **** 
  87:Drivers/STM32F4xx_HAL_Driver/Src/stm32f4xx_hal_adc.c ****      *** Polling mode IO operation ***
  88:Drivers/STM32F4xx_HAL_Driver/Src/stm32f4xx_hal_adc.c ****      =================================
  89:Drivers/STM32F4xx_HAL_Driver/Src/stm32f4xx_hal_adc.c ****      [..]    
ARM GAS  C:\Users\n-is\AppData\Local\Temp\cc3jxhl4.s 			page 3


  90:Drivers/STM32F4xx_HAL_Driver/Src/stm32f4xx_hal_adc.c ****        (+) Start the ADC peripheral using HAL_ADC_Start() 
  91:Drivers/STM32F4xx_HAL_Driver/Src/stm32f4xx_hal_adc.c ****        (+) Wait for end of conversion using HAL_ADC_PollForConversion(), at this stage
  92:Drivers/STM32F4xx_HAL_Driver/Src/stm32f4xx_hal_adc.c ****            user can specify the value of timeout according to his end application      
  93:Drivers/STM32F4xx_HAL_Driver/Src/stm32f4xx_hal_adc.c ****        (+) To read the ADC converted values, use the HAL_ADC_GetValue() function.
  94:Drivers/STM32F4xx_HAL_Driver/Src/stm32f4xx_hal_adc.c ****        (+) Stop the ADC peripheral using HAL_ADC_Stop()
  95:Drivers/STM32F4xx_HAL_Driver/Src/stm32f4xx_hal_adc.c ****        
  96:Drivers/STM32F4xx_HAL_Driver/Src/stm32f4xx_hal_adc.c ****      *** Interrupt mode IO operation ***    
  97:Drivers/STM32F4xx_HAL_Driver/Src/stm32f4xx_hal_adc.c ****      ===================================
  98:Drivers/STM32F4xx_HAL_Driver/Src/stm32f4xx_hal_adc.c ****      [..]    
  99:Drivers/STM32F4xx_HAL_Driver/Src/stm32f4xx_hal_adc.c ****        (+) Start the ADC peripheral using HAL_ADC_Start_IT() 
 100:Drivers/STM32F4xx_HAL_Driver/Src/stm32f4xx_hal_adc.c ****        (+) Use HAL_ADC_IRQHandler() called under ADC_IRQHandler() Interrupt subroutine
 101:Drivers/STM32F4xx_HAL_Driver/Src/stm32f4xx_hal_adc.c ****        (+) At ADC end of conversion HAL_ADC_ConvCpltCallback() function is executed and user can 
 102:Drivers/STM32F4xx_HAL_Driver/Src/stm32f4xx_hal_adc.c ****            add his own code by customization of function pointer HAL_ADC_ConvCpltCallback 
 103:Drivers/STM32F4xx_HAL_Driver/Src/stm32f4xx_hal_adc.c ****        (+) In case of ADC Error, HAL_ADC_ErrorCallback() function is executed and user can 
 104:Drivers/STM32F4xx_HAL_Driver/Src/stm32f4xx_hal_adc.c ****            add his own code by customization of function pointer HAL_ADC_ErrorCallback
 105:Drivers/STM32F4xx_HAL_Driver/Src/stm32f4xx_hal_adc.c ****        (+) Stop the ADC peripheral using HAL_ADC_Stop_IT()     
 106:Drivers/STM32F4xx_HAL_Driver/Src/stm32f4xx_hal_adc.c **** 
 107:Drivers/STM32F4xx_HAL_Driver/Src/stm32f4xx_hal_adc.c ****      *** DMA mode IO operation ***    
 108:Drivers/STM32F4xx_HAL_Driver/Src/stm32f4xx_hal_adc.c ****      ==============================
 109:Drivers/STM32F4xx_HAL_Driver/Src/stm32f4xx_hal_adc.c ****      [..]    
 110:Drivers/STM32F4xx_HAL_Driver/Src/stm32f4xx_hal_adc.c ****        (+) Start the ADC peripheral using HAL_ADC_Start_DMA(), at this stage the user specify the l
 111:Drivers/STM32F4xx_HAL_Driver/Src/stm32f4xx_hal_adc.c ****            of data to be transferred at each end of conversion 
 112:Drivers/STM32F4xx_HAL_Driver/Src/stm32f4xx_hal_adc.c ****        (+) At The end of data transfer by HAL_ADC_ConvCpltCallback() function is executed and user 
 113:Drivers/STM32F4xx_HAL_Driver/Src/stm32f4xx_hal_adc.c ****            add his own code by customization of function pointer HAL_ADC_ConvCpltCallback 
 114:Drivers/STM32F4xx_HAL_Driver/Src/stm32f4xx_hal_adc.c ****        (+) In case of transfer Error, HAL_ADC_ErrorCallback() function is executed and user can 
 115:Drivers/STM32F4xx_HAL_Driver/Src/stm32f4xx_hal_adc.c ****            add his own code by customization of function pointer HAL_ADC_ErrorCallback
 116:Drivers/STM32F4xx_HAL_Driver/Src/stm32f4xx_hal_adc.c ****        (+) Stop the ADC peripheral using HAL_ADC_Stop_DMA()
 117:Drivers/STM32F4xx_HAL_Driver/Src/stm32f4xx_hal_adc.c ****                     
 118:Drivers/STM32F4xx_HAL_Driver/Src/stm32f4xx_hal_adc.c ****      *** ADC HAL driver macros list ***
 119:Drivers/STM32F4xx_HAL_Driver/Src/stm32f4xx_hal_adc.c ****      ============================================= 
 120:Drivers/STM32F4xx_HAL_Driver/Src/stm32f4xx_hal_adc.c ****      [..]
 121:Drivers/STM32F4xx_HAL_Driver/Src/stm32f4xx_hal_adc.c ****        Below the list of most used macros in ADC HAL driver.
 122:Drivers/STM32F4xx_HAL_Driver/Src/stm32f4xx_hal_adc.c ****        
 123:Drivers/STM32F4xx_HAL_Driver/Src/stm32f4xx_hal_adc.c ****       (+) __HAL_ADC_ENABLE : Enable the ADC peripheral
 124:Drivers/STM32F4xx_HAL_Driver/Src/stm32f4xx_hal_adc.c ****       (+) __HAL_ADC_DISABLE : Disable the ADC peripheral
 125:Drivers/STM32F4xx_HAL_Driver/Src/stm32f4xx_hal_adc.c ****       (+) __HAL_ADC_ENABLE_IT: Enable the ADC end of conversion interrupt
 126:Drivers/STM32F4xx_HAL_Driver/Src/stm32f4xx_hal_adc.c ****       (+) __HAL_ADC_DISABLE_IT: Disable the ADC end of conversion interrupt
 127:Drivers/STM32F4xx_HAL_Driver/Src/stm32f4xx_hal_adc.c ****       (+) __HAL_ADC_GET_IT_SOURCE: Check if the specified ADC interrupt source is enabled or disabl
 128:Drivers/STM32F4xx_HAL_Driver/Src/stm32f4xx_hal_adc.c ****       (+) __HAL_ADC_CLEAR_FLAG: Clear the ADC's pending flags
 129:Drivers/STM32F4xx_HAL_Driver/Src/stm32f4xx_hal_adc.c ****       (+) __HAL_ADC_GET_FLAG: Get the selected ADC's flag status
 130:Drivers/STM32F4xx_HAL_Driver/Src/stm32f4xx_hal_adc.c ****       (+) ADC_GET_RESOLUTION: Return resolution bits in CR1 register 
 131:Drivers/STM32F4xx_HAL_Driver/Src/stm32f4xx_hal_adc.c ****       
 132:Drivers/STM32F4xx_HAL_Driver/Src/stm32f4xx_hal_adc.c ****      [..] 
 133:Drivers/STM32F4xx_HAL_Driver/Src/stm32f4xx_hal_adc.c ****        (@) You can refer to the ADC HAL driver header file for more useful macros 
 134:Drivers/STM32F4xx_HAL_Driver/Src/stm32f4xx_hal_adc.c **** 
 135:Drivers/STM32F4xx_HAL_Driver/Src/stm32f4xx_hal_adc.c ****                       *** Deinitialization of ADC ***
 136:Drivers/STM32F4xx_HAL_Driver/Src/stm32f4xx_hal_adc.c ****   ==============================================================================
 137:Drivers/STM32F4xx_HAL_Driver/Src/stm32f4xx_hal_adc.c ****   [..]
 138:Drivers/STM32F4xx_HAL_Driver/Src/stm32f4xx_hal_adc.c ****   (#) Disable the ADC interface
 139:Drivers/STM32F4xx_HAL_Driver/Src/stm32f4xx_hal_adc.c ****      (++) ADC clock can be hard reset and disabled at RCC top level.
 140:Drivers/STM32F4xx_HAL_Driver/Src/stm32f4xx_hal_adc.c ****      (++) Hard reset of ADC peripherals
 141:Drivers/STM32F4xx_HAL_Driver/Src/stm32f4xx_hal_adc.c ****           using macro __HAL_RCC_ADC_FORCE_RESET(), __HAL_RCC_ADC_RELEASE_RESET().
 142:Drivers/STM32F4xx_HAL_Driver/Src/stm32f4xx_hal_adc.c ****      (++) ADC clock disable using the equivalent macro/functions as configuration step.
 143:Drivers/STM32F4xx_HAL_Driver/Src/stm32f4xx_hal_adc.c ****                (+++) Example:
 144:Drivers/STM32F4xx_HAL_Driver/Src/stm32f4xx_hal_adc.c ****                    Into HAL_ADC_MspDeInit() (recommended code location) or with
 145:Drivers/STM32F4xx_HAL_Driver/Src/stm32f4xx_hal_adc.c ****                    other device clock parameters configuration:
 146:Drivers/STM32F4xx_HAL_Driver/Src/stm32f4xx_hal_adc.c ****                (+++) HAL_RCC_GetOscConfig(&RCC_OscInitStructure);
ARM GAS  C:\Users\n-is\AppData\Local\Temp\cc3jxhl4.s 			page 4


 147:Drivers/STM32F4xx_HAL_Driver/Src/stm32f4xx_hal_adc.c ****                (+++) RCC_OscInitStructure.OscillatorType = RCC_OSCILLATORTYPE_HSI;
 148:Drivers/STM32F4xx_HAL_Driver/Src/stm32f4xx_hal_adc.c ****                (+++) RCC_OscInitStructure.HSIState = RCC_HSI_OFF; (if not used for system clock)
 149:Drivers/STM32F4xx_HAL_Driver/Src/stm32f4xx_hal_adc.c ****                (+++) HAL_RCC_OscConfig(&RCC_OscInitStructure);
 150:Drivers/STM32F4xx_HAL_Driver/Src/stm32f4xx_hal_adc.c **** 
 151:Drivers/STM32F4xx_HAL_Driver/Src/stm32f4xx_hal_adc.c ****   (#) ADC pins configuration
 152:Drivers/STM32F4xx_HAL_Driver/Src/stm32f4xx_hal_adc.c ****      (++) Disable the clock for the ADC GPIOs using macro __HAL_RCC_GPIOx_CLK_DISABLE()
 153:Drivers/STM32F4xx_HAL_Driver/Src/stm32f4xx_hal_adc.c **** 
 154:Drivers/STM32F4xx_HAL_Driver/Src/stm32f4xx_hal_adc.c ****   (#) Optionally, in case of usage of ADC with interruptions:
 155:Drivers/STM32F4xx_HAL_Driver/Src/stm32f4xx_hal_adc.c ****      (++) Disable the NVIC for ADC using function HAL_NVIC_DisableIRQ(ADCx_IRQn)
 156:Drivers/STM32F4xx_HAL_Driver/Src/stm32f4xx_hal_adc.c **** 
 157:Drivers/STM32F4xx_HAL_Driver/Src/stm32f4xx_hal_adc.c ****   (#) Optionally, in case of usage of DMA:
 158:Drivers/STM32F4xx_HAL_Driver/Src/stm32f4xx_hal_adc.c ****         (++) Deinitialize the DMA using function HAL_DMA_DeInit().
 159:Drivers/STM32F4xx_HAL_Driver/Src/stm32f4xx_hal_adc.c ****         (++) Disable the NVIC for DMA using function HAL_NVIC_DisableIRQ(DMAx_Channelx_IRQn)   
 160:Drivers/STM32F4xx_HAL_Driver/Src/stm32f4xx_hal_adc.c **** 
 161:Drivers/STM32F4xx_HAL_Driver/Src/stm32f4xx_hal_adc.c ****     @endverbatim
 162:Drivers/STM32F4xx_HAL_Driver/Src/stm32f4xx_hal_adc.c ****   ******************************************************************************
 163:Drivers/STM32F4xx_HAL_Driver/Src/stm32f4xx_hal_adc.c ****   * @attention
 164:Drivers/STM32F4xx_HAL_Driver/Src/stm32f4xx_hal_adc.c ****   *
 165:Drivers/STM32F4xx_HAL_Driver/Src/stm32f4xx_hal_adc.c ****   * <h2><center>&copy; COPYRIGHT(c) 2017 STMicroelectronics</center></h2>
 166:Drivers/STM32F4xx_HAL_Driver/Src/stm32f4xx_hal_adc.c ****   *
 167:Drivers/STM32F4xx_HAL_Driver/Src/stm32f4xx_hal_adc.c ****   * Redistribution and use in source and binary forms, with or without modification,
 168:Drivers/STM32F4xx_HAL_Driver/Src/stm32f4xx_hal_adc.c ****   * are permitted provided that the following conditions are met:
 169:Drivers/STM32F4xx_HAL_Driver/Src/stm32f4xx_hal_adc.c ****   *   1. Redistributions of source code must retain the above copyright notice,
 170:Drivers/STM32F4xx_HAL_Driver/Src/stm32f4xx_hal_adc.c ****   *      this list of conditions and the following disclaimer.
 171:Drivers/STM32F4xx_HAL_Driver/Src/stm32f4xx_hal_adc.c ****   *   2. Redistributions in binary form must reproduce the above copyright notice,
 172:Drivers/STM32F4xx_HAL_Driver/Src/stm32f4xx_hal_adc.c ****   *      this list of conditions and the following disclaimer in the documentation
 173:Drivers/STM32F4xx_HAL_Driver/Src/stm32f4xx_hal_adc.c ****   *      and/or other materials provided with the distribution.
 174:Drivers/STM32F4xx_HAL_Driver/Src/stm32f4xx_hal_adc.c ****   *   3. Neither the name of STMicroelectronics nor the names of its contributors
 175:Drivers/STM32F4xx_HAL_Driver/Src/stm32f4xx_hal_adc.c ****   *      may be used to endorse or promote products derived from this software
 176:Drivers/STM32F4xx_HAL_Driver/Src/stm32f4xx_hal_adc.c ****   *      without specific prior written permission.
 177:Drivers/STM32F4xx_HAL_Driver/Src/stm32f4xx_hal_adc.c ****   *
 178:Drivers/STM32F4xx_HAL_Driver/Src/stm32f4xx_hal_adc.c ****   * THIS SOFTWARE IS PROVIDED BY THE COPYRIGHT HOLDERS AND CONTRIBUTORS "AS IS"
 179:Drivers/STM32F4xx_HAL_Driver/Src/stm32f4xx_hal_adc.c ****   * AND ANY EXPRESS OR IMPLIED WARRANTIES, INCLUDING, BUT NOT LIMITED TO, THE
 180:Drivers/STM32F4xx_HAL_Driver/Src/stm32f4xx_hal_adc.c ****   * IMPLIED WARRANTIES OF MERCHANTABILITY AND FITNESS FOR A PARTICULAR PURPOSE ARE
 181:Drivers/STM32F4xx_HAL_Driver/Src/stm32f4xx_hal_adc.c ****   * DISCLAIMED. IN NO EVENT SHALL THE COPYRIGHT HOLDER OR CONTRIBUTORS BE LIABLE
 182:Drivers/STM32F4xx_HAL_Driver/Src/stm32f4xx_hal_adc.c ****   * FOR ANY DIRECT, INDIRECT, INCIDENTAL, SPECIAL, EXEMPLARY, OR CONSEQUENTIAL
 183:Drivers/STM32F4xx_HAL_Driver/Src/stm32f4xx_hal_adc.c ****   * DAMAGES (INCLUDING, BUT NOT LIMITED TO, PROCUREMENT OF SUBSTITUTE GOODS OR
 184:Drivers/STM32F4xx_HAL_Driver/Src/stm32f4xx_hal_adc.c ****   * SERVICES; LOSS OF USE, DATA, OR PROFITS; OR BUSINESS INTERRUPTION) HOWEVER
 185:Drivers/STM32F4xx_HAL_Driver/Src/stm32f4xx_hal_adc.c ****   * CAUSED AND ON ANY THEORY OF LIABILITY, WHETHER IN CONTRACT, STRICT LIABILITY,
 186:Drivers/STM32F4xx_HAL_Driver/Src/stm32f4xx_hal_adc.c ****   * OR TORT (INCLUDING NEGLIGENCE OR OTHERWISE) ARISING IN ANY WAY OUT OF THE USE
 187:Drivers/STM32F4xx_HAL_Driver/Src/stm32f4xx_hal_adc.c ****   * OF THIS SOFTWARE, EVEN IF ADVISED OF THE POSSIBILITY OF SUCH DAMAGE.
 188:Drivers/STM32F4xx_HAL_Driver/Src/stm32f4xx_hal_adc.c ****   *
 189:Drivers/STM32F4xx_HAL_Driver/Src/stm32f4xx_hal_adc.c ****   ******************************************************************************
 190:Drivers/STM32F4xx_HAL_Driver/Src/stm32f4xx_hal_adc.c ****   */ 
 191:Drivers/STM32F4xx_HAL_Driver/Src/stm32f4xx_hal_adc.c **** 
 192:Drivers/STM32F4xx_HAL_Driver/Src/stm32f4xx_hal_adc.c **** /* Includes ------------------------------------------------------------------*/
 193:Drivers/STM32F4xx_HAL_Driver/Src/stm32f4xx_hal_adc.c **** #include "stm32f4xx_hal.h"
 194:Drivers/STM32F4xx_HAL_Driver/Src/stm32f4xx_hal_adc.c **** 
 195:Drivers/STM32F4xx_HAL_Driver/Src/stm32f4xx_hal_adc.c **** /** @addtogroup STM32F4xx_HAL_Driver
 196:Drivers/STM32F4xx_HAL_Driver/Src/stm32f4xx_hal_adc.c ****   * @{
 197:Drivers/STM32F4xx_HAL_Driver/Src/stm32f4xx_hal_adc.c ****   */
 198:Drivers/STM32F4xx_HAL_Driver/Src/stm32f4xx_hal_adc.c **** 
 199:Drivers/STM32F4xx_HAL_Driver/Src/stm32f4xx_hal_adc.c **** /** @defgroup ADC ADC
 200:Drivers/STM32F4xx_HAL_Driver/Src/stm32f4xx_hal_adc.c ****   * @brief ADC driver modules
 201:Drivers/STM32F4xx_HAL_Driver/Src/stm32f4xx_hal_adc.c ****   * @{
 202:Drivers/STM32F4xx_HAL_Driver/Src/stm32f4xx_hal_adc.c ****   */ 
 203:Drivers/STM32F4xx_HAL_Driver/Src/stm32f4xx_hal_adc.c **** 
ARM GAS  C:\Users\n-is\AppData\Local\Temp\cc3jxhl4.s 			page 5


 204:Drivers/STM32F4xx_HAL_Driver/Src/stm32f4xx_hal_adc.c **** #ifdef HAL_ADC_MODULE_ENABLED
 205:Drivers/STM32F4xx_HAL_Driver/Src/stm32f4xx_hal_adc.c ****     
 206:Drivers/STM32F4xx_HAL_Driver/Src/stm32f4xx_hal_adc.c **** /* Private typedef -----------------------------------------------------------*/
 207:Drivers/STM32F4xx_HAL_Driver/Src/stm32f4xx_hal_adc.c **** /* Private define ------------------------------------------------------------*/
 208:Drivers/STM32F4xx_HAL_Driver/Src/stm32f4xx_hal_adc.c **** /* Private macro -------------------------------------------------------------*/
 209:Drivers/STM32F4xx_HAL_Driver/Src/stm32f4xx_hal_adc.c **** /* Private variables ---------------------------------------------------------*/
 210:Drivers/STM32F4xx_HAL_Driver/Src/stm32f4xx_hal_adc.c **** /** @addtogroup ADC_Private_Functions
 211:Drivers/STM32F4xx_HAL_Driver/Src/stm32f4xx_hal_adc.c ****   * @{
 212:Drivers/STM32F4xx_HAL_Driver/Src/stm32f4xx_hal_adc.c ****   */
 213:Drivers/STM32F4xx_HAL_Driver/Src/stm32f4xx_hal_adc.c **** /* Private function prototypes -----------------------------------------------*/
 214:Drivers/STM32F4xx_HAL_Driver/Src/stm32f4xx_hal_adc.c **** static void ADC_Init(ADC_HandleTypeDef* hadc);
 215:Drivers/STM32F4xx_HAL_Driver/Src/stm32f4xx_hal_adc.c **** static void ADC_DMAConvCplt(DMA_HandleTypeDef *hdma);
 216:Drivers/STM32F4xx_HAL_Driver/Src/stm32f4xx_hal_adc.c **** static void ADC_DMAError(DMA_HandleTypeDef *hdma);
 217:Drivers/STM32F4xx_HAL_Driver/Src/stm32f4xx_hal_adc.c **** static void ADC_DMAHalfConvCplt(DMA_HandleTypeDef *hdma);
 218:Drivers/STM32F4xx_HAL_Driver/Src/stm32f4xx_hal_adc.c **** /**
 219:Drivers/STM32F4xx_HAL_Driver/Src/stm32f4xx_hal_adc.c ****   * @}
 220:Drivers/STM32F4xx_HAL_Driver/Src/stm32f4xx_hal_adc.c ****   */
 221:Drivers/STM32F4xx_HAL_Driver/Src/stm32f4xx_hal_adc.c **** /* Exported functions --------------------------------------------------------*/
 222:Drivers/STM32F4xx_HAL_Driver/Src/stm32f4xx_hal_adc.c **** /** @defgroup ADC_Exported_Functions ADC Exported Functions
 223:Drivers/STM32F4xx_HAL_Driver/Src/stm32f4xx_hal_adc.c ****   * @{
 224:Drivers/STM32F4xx_HAL_Driver/Src/stm32f4xx_hal_adc.c ****   */
 225:Drivers/STM32F4xx_HAL_Driver/Src/stm32f4xx_hal_adc.c **** 
 226:Drivers/STM32F4xx_HAL_Driver/Src/stm32f4xx_hal_adc.c **** /** @defgroup ADC_Exported_Functions_Group1 Initialization and de-initialization functions 
 227:Drivers/STM32F4xx_HAL_Driver/Src/stm32f4xx_hal_adc.c ****  *  @brief    Initialization and Configuration functions 
 228:Drivers/STM32F4xx_HAL_Driver/Src/stm32f4xx_hal_adc.c ****  *
 229:Drivers/STM32F4xx_HAL_Driver/Src/stm32f4xx_hal_adc.c **** @verbatim    
 230:Drivers/STM32F4xx_HAL_Driver/Src/stm32f4xx_hal_adc.c ****  ===============================================================================
 231:Drivers/STM32F4xx_HAL_Driver/Src/stm32f4xx_hal_adc.c ****               ##### Initialization and de-initialization functions #####
 232:Drivers/STM32F4xx_HAL_Driver/Src/stm32f4xx_hal_adc.c ****  ===============================================================================
 233:Drivers/STM32F4xx_HAL_Driver/Src/stm32f4xx_hal_adc.c ****     [..]  This section provides functions allowing to:
 234:Drivers/STM32F4xx_HAL_Driver/Src/stm32f4xx_hal_adc.c ****       (+) Initialize and configure the ADC. 
 235:Drivers/STM32F4xx_HAL_Driver/Src/stm32f4xx_hal_adc.c ****       (+) De-initialize the ADC. 
 236:Drivers/STM32F4xx_HAL_Driver/Src/stm32f4xx_hal_adc.c ****          
 237:Drivers/STM32F4xx_HAL_Driver/Src/stm32f4xx_hal_adc.c **** @endverbatim
 238:Drivers/STM32F4xx_HAL_Driver/Src/stm32f4xx_hal_adc.c ****   * @{
 239:Drivers/STM32F4xx_HAL_Driver/Src/stm32f4xx_hal_adc.c ****   */
 240:Drivers/STM32F4xx_HAL_Driver/Src/stm32f4xx_hal_adc.c **** 
 241:Drivers/STM32F4xx_HAL_Driver/Src/stm32f4xx_hal_adc.c **** /**
 242:Drivers/STM32F4xx_HAL_Driver/Src/stm32f4xx_hal_adc.c ****   * @brief  Initializes the ADCx peripheral according to the specified parameters 
 243:Drivers/STM32F4xx_HAL_Driver/Src/stm32f4xx_hal_adc.c ****   *         in the ADC_InitStruct and initializes the ADC MSP.
 244:Drivers/STM32F4xx_HAL_Driver/Src/stm32f4xx_hal_adc.c ****   *           
 245:Drivers/STM32F4xx_HAL_Driver/Src/stm32f4xx_hal_adc.c ****   * @note   This function is used to configure the global features of the ADC ( 
 246:Drivers/STM32F4xx_HAL_Driver/Src/stm32f4xx_hal_adc.c ****   *         ClockPrescaler, Resolution, Data Alignment and number of conversion), however,
 247:Drivers/STM32F4xx_HAL_Driver/Src/stm32f4xx_hal_adc.c ****   *         the rest of the configuration parameters are specific to the regular
 248:Drivers/STM32F4xx_HAL_Driver/Src/stm32f4xx_hal_adc.c ****   *         channels group (scan mode activation, continuous mode activation,
 249:Drivers/STM32F4xx_HAL_Driver/Src/stm32f4xx_hal_adc.c ****   *         External trigger source and edge, DMA continuous request after the  
 250:Drivers/STM32F4xx_HAL_Driver/Src/stm32f4xx_hal_adc.c ****   *         last transfer and End of conversion selection).
 251:Drivers/STM32F4xx_HAL_Driver/Src/stm32f4xx_hal_adc.c ****   *             
 252:Drivers/STM32F4xx_HAL_Driver/Src/stm32f4xx_hal_adc.c ****   * @param  hadc pointer to a ADC_HandleTypeDef structure that contains
 253:Drivers/STM32F4xx_HAL_Driver/Src/stm32f4xx_hal_adc.c ****   *         the configuration information for the specified ADC.  
 254:Drivers/STM32F4xx_HAL_Driver/Src/stm32f4xx_hal_adc.c ****   * @retval HAL status
 255:Drivers/STM32F4xx_HAL_Driver/Src/stm32f4xx_hal_adc.c ****   */
 256:Drivers/STM32F4xx_HAL_Driver/Src/stm32f4xx_hal_adc.c **** HAL_StatusTypeDef HAL_ADC_Init(ADC_HandleTypeDef* hadc)
 257:Drivers/STM32F4xx_HAL_Driver/Src/stm32f4xx_hal_adc.c **** {
 258:Drivers/STM32F4xx_HAL_Driver/Src/stm32f4xx_hal_adc.c ****   HAL_StatusTypeDef tmp_hal_status = HAL_OK;
 259:Drivers/STM32F4xx_HAL_Driver/Src/stm32f4xx_hal_adc.c ****   
 260:Drivers/STM32F4xx_HAL_Driver/Src/stm32f4xx_hal_adc.c ****   /* Check ADC handle */
ARM GAS  C:\Users\n-is\AppData\Local\Temp\cc3jxhl4.s 			page 6


 261:Drivers/STM32F4xx_HAL_Driver/Src/stm32f4xx_hal_adc.c ****   if(hadc == NULL)
 262:Drivers/STM32F4xx_HAL_Driver/Src/stm32f4xx_hal_adc.c ****   {
 263:Drivers/STM32F4xx_HAL_Driver/Src/stm32f4xx_hal_adc.c ****     return HAL_ERROR;
 264:Drivers/STM32F4xx_HAL_Driver/Src/stm32f4xx_hal_adc.c ****   }
 265:Drivers/STM32F4xx_HAL_Driver/Src/stm32f4xx_hal_adc.c ****   
 266:Drivers/STM32F4xx_HAL_Driver/Src/stm32f4xx_hal_adc.c ****   /* Check the parameters */
 267:Drivers/STM32F4xx_HAL_Driver/Src/stm32f4xx_hal_adc.c ****   assert_param(IS_ADC_ALL_INSTANCE(hadc->Instance));
 268:Drivers/STM32F4xx_HAL_Driver/Src/stm32f4xx_hal_adc.c ****   assert_param(IS_ADC_CLOCKPRESCALER(hadc->Init.ClockPrescaler));
 269:Drivers/STM32F4xx_HAL_Driver/Src/stm32f4xx_hal_adc.c ****   assert_param(IS_ADC_RESOLUTION(hadc->Init.Resolution));
 270:Drivers/STM32F4xx_HAL_Driver/Src/stm32f4xx_hal_adc.c ****   assert_param(IS_FUNCTIONAL_STATE(hadc->Init.ScanConvMode));
 271:Drivers/STM32F4xx_HAL_Driver/Src/stm32f4xx_hal_adc.c ****   assert_param(IS_FUNCTIONAL_STATE(hadc->Init.ContinuousConvMode));
 272:Drivers/STM32F4xx_HAL_Driver/Src/stm32f4xx_hal_adc.c ****   assert_param(IS_ADC_EXT_TRIG(hadc->Init.ExternalTrigConv));
 273:Drivers/STM32F4xx_HAL_Driver/Src/stm32f4xx_hal_adc.c ****   assert_param(IS_ADC_DATA_ALIGN(hadc->Init.DataAlign));
 274:Drivers/STM32F4xx_HAL_Driver/Src/stm32f4xx_hal_adc.c ****   assert_param(IS_ADC_REGULAR_LENGTH(hadc->Init.NbrOfConversion));
 275:Drivers/STM32F4xx_HAL_Driver/Src/stm32f4xx_hal_adc.c ****   assert_param(IS_FUNCTIONAL_STATE(hadc->Init.DMAContinuousRequests));
 276:Drivers/STM32F4xx_HAL_Driver/Src/stm32f4xx_hal_adc.c ****   assert_param(IS_ADC_EOCSelection(hadc->Init.EOCSelection));
 277:Drivers/STM32F4xx_HAL_Driver/Src/stm32f4xx_hal_adc.c ****   assert_param(IS_FUNCTIONAL_STATE(hadc->Init.DiscontinuousConvMode));
 278:Drivers/STM32F4xx_HAL_Driver/Src/stm32f4xx_hal_adc.c ****   
 279:Drivers/STM32F4xx_HAL_Driver/Src/stm32f4xx_hal_adc.c ****   if(hadc->Init.ExternalTrigConv != ADC_SOFTWARE_START)
 280:Drivers/STM32F4xx_HAL_Driver/Src/stm32f4xx_hal_adc.c ****   {
 281:Drivers/STM32F4xx_HAL_Driver/Src/stm32f4xx_hal_adc.c ****     assert_param(IS_ADC_EXT_TRIG_EDGE(hadc->Init.ExternalTrigConvEdge));
 282:Drivers/STM32F4xx_HAL_Driver/Src/stm32f4xx_hal_adc.c ****   }
 283:Drivers/STM32F4xx_HAL_Driver/Src/stm32f4xx_hal_adc.c ****   
 284:Drivers/STM32F4xx_HAL_Driver/Src/stm32f4xx_hal_adc.c ****   if(hadc->State == HAL_ADC_STATE_RESET)
 285:Drivers/STM32F4xx_HAL_Driver/Src/stm32f4xx_hal_adc.c ****   {
 286:Drivers/STM32F4xx_HAL_Driver/Src/stm32f4xx_hal_adc.c ****     /* Initialize ADC error code */
 287:Drivers/STM32F4xx_HAL_Driver/Src/stm32f4xx_hal_adc.c ****     ADC_CLEAR_ERRORCODE(hadc);
 288:Drivers/STM32F4xx_HAL_Driver/Src/stm32f4xx_hal_adc.c ****     
 289:Drivers/STM32F4xx_HAL_Driver/Src/stm32f4xx_hal_adc.c ****     /* Allocate lock resource and initialize it */
 290:Drivers/STM32F4xx_HAL_Driver/Src/stm32f4xx_hal_adc.c ****     hadc->Lock = HAL_UNLOCKED;
 291:Drivers/STM32F4xx_HAL_Driver/Src/stm32f4xx_hal_adc.c ****     
 292:Drivers/STM32F4xx_HAL_Driver/Src/stm32f4xx_hal_adc.c ****     /* Init the low level hardware */
 293:Drivers/STM32F4xx_HAL_Driver/Src/stm32f4xx_hal_adc.c ****     HAL_ADC_MspInit(hadc);
 294:Drivers/STM32F4xx_HAL_Driver/Src/stm32f4xx_hal_adc.c ****   }
 295:Drivers/STM32F4xx_HAL_Driver/Src/stm32f4xx_hal_adc.c ****   
 296:Drivers/STM32F4xx_HAL_Driver/Src/stm32f4xx_hal_adc.c ****   /* Configuration of ADC parameters if previous preliminary actions are      */ 
 297:Drivers/STM32F4xx_HAL_Driver/Src/stm32f4xx_hal_adc.c ****   /* correctly completed.                                                     */
 298:Drivers/STM32F4xx_HAL_Driver/Src/stm32f4xx_hal_adc.c ****   if (HAL_IS_BIT_CLR(hadc->State, HAL_ADC_STATE_ERROR_INTERNAL))
 299:Drivers/STM32F4xx_HAL_Driver/Src/stm32f4xx_hal_adc.c ****   {
 300:Drivers/STM32F4xx_HAL_Driver/Src/stm32f4xx_hal_adc.c ****     /* Set ADC state */
 301:Drivers/STM32F4xx_HAL_Driver/Src/stm32f4xx_hal_adc.c ****     ADC_STATE_CLR_SET(hadc->State,
 302:Drivers/STM32F4xx_HAL_Driver/Src/stm32f4xx_hal_adc.c ****                       HAL_ADC_STATE_REG_BUSY | HAL_ADC_STATE_INJ_BUSY,
 303:Drivers/STM32F4xx_HAL_Driver/Src/stm32f4xx_hal_adc.c ****                       HAL_ADC_STATE_BUSY_INTERNAL);
 304:Drivers/STM32F4xx_HAL_Driver/Src/stm32f4xx_hal_adc.c ****     
 305:Drivers/STM32F4xx_HAL_Driver/Src/stm32f4xx_hal_adc.c ****     /* Set ADC parameters */
 306:Drivers/STM32F4xx_HAL_Driver/Src/stm32f4xx_hal_adc.c ****     ADC_Init(hadc);
 307:Drivers/STM32F4xx_HAL_Driver/Src/stm32f4xx_hal_adc.c ****     
 308:Drivers/STM32F4xx_HAL_Driver/Src/stm32f4xx_hal_adc.c ****     /* Set ADC error code to none */
 309:Drivers/STM32F4xx_HAL_Driver/Src/stm32f4xx_hal_adc.c ****     ADC_CLEAR_ERRORCODE(hadc);
 310:Drivers/STM32F4xx_HAL_Driver/Src/stm32f4xx_hal_adc.c ****     
 311:Drivers/STM32F4xx_HAL_Driver/Src/stm32f4xx_hal_adc.c ****     /* Set the ADC state */
 312:Drivers/STM32F4xx_HAL_Driver/Src/stm32f4xx_hal_adc.c ****     ADC_STATE_CLR_SET(hadc->State,
 313:Drivers/STM32F4xx_HAL_Driver/Src/stm32f4xx_hal_adc.c ****                       HAL_ADC_STATE_BUSY_INTERNAL,
 314:Drivers/STM32F4xx_HAL_Driver/Src/stm32f4xx_hal_adc.c ****                       HAL_ADC_STATE_READY);
 315:Drivers/STM32F4xx_HAL_Driver/Src/stm32f4xx_hal_adc.c ****   }
 316:Drivers/STM32F4xx_HAL_Driver/Src/stm32f4xx_hal_adc.c ****   else
 317:Drivers/STM32F4xx_HAL_Driver/Src/stm32f4xx_hal_adc.c ****   {
ARM GAS  C:\Users\n-is\AppData\Local\Temp\cc3jxhl4.s 			page 7


 318:Drivers/STM32F4xx_HAL_Driver/Src/stm32f4xx_hal_adc.c ****     tmp_hal_status = HAL_ERROR;
 319:Drivers/STM32F4xx_HAL_Driver/Src/stm32f4xx_hal_adc.c ****   }
 320:Drivers/STM32F4xx_HAL_Driver/Src/stm32f4xx_hal_adc.c ****   
 321:Drivers/STM32F4xx_HAL_Driver/Src/stm32f4xx_hal_adc.c ****   /* Release Lock */
 322:Drivers/STM32F4xx_HAL_Driver/Src/stm32f4xx_hal_adc.c ****   __HAL_UNLOCK(hadc);
 323:Drivers/STM32F4xx_HAL_Driver/Src/stm32f4xx_hal_adc.c **** 
 324:Drivers/STM32F4xx_HAL_Driver/Src/stm32f4xx_hal_adc.c ****   /* Return function status */
 325:Drivers/STM32F4xx_HAL_Driver/Src/stm32f4xx_hal_adc.c ****   return tmp_hal_status;
 326:Drivers/STM32F4xx_HAL_Driver/Src/stm32f4xx_hal_adc.c **** }
 327:Drivers/STM32F4xx_HAL_Driver/Src/stm32f4xx_hal_adc.c **** 
 328:Drivers/STM32F4xx_HAL_Driver/Src/stm32f4xx_hal_adc.c **** /**
 329:Drivers/STM32F4xx_HAL_Driver/Src/stm32f4xx_hal_adc.c ****   * @brief  Deinitializes the ADCx peripheral registers to their default reset values. 
 330:Drivers/STM32F4xx_HAL_Driver/Src/stm32f4xx_hal_adc.c ****   * @param  hadc pointer to a ADC_HandleTypeDef structure that contains
 331:Drivers/STM32F4xx_HAL_Driver/Src/stm32f4xx_hal_adc.c ****   *         the configuration information for the specified ADC.  
 332:Drivers/STM32F4xx_HAL_Driver/Src/stm32f4xx_hal_adc.c ****   * @retval HAL status
 333:Drivers/STM32F4xx_HAL_Driver/Src/stm32f4xx_hal_adc.c ****   */
 334:Drivers/STM32F4xx_HAL_Driver/Src/stm32f4xx_hal_adc.c **** HAL_StatusTypeDef HAL_ADC_DeInit(ADC_HandleTypeDef* hadc)
 335:Drivers/STM32F4xx_HAL_Driver/Src/stm32f4xx_hal_adc.c **** {
 336:Drivers/STM32F4xx_HAL_Driver/Src/stm32f4xx_hal_adc.c ****   HAL_StatusTypeDef tmp_hal_status = HAL_OK;
 337:Drivers/STM32F4xx_HAL_Driver/Src/stm32f4xx_hal_adc.c ****   
 338:Drivers/STM32F4xx_HAL_Driver/Src/stm32f4xx_hal_adc.c ****   /* Check ADC handle */
 339:Drivers/STM32F4xx_HAL_Driver/Src/stm32f4xx_hal_adc.c ****   if(hadc == NULL)
 340:Drivers/STM32F4xx_HAL_Driver/Src/stm32f4xx_hal_adc.c ****   {
 341:Drivers/STM32F4xx_HAL_Driver/Src/stm32f4xx_hal_adc.c ****     return HAL_ERROR;
 342:Drivers/STM32F4xx_HAL_Driver/Src/stm32f4xx_hal_adc.c ****   }
 343:Drivers/STM32F4xx_HAL_Driver/Src/stm32f4xx_hal_adc.c ****   
 344:Drivers/STM32F4xx_HAL_Driver/Src/stm32f4xx_hal_adc.c ****   /* Check the parameters */
 345:Drivers/STM32F4xx_HAL_Driver/Src/stm32f4xx_hal_adc.c ****   assert_param(IS_ADC_ALL_INSTANCE(hadc->Instance));
 346:Drivers/STM32F4xx_HAL_Driver/Src/stm32f4xx_hal_adc.c ****   
 347:Drivers/STM32F4xx_HAL_Driver/Src/stm32f4xx_hal_adc.c ****   /* Set ADC state */
 348:Drivers/STM32F4xx_HAL_Driver/Src/stm32f4xx_hal_adc.c ****   SET_BIT(hadc->State, HAL_ADC_STATE_BUSY_INTERNAL);
 349:Drivers/STM32F4xx_HAL_Driver/Src/stm32f4xx_hal_adc.c ****   
 350:Drivers/STM32F4xx_HAL_Driver/Src/stm32f4xx_hal_adc.c ****   /* Stop potential conversion on going, on regular and injected groups */
 351:Drivers/STM32F4xx_HAL_Driver/Src/stm32f4xx_hal_adc.c ****   /* Disable ADC peripheral */
 352:Drivers/STM32F4xx_HAL_Driver/Src/stm32f4xx_hal_adc.c ****   __HAL_ADC_DISABLE(hadc);
 353:Drivers/STM32F4xx_HAL_Driver/Src/stm32f4xx_hal_adc.c ****   
 354:Drivers/STM32F4xx_HAL_Driver/Src/stm32f4xx_hal_adc.c ****   /* Configuration of ADC parameters if previous preliminary actions are      */ 
 355:Drivers/STM32F4xx_HAL_Driver/Src/stm32f4xx_hal_adc.c ****   /* correctly completed.                                                     */
 356:Drivers/STM32F4xx_HAL_Driver/Src/stm32f4xx_hal_adc.c ****   if(HAL_IS_BIT_CLR(hadc->Instance->CR2, ADC_CR2_ADON))
 357:Drivers/STM32F4xx_HAL_Driver/Src/stm32f4xx_hal_adc.c ****   {
 358:Drivers/STM32F4xx_HAL_Driver/Src/stm32f4xx_hal_adc.c ****     /* DeInit the low level hardware */
 359:Drivers/STM32F4xx_HAL_Driver/Src/stm32f4xx_hal_adc.c ****     HAL_ADC_MspDeInit(hadc);
 360:Drivers/STM32F4xx_HAL_Driver/Src/stm32f4xx_hal_adc.c ****     
 361:Drivers/STM32F4xx_HAL_Driver/Src/stm32f4xx_hal_adc.c ****     /* Set ADC error code to none */
 362:Drivers/STM32F4xx_HAL_Driver/Src/stm32f4xx_hal_adc.c ****     ADC_CLEAR_ERRORCODE(hadc);
 363:Drivers/STM32F4xx_HAL_Driver/Src/stm32f4xx_hal_adc.c ****     
 364:Drivers/STM32F4xx_HAL_Driver/Src/stm32f4xx_hal_adc.c ****     /* Set ADC state */
 365:Drivers/STM32F4xx_HAL_Driver/Src/stm32f4xx_hal_adc.c ****     hadc->State = HAL_ADC_STATE_RESET;
 366:Drivers/STM32F4xx_HAL_Driver/Src/stm32f4xx_hal_adc.c ****   }
 367:Drivers/STM32F4xx_HAL_Driver/Src/stm32f4xx_hal_adc.c ****   
 368:Drivers/STM32F4xx_HAL_Driver/Src/stm32f4xx_hal_adc.c ****   /* Process unlocked */
 369:Drivers/STM32F4xx_HAL_Driver/Src/stm32f4xx_hal_adc.c ****   __HAL_UNLOCK(hadc);
 370:Drivers/STM32F4xx_HAL_Driver/Src/stm32f4xx_hal_adc.c ****   
 371:Drivers/STM32F4xx_HAL_Driver/Src/stm32f4xx_hal_adc.c ****   /* Return function status */
 372:Drivers/STM32F4xx_HAL_Driver/Src/stm32f4xx_hal_adc.c ****   return tmp_hal_status;
 373:Drivers/STM32F4xx_HAL_Driver/Src/stm32f4xx_hal_adc.c **** }
 374:Drivers/STM32F4xx_HAL_Driver/Src/stm32f4xx_hal_adc.c **** 
ARM GAS  C:\Users\n-is\AppData\Local\Temp\cc3jxhl4.s 			page 8


 375:Drivers/STM32F4xx_HAL_Driver/Src/stm32f4xx_hal_adc.c **** /**
 376:Drivers/STM32F4xx_HAL_Driver/Src/stm32f4xx_hal_adc.c ****   * @brief  Initializes the ADC MSP.
 377:Drivers/STM32F4xx_HAL_Driver/Src/stm32f4xx_hal_adc.c ****   * @param  hadc pointer to a ADC_HandleTypeDef structure that contains
 378:Drivers/STM32F4xx_HAL_Driver/Src/stm32f4xx_hal_adc.c ****   *         the configuration information for the specified ADC.  
 379:Drivers/STM32F4xx_HAL_Driver/Src/stm32f4xx_hal_adc.c ****   * @retval None
 380:Drivers/STM32F4xx_HAL_Driver/Src/stm32f4xx_hal_adc.c ****   */
 381:Drivers/STM32F4xx_HAL_Driver/Src/stm32f4xx_hal_adc.c **** __weak void HAL_ADC_MspInit(ADC_HandleTypeDef* hadc)
 382:Drivers/STM32F4xx_HAL_Driver/Src/stm32f4xx_hal_adc.c **** {
 383:Drivers/STM32F4xx_HAL_Driver/Src/stm32f4xx_hal_adc.c ****   /* Prevent unused argument(s) compilation warning */
 384:Drivers/STM32F4xx_HAL_Driver/Src/stm32f4xx_hal_adc.c ****   UNUSED(hadc);
 385:Drivers/STM32F4xx_HAL_Driver/Src/stm32f4xx_hal_adc.c ****   /* NOTE : This function Should not be modified, when the callback is needed,
 386:Drivers/STM32F4xx_HAL_Driver/Src/stm32f4xx_hal_adc.c ****             the HAL_ADC_MspInit could be implemented in the user file
 387:Drivers/STM32F4xx_HAL_Driver/Src/stm32f4xx_hal_adc.c ****    */ 
 388:Drivers/STM32F4xx_HAL_Driver/Src/stm32f4xx_hal_adc.c **** }
 389:Drivers/STM32F4xx_HAL_Driver/Src/stm32f4xx_hal_adc.c **** 
 390:Drivers/STM32F4xx_HAL_Driver/Src/stm32f4xx_hal_adc.c **** /**
 391:Drivers/STM32F4xx_HAL_Driver/Src/stm32f4xx_hal_adc.c ****   * @brief  DeInitializes the ADC MSP.
 392:Drivers/STM32F4xx_HAL_Driver/Src/stm32f4xx_hal_adc.c ****   * @param  hadc pointer to a ADC_HandleTypeDef structure that contains
 393:Drivers/STM32F4xx_HAL_Driver/Src/stm32f4xx_hal_adc.c ****   *         the configuration information for the specified ADC.  
 394:Drivers/STM32F4xx_HAL_Driver/Src/stm32f4xx_hal_adc.c ****   * @retval None
 395:Drivers/STM32F4xx_HAL_Driver/Src/stm32f4xx_hal_adc.c ****   */
 396:Drivers/STM32F4xx_HAL_Driver/Src/stm32f4xx_hal_adc.c **** __weak void HAL_ADC_MspDeInit(ADC_HandleTypeDef* hadc)
 397:Drivers/STM32F4xx_HAL_Driver/Src/stm32f4xx_hal_adc.c **** {
 398:Drivers/STM32F4xx_HAL_Driver/Src/stm32f4xx_hal_adc.c ****   /* Prevent unused argument(s) compilation warning */
 399:Drivers/STM32F4xx_HAL_Driver/Src/stm32f4xx_hal_adc.c ****   UNUSED(hadc);
 400:Drivers/STM32F4xx_HAL_Driver/Src/stm32f4xx_hal_adc.c ****   /* NOTE : This function Should not be modified, when the callback is needed,
 401:Drivers/STM32F4xx_HAL_Driver/Src/stm32f4xx_hal_adc.c ****             the HAL_ADC_MspDeInit could be implemented in the user file
 402:Drivers/STM32F4xx_HAL_Driver/Src/stm32f4xx_hal_adc.c ****    */ 
 403:Drivers/STM32F4xx_HAL_Driver/Src/stm32f4xx_hal_adc.c **** }
 404:Drivers/STM32F4xx_HAL_Driver/Src/stm32f4xx_hal_adc.c **** 
 405:Drivers/STM32F4xx_HAL_Driver/Src/stm32f4xx_hal_adc.c **** /**
 406:Drivers/STM32F4xx_HAL_Driver/Src/stm32f4xx_hal_adc.c ****   * @}
 407:Drivers/STM32F4xx_HAL_Driver/Src/stm32f4xx_hal_adc.c ****   */
 408:Drivers/STM32F4xx_HAL_Driver/Src/stm32f4xx_hal_adc.c **** 
 409:Drivers/STM32F4xx_HAL_Driver/Src/stm32f4xx_hal_adc.c **** /** @defgroup ADC_Exported_Functions_Group2 IO operation functions
 410:Drivers/STM32F4xx_HAL_Driver/Src/stm32f4xx_hal_adc.c ****  *  @brief    IO operation functions 
 411:Drivers/STM32F4xx_HAL_Driver/Src/stm32f4xx_hal_adc.c ****  *
 412:Drivers/STM32F4xx_HAL_Driver/Src/stm32f4xx_hal_adc.c **** @verbatim   
 413:Drivers/STM32F4xx_HAL_Driver/Src/stm32f4xx_hal_adc.c ****  ===============================================================================
 414:Drivers/STM32F4xx_HAL_Driver/Src/stm32f4xx_hal_adc.c ****              ##### IO operation functions #####
 415:Drivers/STM32F4xx_HAL_Driver/Src/stm32f4xx_hal_adc.c ****  ===============================================================================  
 416:Drivers/STM32F4xx_HAL_Driver/Src/stm32f4xx_hal_adc.c ****     [..]  This section provides functions allowing to:
 417:Drivers/STM32F4xx_HAL_Driver/Src/stm32f4xx_hal_adc.c ****       (+) Start conversion of regular channel.
 418:Drivers/STM32F4xx_HAL_Driver/Src/stm32f4xx_hal_adc.c ****       (+) Stop conversion of regular channel.
 419:Drivers/STM32F4xx_HAL_Driver/Src/stm32f4xx_hal_adc.c ****       (+) Start conversion of regular channel and enable interrupt.
 420:Drivers/STM32F4xx_HAL_Driver/Src/stm32f4xx_hal_adc.c ****       (+) Stop conversion of regular channel and disable interrupt.
 421:Drivers/STM32F4xx_HAL_Driver/Src/stm32f4xx_hal_adc.c ****       (+) Start conversion of regular channel and enable DMA transfer.
 422:Drivers/STM32F4xx_HAL_Driver/Src/stm32f4xx_hal_adc.c ****       (+) Stop conversion of regular channel and disable DMA transfer.
 423:Drivers/STM32F4xx_HAL_Driver/Src/stm32f4xx_hal_adc.c ****       (+) Handle ADC interrupt request. 
 424:Drivers/STM32F4xx_HAL_Driver/Src/stm32f4xx_hal_adc.c ****                
 425:Drivers/STM32F4xx_HAL_Driver/Src/stm32f4xx_hal_adc.c **** @endverbatim
 426:Drivers/STM32F4xx_HAL_Driver/Src/stm32f4xx_hal_adc.c ****   * @{
 427:Drivers/STM32F4xx_HAL_Driver/Src/stm32f4xx_hal_adc.c ****   */
 428:Drivers/STM32F4xx_HAL_Driver/Src/stm32f4xx_hal_adc.c **** 
 429:Drivers/STM32F4xx_HAL_Driver/Src/stm32f4xx_hal_adc.c **** /**
 430:Drivers/STM32F4xx_HAL_Driver/Src/stm32f4xx_hal_adc.c ****   * @brief  Enables ADC and starts conversion of the regular channels.
 431:Drivers/STM32F4xx_HAL_Driver/Src/stm32f4xx_hal_adc.c ****   * @param  hadc pointer to a ADC_HandleTypeDef structure that contains
ARM GAS  C:\Users\n-is\AppData\Local\Temp\cc3jxhl4.s 			page 9


 432:Drivers/STM32F4xx_HAL_Driver/Src/stm32f4xx_hal_adc.c ****   *         the configuration information for the specified ADC.
 433:Drivers/STM32F4xx_HAL_Driver/Src/stm32f4xx_hal_adc.c ****   * @retval HAL status
 434:Drivers/STM32F4xx_HAL_Driver/Src/stm32f4xx_hal_adc.c ****   */
 435:Drivers/STM32F4xx_HAL_Driver/Src/stm32f4xx_hal_adc.c **** HAL_StatusTypeDef HAL_ADC_Start(ADC_HandleTypeDef* hadc)
 436:Drivers/STM32F4xx_HAL_Driver/Src/stm32f4xx_hal_adc.c **** {
 437:Drivers/STM32F4xx_HAL_Driver/Src/stm32f4xx_hal_adc.c ****   __IO uint32_t counter = 0U;
 438:Drivers/STM32F4xx_HAL_Driver/Src/stm32f4xx_hal_adc.c ****   ADC_Common_TypeDef *tmpADC_Common;
 439:Drivers/STM32F4xx_HAL_Driver/Src/stm32f4xx_hal_adc.c ****   
 440:Drivers/STM32F4xx_HAL_Driver/Src/stm32f4xx_hal_adc.c ****   /* Check the parameters */
 441:Drivers/STM32F4xx_HAL_Driver/Src/stm32f4xx_hal_adc.c ****   assert_param(IS_FUNCTIONAL_STATE(hadc->Init.ContinuousConvMode));
 442:Drivers/STM32F4xx_HAL_Driver/Src/stm32f4xx_hal_adc.c ****   assert_param(IS_ADC_EXT_TRIG_EDGE(hadc->Init.ExternalTrigConvEdge)); 
 443:Drivers/STM32F4xx_HAL_Driver/Src/stm32f4xx_hal_adc.c ****   
 444:Drivers/STM32F4xx_HAL_Driver/Src/stm32f4xx_hal_adc.c ****   /* Process locked */
 445:Drivers/STM32F4xx_HAL_Driver/Src/stm32f4xx_hal_adc.c ****   __HAL_LOCK(hadc);
 446:Drivers/STM32F4xx_HAL_Driver/Src/stm32f4xx_hal_adc.c ****   
 447:Drivers/STM32F4xx_HAL_Driver/Src/stm32f4xx_hal_adc.c ****   /* Enable the ADC peripheral */
 448:Drivers/STM32F4xx_HAL_Driver/Src/stm32f4xx_hal_adc.c ****   /* Check if ADC peripheral is disabled in order to enable it and wait during 
 449:Drivers/STM32F4xx_HAL_Driver/Src/stm32f4xx_hal_adc.c ****   Tstab time the ADC's stabilization */
 450:Drivers/STM32F4xx_HAL_Driver/Src/stm32f4xx_hal_adc.c ****   if((hadc->Instance->CR2 & ADC_CR2_ADON) != ADC_CR2_ADON)
 451:Drivers/STM32F4xx_HAL_Driver/Src/stm32f4xx_hal_adc.c ****   {  
 452:Drivers/STM32F4xx_HAL_Driver/Src/stm32f4xx_hal_adc.c ****     /* Enable the Peripheral */
 453:Drivers/STM32F4xx_HAL_Driver/Src/stm32f4xx_hal_adc.c ****     __HAL_ADC_ENABLE(hadc);
 454:Drivers/STM32F4xx_HAL_Driver/Src/stm32f4xx_hal_adc.c ****     
 455:Drivers/STM32F4xx_HAL_Driver/Src/stm32f4xx_hal_adc.c ****     /* Delay for ADC stabilization time */
 456:Drivers/STM32F4xx_HAL_Driver/Src/stm32f4xx_hal_adc.c ****     /* Compute number of CPU cycles to wait for */
 457:Drivers/STM32F4xx_HAL_Driver/Src/stm32f4xx_hal_adc.c ****     counter = (ADC_STAB_DELAY_US * (SystemCoreClock / 1000000U));
 458:Drivers/STM32F4xx_HAL_Driver/Src/stm32f4xx_hal_adc.c ****     while(counter != 0U)
 459:Drivers/STM32F4xx_HAL_Driver/Src/stm32f4xx_hal_adc.c ****     {
 460:Drivers/STM32F4xx_HAL_Driver/Src/stm32f4xx_hal_adc.c ****       counter--;
 461:Drivers/STM32F4xx_HAL_Driver/Src/stm32f4xx_hal_adc.c ****     }
 462:Drivers/STM32F4xx_HAL_Driver/Src/stm32f4xx_hal_adc.c ****   }
 463:Drivers/STM32F4xx_HAL_Driver/Src/stm32f4xx_hal_adc.c ****   
 464:Drivers/STM32F4xx_HAL_Driver/Src/stm32f4xx_hal_adc.c ****   /* Start conversion if ADC is effectively enabled */
 465:Drivers/STM32F4xx_HAL_Driver/Src/stm32f4xx_hal_adc.c ****   if(HAL_IS_BIT_SET(hadc->Instance->CR2, ADC_CR2_ADON))
 466:Drivers/STM32F4xx_HAL_Driver/Src/stm32f4xx_hal_adc.c ****   {
 467:Drivers/STM32F4xx_HAL_Driver/Src/stm32f4xx_hal_adc.c ****     /* Set ADC state                                                          */
 468:Drivers/STM32F4xx_HAL_Driver/Src/stm32f4xx_hal_adc.c ****     /* - Clear state bitfield related to regular group conversion results     */
 469:Drivers/STM32F4xx_HAL_Driver/Src/stm32f4xx_hal_adc.c ****     /* - Set state bitfield related to regular group operation                */
 470:Drivers/STM32F4xx_HAL_Driver/Src/stm32f4xx_hal_adc.c ****     ADC_STATE_CLR_SET(hadc->State,
 471:Drivers/STM32F4xx_HAL_Driver/Src/stm32f4xx_hal_adc.c ****                       HAL_ADC_STATE_READY | HAL_ADC_STATE_REG_EOC | HAL_ADC_STATE_REG_OVR,
 472:Drivers/STM32F4xx_HAL_Driver/Src/stm32f4xx_hal_adc.c ****                       HAL_ADC_STATE_REG_BUSY);
 473:Drivers/STM32F4xx_HAL_Driver/Src/stm32f4xx_hal_adc.c ****     
 474:Drivers/STM32F4xx_HAL_Driver/Src/stm32f4xx_hal_adc.c ****     /* If conversions on group regular are also triggering group injected,    */
 475:Drivers/STM32F4xx_HAL_Driver/Src/stm32f4xx_hal_adc.c ****     /* update ADC state.                                                      */
 476:Drivers/STM32F4xx_HAL_Driver/Src/stm32f4xx_hal_adc.c ****     if (READ_BIT(hadc->Instance->CR1, ADC_CR1_JAUTO) != RESET)
 477:Drivers/STM32F4xx_HAL_Driver/Src/stm32f4xx_hal_adc.c ****     {
 478:Drivers/STM32F4xx_HAL_Driver/Src/stm32f4xx_hal_adc.c ****       ADC_STATE_CLR_SET(hadc->State, HAL_ADC_STATE_INJ_EOC, HAL_ADC_STATE_INJ_BUSY);  
 479:Drivers/STM32F4xx_HAL_Driver/Src/stm32f4xx_hal_adc.c ****     }
 480:Drivers/STM32F4xx_HAL_Driver/Src/stm32f4xx_hal_adc.c ****     
 481:Drivers/STM32F4xx_HAL_Driver/Src/stm32f4xx_hal_adc.c ****     /* State machine update: Check if an injected conversion is ongoing */
 482:Drivers/STM32F4xx_HAL_Driver/Src/stm32f4xx_hal_adc.c ****     if (HAL_IS_BIT_SET(hadc->State, HAL_ADC_STATE_INJ_BUSY))
 483:Drivers/STM32F4xx_HAL_Driver/Src/stm32f4xx_hal_adc.c ****     {
 484:Drivers/STM32F4xx_HAL_Driver/Src/stm32f4xx_hal_adc.c ****       /* Reset ADC error code fields related to conversions on group regular */
 485:Drivers/STM32F4xx_HAL_Driver/Src/stm32f4xx_hal_adc.c ****       CLEAR_BIT(hadc->ErrorCode, (HAL_ADC_ERROR_OVR | HAL_ADC_ERROR_DMA));         
 486:Drivers/STM32F4xx_HAL_Driver/Src/stm32f4xx_hal_adc.c ****     }
 487:Drivers/STM32F4xx_HAL_Driver/Src/stm32f4xx_hal_adc.c ****     else
 488:Drivers/STM32F4xx_HAL_Driver/Src/stm32f4xx_hal_adc.c ****     {
ARM GAS  C:\Users\n-is\AppData\Local\Temp\cc3jxhl4.s 			page 10


 489:Drivers/STM32F4xx_HAL_Driver/Src/stm32f4xx_hal_adc.c ****       /* Reset ADC all error code fields */
 490:Drivers/STM32F4xx_HAL_Driver/Src/stm32f4xx_hal_adc.c ****       ADC_CLEAR_ERRORCODE(hadc);
 491:Drivers/STM32F4xx_HAL_Driver/Src/stm32f4xx_hal_adc.c ****     } 
 492:Drivers/STM32F4xx_HAL_Driver/Src/stm32f4xx_hal_adc.c **** 
 493:Drivers/STM32F4xx_HAL_Driver/Src/stm32f4xx_hal_adc.c ****     /* Process unlocked */
 494:Drivers/STM32F4xx_HAL_Driver/Src/stm32f4xx_hal_adc.c ****     /* Unlock before starting ADC conversions: in case of potential           */
 495:Drivers/STM32F4xx_HAL_Driver/Src/stm32f4xx_hal_adc.c ****     /* interruption, to let the process to ADC IRQ Handler.                   */
 496:Drivers/STM32F4xx_HAL_Driver/Src/stm32f4xx_hal_adc.c ****     __HAL_UNLOCK(hadc);
 497:Drivers/STM32F4xx_HAL_Driver/Src/stm32f4xx_hal_adc.c **** 
 498:Drivers/STM32F4xx_HAL_Driver/Src/stm32f4xx_hal_adc.c ****     /* Pointer to the common control register to which is belonging hadc    */
 499:Drivers/STM32F4xx_HAL_Driver/Src/stm32f4xx_hal_adc.c ****     /* (Depending on STM32F4 product, there may be up to 3 ADCs and 1 common */
 500:Drivers/STM32F4xx_HAL_Driver/Src/stm32f4xx_hal_adc.c ****     /* control register)                                                    */
 501:Drivers/STM32F4xx_HAL_Driver/Src/stm32f4xx_hal_adc.c ****     tmpADC_Common = ADC_COMMON_REGISTER(hadc);
 502:Drivers/STM32F4xx_HAL_Driver/Src/stm32f4xx_hal_adc.c **** 
 503:Drivers/STM32F4xx_HAL_Driver/Src/stm32f4xx_hal_adc.c ****     /* Clear regular group conversion flag and overrun flag */
 504:Drivers/STM32F4xx_HAL_Driver/Src/stm32f4xx_hal_adc.c ****     /* (To ensure of no unknown state from potential previous ADC operations) */
 505:Drivers/STM32F4xx_HAL_Driver/Src/stm32f4xx_hal_adc.c ****     __HAL_ADC_CLEAR_FLAG(hadc, ADC_FLAG_EOC | ADC_FLAG_OVR);
 506:Drivers/STM32F4xx_HAL_Driver/Src/stm32f4xx_hal_adc.c ****     
 507:Drivers/STM32F4xx_HAL_Driver/Src/stm32f4xx_hal_adc.c ****     /* Check if Multimode enabled */
 508:Drivers/STM32F4xx_HAL_Driver/Src/stm32f4xx_hal_adc.c ****     if(HAL_IS_BIT_CLR(tmpADC_Common->CCR, ADC_CCR_MULTI))
 509:Drivers/STM32F4xx_HAL_Driver/Src/stm32f4xx_hal_adc.c ****     {
 510:Drivers/STM32F4xx_HAL_Driver/Src/stm32f4xx_hal_adc.c ****       /* if no external trigger present enable software conversion of regular channels */
 511:Drivers/STM32F4xx_HAL_Driver/Src/stm32f4xx_hal_adc.c ****       if((hadc->Instance->CR2 & ADC_CR2_EXTEN) == RESET) 
 512:Drivers/STM32F4xx_HAL_Driver/Src/stm32f4xx_hal_adc.c ****       {
 513:Drivers/STM32F4xx_HAL_Driver/Src/stm32f4xx_hal_adc.c ****         /* Enable the selected ADC software conversion for regular group */
 514:Drivers/STM32F4xx_HAL_Driver/Src/stm32f4xx_hal_adc.c ****         hadc->Instance->CR2 |= (uint32_t)ADC_CR2_SWSTART;
 515:Drivers/STM32F4xx_HAL_Driver/Src/stm32f4xx_hal_adc.c ****       }
 516:Drivers/STM32F4xx_HAL_Driver/Src/stm32f4xx_hal_adc.c ****     }
 517:Drivers/STM32F4xx_HAL_Driver/Src/stm32f4xx_hal_adc.c ****     else
 518:Drivers/STM32F4xx_HAL_Driver/Src/stm32f4xx_hal_adc.c ****     {
 519:Drivers/STM32F4xx_HAL_Driver/Src/stm32f4xx_hal_adc.c ****       /* if instance of handle correspond to ADC1 and  no external trigger present enable software 
 520:Drivers/STM32F4xx_HAL_Driver/Src/stm32f4xx_hal_adc.c ****       if((hadc->Instance == ADC1) && ((hadc->Instance->CR2 & ADC_CR2_EXTEN) == RESET))
 521:Drivers/STM32F4xx_HAL_Driver/Src/stm32f4xx_hal_adc.c ****       {
 522:Drivers/STM32F4xx_HAL_Driver/Src/stm32f4xx_hal_adc.c ****         /* Enable the selected ADC software conversion for regular group */
 523:Drivers/STM32F4xx_HAL_Driver/Src/stm32f4xx_hal_adc.c ****           hadc->Instance->CR2 |= (uint32_t)ADC_CR2_SWSTART;
 524:Drivers/STM32F4xx_HAL_Driver/Src/stm32f4xx_hal_adc.c ****       }
 525:Drivers/STM32F4xx_HAL_Driver/Src/stm32f4xx_hal_adc.c ****     }
 526:Drivers/STM32F4xx_HAL_Driver/Src/stm32f4xx_hal_adc.c ****   }
 527:Drivers/STM32F4xx_HAL_Driver/Src/stm32f4xx_hal_adc.c ****   
 528:Drivers/STM32F4xx_HAL_Driver/Src/stm32f4xx_hal_adc.c ****   /* Return function status */
 529:Drivers/STM32F4xx_HAL_Driver/Src/stm32f4xx_hal_adc.c ****   return HAL_OK;
 530:Drivers/STM32F4xx_HAL_Driver/Src/stm32f4xx_hal_adc.c **** }
 531:Drivers/STM32F4xx_HAL_Driver/Src/stm32f4xx_hal_adc.c **** 
 532:Drivers/STM32F4xx_HAL_Driver/Src/stm32f4xx_hal_adc.c **** /**
 533:Drivers/STM32F4xx_HAL_Driver/Src/stm32f4xx_hal_adc.c ****   * @brief  Disables ADC and stop conversion of regular channels.
 534:Drivers/STM32F4xx_HAL_Driver/Src/stm32f4xx_hal_adc.c ****   * 
 535:Drivers/STM32F4xx_HAL_Driver/Src/stm32f4xx_hal_adc.c ****   * @note   Caution: This function will stop also injected channels.  
 536:Drivers/STM32F4xx_HAL_Driver/Src/stm32f4xx_hal_adc.c ****   *
 537:Drivers/STM32F4xx_HAL_Driver/Src/stm32f4xx_hal_adc.c ****   * @param  hadc pointer to a ADC_HandleTypeDef structure that contains
 538:Drivers/STM32F4xx_HAL_Driver/Src/stm32f4xx_hal_adc.c ****   *         the configuration information for the specified ADC.
 539:Drivers/STM32F4xx_HAL_Driver/Src/stm32f4xx_hal_adc.c ****   *
 540:Drivers/STM32F4xx_HAL_Driver/Src/stm32f4xx_hal_adc.c ****   * @retval HAL status.
 541:Drivers/STM32F4xx_HAL_Driver/Src/stm32f4xx_hal_adc.c ****   */
 542:Drivers/STM32F4xx_HAL_Driver/Src/stm32f4xx_hal_adc.c **** HAL_StatusTypeDef HAL_ADC_Stop(ADC_HandleTypeDef* hadc)
 543:Drivers/STM32F4xx_HAL_Driver/Src/stm32f4xx_hal_adc.c **** {
 544:Drivers/STM32F4xx_HAL_Driver/Src/stm32f4xx_hal_adc.c ****   /* Check the parameters */
 545:Drivers/STM32F4xx_HAL_Driver/Src/stm32f4xx_hal_adc.c ****   assert_param(IS_ADC_ALL_INSTANCE(hadc->Instance));
ARM GAS  C:\Users\n-is\AppData\Local\Temp\cc3jxhl4.s 			page 11


 546:Drivers/STM32F4xx_HAL_Driver/Src/stm32f4xx_hal_adc.c ****   
 547:Drivers/STM32F4xx_HAL_Driver/Src/stm32f4xx_hal_adc.c ****   /* Process locked */
 548:Drivers/STM32F4xx_HAL_Driver/Src/stm32f4xx_hal_adc.c ****   __HAL_LOCK(hadc);
 549:Drivers/STM32F4xx_HAL_Driver/Src/stm32f4xx_hal_adc.c ****   
 550:Drivers/STM32F4xx_HAL_Driver/Src/stm32f4xx_hal_adc.c ****   /* Stop potential conversion on going, on regular and injected groups */
 551:Drivers/STM32F4xx_HAL_Driver/Src/stm32f4xx_hal_adc.c ****   /* Disable ADC peripheral */
 552:Drivers/STM32F4xx_HAL_Driver/Src/stm32f4xx_hal_adc.c ****   __HAL_ADC_DISABLE(hadc);
 553:Drivers/STM32F4xx_HAL_Driver/Src/stm32f4xx_hal_adc.c ****   
 554:Drivers/STM32F4xx_HAL_Driver/Src/stm32f4xx_hal_adc.c ****   /* Check if ADC is effectively disabled */
 555:Drivers/STM32F4xx_HAL_Driver/Src/stm32f4xx_hal_adc.c ****   if(HAL_IS_BIT_CLR(hadc->Instance->CR2, ADC_CR2_ADON))
 556:Drivers/STM32F4xx_HAL_Driver/Src/stm32f4xx_hal_adc.c ****   {
 557:Drivers/STM32F4xx_HAL_Driver/Src/stm32f4xx_hal_adc.c ****     /* Set ADC state */
 558:Drivers/STM32F4xx_HAL_Driver/Src/stm32f4xx_hal_adc.c ****     ADC_STATE_CLR_SET(hadc->State,
 559:Drivers/STM32F4xx_HAL_Driver/Src/stm32f4xx_hal_adc.c ****                       HAL_ADC_STATE_REG_BUSY | HAL_ADC_STATE_INJ_BUSY,
 560:Drivers/STM32F4xx_HAL_Driver/Src/stm32f4xx_hal_adc.c ****                       HAL_ADC_STATE_READY);
 561:Drivers/STM32F4xx_HAL_Driver/Src/stm32f4xx_hal_adc.c ****   }
 562:Drivers/STM32F4xx_HAL_Driver/Src/stm32f4xx_hal_adc.c ****   
 563:Drivers/STM32F4xx_HAL_Driver/Src/stm32f4xx_hal_adc.c ****   /* Process unlocked */
 564:Drivers/STM32F4xx_HAL_Driver/Src/stm32f4xx_hal_adc.c ****   __HAL_UNLOCK(hadc);
 565:Drivers/STM32F4xx_HAL_Driver/Src/stm32f4xx_hal_adc.c ****   
 566:Drivers/STM32F4xx_HAL_Driver/Src/stm32f4xx_hal_adc.c ****   /* Return function status */
 567:Drivers/STM32F4xx_HAL_Driver/Src/stm32f4xx_hal_adc.c ****   return HAL_OK;
 568:Drivers/STM32F4xx_HAL_Driver/Src/stm32f4xx_hal_adc.c **** }
 569:Drivers/STM32F4xx_HAL_Driver/Src/stm32f4xx_hal_adc.c **** 
 570:Drivers/STM32F4xx_HAL_Driver/Src/stm32f4xx_hal_adc.c **** /**
 571:Drivers/STM32F4xx_HAL_Driver/Src/stm32f4xx_hal_adc.c ****   * @brief  Poll for regular conversion complete
 572:Drivers/STM32F4xx_HAL_Driver/Src/stm32f4xx_hal_adc.c ****   * @note   ADC conversion flags EOS (end of sequence) and EOC (end of
 573:Drivers/STM32F4xx_HAL_Driver/Src/stm32f4xx_hal_adc.c ****   *         conversion) are cleared by this function.
 574:Drivers/STM32F4xx_HAL_Driver/Src/stm32f4xx_hal_adc.c ****   * @note   This function cannot be used in a particular setup: ADC configured 
 575:Drivers/STM32F4xx_HAL_Driver/Src/stm32f4xx_hal_adc.c ****   *         in DMA mode and polling for end of each conversion (ADC init
 576:Drivers/STM32F4xx_HAL_Driver/Src/stm32f4xx_hal_adc.c ****   *         parameter "EOCSelection" set to ADC_EOC_SINGLE_CONV).
 577:Drivers/STM32F4xx_HAL_Driver/Src/stm32f4xx_hal_adc.c ****   *         In this case, DMA resets the flag EOC and polling cannot be
 578:Drivers/STM32F4xx_HAL_Driver/Src/stm32f4xx_hal_adc.c ****   *         performed on each conversion. Nevertheless, polling can still 
 579:Drivers/STM32F4xx_HAL_Driver/Src/stm32f4xx_hal_adc.c ****   *         be performed on the complete sequence.
 580:Drivers/STM32F4xx_HAL_Driver/Src/stm32f4xx_hal_adc.c ****   * @param  hadc pointer to a ADC_HandleTypeDef structure that contains
 581:Drivers/STM32F4xx_HAL_Driver/Src/stm32f4xx_hal_adc.c ****   *         the configuration information for the specified ADC.
 582:Drivers/STM32F4xx_HAL_Driver/Src/stm32f4xx_hal_adc.c ****   * @param  Timeout Timeout value in millisecond.  
 583:Drivers/STM32F4xx_HAL_Driver/Src/stm32f4xx_hal_adc.c ****   * @retval HAL status
 584:Drivers/STM32F4xx_HAL_Driver/Src/stm32f4xx_hal_adc.c ****   */
 585:Drivers/STM32F4xx_HAL_Driver/Src/stm32f4xx_hal_adc.c **** HAL_StatusTypeDef HAL_ADC_PollForConversion(ADC_HandleTypeDef* hadc, uint32_t Timeout)
 586:Drivers/STM32F4xx_HAL_Driver/Src/stm32f4xx_hal_adc.c **** {
 587:Drivers/STM32F4xx_HAL_Driver/Src/stm32f4xx_hal_adc.c ****   uint32_t tickstart = 0U;
 588:Drivers/STM32F4xx_HAL_Driver/Src/stm32f4xx_hal_adc.c ****  
 589:Drivers/STM32F4xx_HAL_Driver/Src/stm32f4xx_hal_adc.c ****   /* Verification that ADC configuration is compliant with polling for      */
 590:Drivers/STM32F4xx_HAL_Driver/Src/stm32f4xx_hal_adc.c ****   /* each conversion:                                                       */
 591:Drivers/STM32F4xx_HAL_Driver/Src/stm32f4xx_hal_adc.c ****   /* Particular case is ADC configured in DMA mode and ADC sequencer with   */
 592:Drivers/STM32F4xx_HAL_Driver/Src/stm32f4xx_hal_adc.c ****   /* several ranks and polling for end of each conversion.                  */
 593:Drivers/STM32F4xx_HAL_Driver/Src/stm32f4xx_hal_adc.c ****   /* For code simplicity sake, this particular case is generalized to       */
 594:Drivers/STM32F4xx_HAL_Driver/Src/stm32f4xx_hal_adc.c ****   /* ADC configured in DMA mode and polling for end of each conversion.     */
 595:Drivers/STM32F4xx_HAL_Driver/Src/stm32f4xx_hal_adc.c ****   if (HAL_IS_BIT_SET(hadc->Instance->CR2, ADC_CR2_EOCS) &&
 596:Drivers/STM32F4xx_HAL_Driver/Src/stm32f4xx_hal_adc.c ****       HAL_IS_BIT_SET(hadc->Instance->CR2, ADC_CR2_DMA)    )
 597:Drivers/STM32F4xx_HAL_Driver/Src/stm32f4xx_hal_adc.c ****   {
 598:Drivers/STM32F4xx_HAL_Driver/Src/stm32f4xx_hal_adc.c ****     /* Update ADC state machine to error */
 599:Drivers/STM32F4xx_HAL_Driver/Src/stm32f4xx_hal_adc.c ****     SET_BIT(hadc->State, HAL_ADC_STATE_ERROR_CONFIG);
 600:Drivers/STM32F4xx_HAL_Driver/Src/stm32f4xx_hal_adc.c ****     
 601:Drivers/STM32F4xx_HAL_Driver/Src/stm32f4xx_hal_adc.c ****     /* Process unlocked */
 602:Drivers/STM32F4xx_HAL_Driver/Src/stm32f4xx_hal_adc.c ****     __HAL_UNLOCK(hadc);
ARM GAS  C:\Users\n-is\AppData\Local\Temp\cc3jxhl4.s 			page 12


 603:Drivers/STM32F4xx_HAL_Driver/Src/stm32f4xx_hal_adc.c ****     
 604:Drivers/STM32F4xx_HAL_Driver/Src/stm32f4xx_hal_adc.c ****     return HAL_ERROR;
 605:Drivers/STM32F4xx_HAL_Driver/Src/stm32f4xx_hal_adc.c ****   }
 606:Drivers/STM32F4xx_HAL_Driver/Src/stm32f4xx_hal_adc.c **** 
 607:Drivers/STM32F4xx_HAL_Driver/Src/stm32f4xx_hal_adc.c ****   /* Get tick */ 
 608:Drivers/STM32F4xx_HAL_Driver/Src/stm32f4xx_hal_adc.c ****   tickstart = HAL_GetTick();
 609:Drivers/STM32F4xx_HAL_Driver/Src/stm32f4xx_hal_adc.c **** 
 610:Drivers/STM32F4xx_HAL_Driver/Src/stm32f4xx_hal_adc.c ****   /* Check End of conversion flag */
 611:Drivers/STM32F4xx_HAL_Driver/Src/stm32f4xx_hal_adc.c ****   while(!(__HAL_ADC_GET_FLAG(hadc, ADC_FLAG_EOC)))
 612:Drivers/STM32F4xx_HAL_Driver/Src/stm32f4xx_hal_adc.c ****   {
 613:Drivers/STM32F4xx_HAL_Driver/Src/stm32f4xx_hal_adc.c ****     /* Check if timeout is disabled (set to infinite wait) */
 614:Drivers/STM32F4xx_HAL_Driver/Src/stm32f4xx_hal_adc.c ****     if(Timeout != HAL_MAX_DELAY)
 615:Drivers/STM32F4xx_HAL_Driver/Src/stm32f4xx_hal_adc.c ****     {
 616:Drivers/STM32F4xx_HAL_Driver/Src/stm32f4xx_hal_adc.c ****       if((Timeout == 0U) || ((HAL_GetTick() - tickstart ) > Timeout))
 617:Drivers/STM32F4xx_HAL_Driver/Src/stm32f4xx_hal_adc.c ****       {
 618:Drivers/STM32F4xx_HAL_Driver/Src/stm32f4xx_hal_adc.c ****         /* Update ADC state machine to timeout */
 619:Drivers/STM32F4xx_HAL_Driver/Src/stm32f4xx_hal_adc.c ****         SET_BIT(hadc->State, HAL_ADC_STATE_TIMEOUT);
 620:Drivers/STM32F4xx_HAL_Driver/Src/stm32f4xx_hal_adc.c ****         
 621:Drivers/STM32F4xx_HAL_Driver/Src/stm32f4xx_hal_adc.c ****         /* Process unlocked */
 622:Drivers/STM32F4xx_HAL_Driver/Src/stm32f4xx_hal_adc.c ****         __HAL_UNLOCK(hadc);
 623:Drivers/STM32F4xx_HAL_Driver/Src/stm32f4xx_hal_adc.c ****         
 624:Drivers/STM32F4xx_HAL_Driver/Src/stm32f4xx_hal_adc.c ****         return HAL_TIMEOUT;
 625:Drivers/STM32F4xx_HAL_Driver/Src/stm32f4xx_hal_adc.c ****       }
 626:Drivers/STM32F4xx_HAL_Driver/Src/stm32f4xx_hal_adc.c ****     }
 627:Drivers/STM32F4xx_HAL_Driver/Src/stm32f4xx_hal_adc.c ****   }
 628:Drivers/STM32F4xx_HAL_Driver/Src/stm32f4xx_hal_adc.c ****   
 629:Drivers/STM32F4xx_HAL_Driver/Src/stm32f4xx_hal_adc.c ****   /* Clear regular group conversion flag */
 630:Drivers/STM32F4xx_HAL_Driver/Src/stm32f4xx_hal_adc.c ****   __HAL_ADC_CLEAR_FLAG(hadc, ADC_FLAG_STRT | ADC_FLAG_EOC);
 631:Drivers/STM32F4xx_HAL_Driver/Src/stm32f4xx_hal_adc.c ****   
 632:Drivers/STM32F4xx_HAL_Driver/Src/stm32f4xx_hal_adc.c ****   /* Update ADC state machine */
 633:Drivers/STM32F4xx_HAL_Driver/Src/stm32f4xx_hal_adc.c ****   SET_BIT(hadc->State, HAL_ADC_STATE_REG_EOC);
 634:Drivers/STM32F4xx_HAL_Driver/Src/stm32f4xx_hal_adc.c ****   
 635:Drivers/STM32F4xx_HAL_Driver/Src/stm32f4xx_hal_adc.c ****   /* Determine whether any further conversion upcoming on group regular       */
 636:Drivers/STM32F4xx_HAL_Driver/Src/stm32f4xx_hal_adc.c ****   /* by external trigger, continuous mode or scan sequence on going.          */
 637:Drivers/STM32F4xx_HAL_Driver/Src/stm32f4xx_hal_adc.c ****   /* Note: On STM32F4, there is no independent flag of end of sequence.       */
 638:Drivers/STM32F4xx_HAL_Driver/Src/stm32f4xx_hal_adc.c ****   /*       The test of scan sequence on going is done either with scan        */
 639:Drivers/STM32F4xx_HAL_Driver/Src/stm32f4xx_hal_adc.c ****   /*       sequence disabled or with end of conversion flag set to            */
 640:Drivers/STM32F4xx_HAL_Driver/Src/stm32f4xx_hal_adc.c ****   /*       of end of sequence.                                                */
 641:Drivers/STM32F4xx_HAL_Driver/Src/stm32f4xx_hal_adc.c ****   if(ADC_IS_SOFTWARE_START_REGULAR(hadc)                   &&
 642:Drivers/STM32F4xx_HAL_Driver/Src/stm32f4xx_hal_adc.c ****      (hadc->Init.ContinuousConvMode == DISABLE)            &&
 643:Drivers/STM32F4xx_HAL_Driver/Src/stm32f4xx_hal_adc.c ****      (HAL_IS_BIT_CLR(hadc->Instance->SQR1, ADC_SQR1_L) ||
 644:Drivers/STM32F4xx_HAL_Driver/Src/stm32f4xx_hal_adc.c ****       HAL_IS_BIT_CLR(hadc->Instance->CR2, ADC_CR2_EOCS)  )   )
 645:Drivers/STM32F4xx_HAL_Driver/Src/stm32f4xx_hal_adc.c ****   {
 646:Drivers/STM32F4xx_HAL_Driver/Src/stm32f4xx_hal_adc.c ****     /* Set ADC state */
 647:Drivers/STM32F4xx_HAL_Driver/Src/stm32f4xx_hal_adc.c ****     CLEAR_BIT(hadc->State, HAL_ADC_STATE_REG_BUSY);   
 648:Drivers/STM32F4xx_HAL_Driver/Src/stm32f4xx_hal_adc.c ****     
 649:Drivers/STM32F4xx_HAL_Driver/Src/stm32f4xx_hal_adc.c ****     if (HAL_IS_BIT_CLR(hadc->State, HAL_ADC_STATE_INJ_BUSY))
 650:Drivers/STM32F4xx_HAL_Driver/Src/stm32f4xx_hal_adc.c ****     { 
 651:Drivers/STM32F4xx_HAL_Driver/Src/stm32f4xx_hal_adc.c ****       SET_BIT(hadc->State, HAL_ADC_STATE_READY);
 652:Drivers/STM32F4xx_HAL_Driver/Src/stm32f4xx_hal_adc.c ****     }
 653:Drivers/STM32F4xx_HAL_Driver/Src/stm32f4xx_hal_adc.c ****   }
 654:Drivers/STM32F4xx_HAL_Driver/Src/stm32f4xx_hal_adc.c ****   
 655:Drivers/STM32F4xx_HAL_Driver/Src/stm32f4xx_hal_adc.c ****   /* Return ADC state */
 656:Drivers/STM32F4xx_HAL_Driver/Src/stm32f4xx_hal_adc.c ****   return HAL_OK;
 657:Drivers/STM32F4xx_HAL_Driver/Src/stm32f4xx_hal_adc.c **** }
 658:Drivers/STM32F4xx_HAL_Driver/Src/stm32f4xx_hal_adc.c **** 
 659:Drivers/STM32F4xx_HAL_Driver/Src/stm32f4xx_hal_adc.c **** /**
ARM GAS  C:\Users\n-is\AppData\Local\Temp\cc3jxhl4.s 			page 13


 660:Drivers/STM32F4xx_HAL_Driver/Src/stm32f4xx_hal_adc.c ****   * @brief  Poll for conversion event
 661:Drivers/STM32F4xx_HAL_Driver/Src/stm32f4xx_hal_adc.c ****   * @param  hadc pointer to a ADC_HandleTypeDef structure that contains
 662:Drivers/STM32F4xx_HAL_Driver/Src/stm32f4xx_hal_adc.c ****   *         the configuration information for the specified ADC.
 663:Drivers/STM32F4xx_HAL_Driver/Src/stm32f4xx_hal_adc.c ****   * @param  EventType the ADC event type.
 664:Drivers/STM32F4xx_HAL_Driver/Src/stm32f4xx_hal_adc.c ****   *          This parameter can be one of the following values:
 665:Drivers/STM32F4xx_HAL_Driver/Src/stm32f4xx_hal_adc.c ****   *            @arg ADC_AWD_EVENT: ADC Analog watch Dog event.
 666:Drivers/STM32F4xx_HAL_Driver/Src/stm32f4xx_hal_adc.c ****   *            @arg ADC_OVR_EVENT: ADC Overrun event.
 667:Drivers/STM32F4xx_HAL_Driver/Src/stm32f4xx_hal_adc.c ****   * @param  Timeout Timeout value in millisecond.   
 668:Drivers/STM32F4xx_HAL_Driver/Src/stm32f4xx_hal_adc.c ****   * @retval HAL status
 669:Drivers/STM32F4xx_HAL_Driver/Src/stm32f4xx_hal_adc.c ****   */
 670:Drivers/STM32F4xx_HAL_Driver/Src/stm32f4xx_hal_adc.c **** HAL_StatusTypeDef HAL_ADC_PollForEvent(ADC_HandleTypeDef* hadc, uint32_t EventType, uint32_t Timeou
 671:Drivers/STM32F4xx_HAL_Driver/Src/stm32f4xx_hal_adc.c **** {
 672:Drivers/STM32F4xx_HAL_Driver/Src/stm32f4xx_hal_adc.c ****   uint32_t tickstart = 0U;
 673:Drivers/STM32F4xx_HAL_Driver/Src/stm32f4xx_hal_adc.c ****   
 674:Drivers/STM32F4xx_HAL_Driver/Src/stm32f4xx_hal_adc.c ****   /* Check the parameters */
 675:Drivers/STM32F4xx_HAL_Driver/Src/stm32f4xx_hal_adc.c ****   assert_param(IS_ADC_ALL_INSTANCE(hadc->Instance));
 676:Drivers/STM32F4xx_HAL_Driver/Src/stm32f4xx_hal_adc.c ****   assert_param(IS_ADC_EVENT_TYPE(EventType));
 677:Drivers/STM32F4xx_HAL_Driver/Src/stm32f4xx_hal_adc.c **** 
 678:Drivers/STM32F4xx_HAL_Driver/Src/stm32f4xx_hal_adc.c ****   /* Get tick */
 679:Drivers/STM32F4xx_HAL_Driver/Src/stm32f4xx_hal_adc.c ****   tickstart = HAL_GetTick();
 680:Drivers/STM32F4xx_HAL_Driver/Src/stm32f4xx_hal_adc.c **** 
 681:Drivers/STM32F4xx_HAL_Driver/Src/stm32f4xx_hal_adc.c ****   /* Check selected event flag */
 682:Drivers/STM32F4xx_HAL_Driver/Src/stm32f4xx_hal_adc.c ****   while(!(__HAL_ADC_GET_FLAG(hadc,EventType)))
 683:Drivers/STM32F4xx_HAL_Driver/Src/stm32f4xx_hal_adc.c ****   {
 684:Drivers/STM32F4xx_HAL_Driver/Src/stm32f4xx_hal_adc.c ****     /* Check for the Timeout */
 685:Drivers/STM32F4xx_HAL_Driver/Src/stm32f4xx_hal_adc.c ****     if(Timeout != HAL_MAX_DELAY)
 686:Drivers/STM32F4xx_HAL_Driver/Src/stm32f4xx_hal_adc.c ****     {
 687:Drivers/STM32F4xx_HAL_Driver/Src/stm32f4xx_hal_adc.c ****       if((Timeout == 0U) || ((HAL_GetTick() - tickstart ) > Timeout))
 688:Drivers/STM32F4xx_HAL_Driver/Src/stm32f4xx_hal_adc.c ****       {
 689:Drivers/STM32F4xx_HAL_Driver/Src/stm32f4xx_hal_adc.c ****         /* Update ADC state machine to timeout */
 690:Drivers/STM32F4xx_HAL_Driver/Src/stm32f4xx_hal_adc.c ****         SET_BIT(hadc->State, HAL_ADC_STATE_TIMEOUT);
 691:Drivers/STM32F4xx_HAL_Driver/Src/stm32f4xx_hal_adc.c ****         
 692:Drivers/STM32F4xx_HAL_Driver/Src/stm32f4xx_hal_adc.c ****         /* Process unlocked */
 693:Drivers/STM32F4xx_HAL_Driver/Src/stm32f4xx_hal_adc.c ****         __HAL_UNLOCK(hadc);
 694:Drivers/STM32F4xx_HAL_Driver/Src/stm32f4xx_hal_adc.c ****         
 695:Drivers/STM32F4xx_HAL_Driver/Src/stm32f4xx_hal_adc.c ****         return HAL_TIMEOUT;
 696:Drivers/STM32F4xx_HAL_Driver/Src/stm32f4xx_hal_adc.c ****       }
 697:Drivers/STM32F4xx_HAL_Driver/Src/stm32f4xx_hal_adc.c ****     }
 698:Drivers/STM32F4xx_HAL_Driver/Src/stm32f4xx_hal_adc.c ****   }
 699:Drivers/STM32F4xx_HAL_Driver/Src/stm32f4xx_hal_adc.c ****   
 700:Drivers/STM32F4xx_HAL_Driver/Src/stm32f4xx_hal_adc.c ****   /* Analog watchdog (level out of window) event */
 701:Drivers/STM32F4xx_HAL_Driver/Src/stm32f4xx_hal_adc.c ****   if(EventType == ADC_AWD_EVENT)
 702:Drivers/STM32F4xx_HAL_Driver/Src/stm32f4xx_hal_adc.c ****   {
 703:Drivers/STM32F4xx_HAL_Driver/Src/stm32f4xx_hal_adc.c ****     /* Set ADC state */
 704:Drivers/STM32F4xx_HAL_Driver/Src/stm32f4xx_hal_adc.c ****     SET_BIT(hadc->State, HAL_ADC_STATE_AWD1);
 705:Drivers/STM32F4xx_HAL_Driver/Src/stm32f4xx_hal_adc.c ****       
 706:Drivers/STM32F4xx_HAL_Driver/Src/stm32f4xx_hal_adc.c ****     /* Clear ADC analog watchdog flag */
 707:Drivers/STM32F4xx_HAL_Driver/Src/stm32f4xx_hal_adc.c ****     __HAL_ADC_CLEAR_FLAG(hadc, ADC_FLAG_AWD);
 708:Drivers/STM32F4xx_HAL_Driver/Src/stm32f4xx_hal_adc.c ****   }
 709:Drivers/STM32F4xx_HAL_Driver/Src/stm32f4xx_hal_adc.c ****   /* Overrun event */
 710:Drivers/STM32F4xx_HAL_Driver/Src/stm32f4xx_hal_adc.c ****   else
 711:Drivers/STM32F4xx_HAL_Driver/Src/stm32f4xx_hal_adc.c ****   {
 712:Drivers/STM32F4xx_HAL_Driver/Src/stm32f4xx_hal_adc.c ****     /* Set ADC state */
 713:Drivers/STM32F4xx_HAL_Driver/Src/stm32f4xx_hal_adc.c ****     SET_BIT(hadc->State, HAL_ADC_STATE_REG_OVR);
 714:Drivers/STM32F4xx_HAL_Driver/Src/stm32f4xx_hal_adc.c ****     /* Set ADC error code to overrun */
 715:Drivers/STM32F4xx_HAL_Driver/Src/stm32f4xx_hal_adc.c ****     SET_BIT(hadc->ErrorCode, HAL_ADC_ERROR_OVR);
 716:Drivers/STM32F4xx_HAL_Driver/Src/stm32f4xx_hal_adc.c ****     
ARM GAS  C:\Users\n-is\AppData\Local\Temp\cc3jxhl4.s 			page 14


 717:Drivers/STM32F4xx_HAL_Driver/Src/stm32f4xx_hal_adc.c ****     /* Clear ADC overrun flag */
 718:Drivers/STM32F4xx_HAL_Driver/Src/stm32f4xx_hal_adc.c ****     __HAL_ADC_CLEAR_FLAG(hadc, ADC_FLAG_OVR);
 719:Drivers/STM32F4xx_HAL_Driver/Src/stm32f4xx_hal_adc.c ****   }
 720:Drivers/STM32F4xx_HAL_Driver/Src/stm32f4xx_hal_adc.c ****   
 721:Drivers/STM32F4xx_HAL_Driver/Src/stm32f4xx_hal_adc.c ****   /* Return ADC state */
 722:Drivers/STM32F4xx_HAL_Driver/Src/stm32f4xx_hal_adc.c ****   return HAL_OK;
 723:Drivers/STM32F4xx_HAL_Driver/Src/stm32f4xx_hal_adc.c **** }
 724:Drivers/STM32F4xx_HAL_Driver/Src/stm32f4xx_hal_adc.c **** 
 725:Drivers/STM32F4xx_HAL_Driver/Src/stm32f4xx_hal_adc.c **** 
 726:Drivers/STM32F4xx_HAL_Driver/Src/stm32f4xx_hal_adc.c **** /**
 727:Drivers/STM32F4xx_HAL_Driver/Src/stm32f4xx_hal_adc.c ****   * @brief  Enables the interrupt and starts ADC conversion of regular channels.
 728:Drivers/STM32F4xx_HAL_Driver/Src/stm32f4xx_hal_adc.c ****   * @param  hadc pointer to a ADC_HandleTypeDef structure that contains
 729:Drivers/STM32F4xx_HAL_Driver/Src/stm32f4xx_hal_adc.c ****   *         the configuration information for the specified ADC.
 730:Drivers/STM32F4xx_HAL_Driver/Src/stm32f4xx_hal_adc.c ****   * @retval HAL status.
 731:Drivers/STM32F4xx_HAL_Driver/Src/stm32f4xx_hal_adc.c ****   */
 732:Drivers/STM32F4xx_HAL_Driver/Src/stm32f4xx_hal_adc.c **** HAL_StatusTypeDef HAL_ADC_Start_IT(ADC_HandleTypeDef* hadc)
 733:Drivers/STM32F4xx_HAL_Driver/Src/stm32f4xx_hal_adc.c **** {
 734:Drivers/STM32F4xx_HAL_Driver/Src/stm32f4xx_hal_adc.c ****   __IO uint32_t counter = 0U;
 735:Drivers/STM32F4xx_HAL_Driver/Src/stm32f4xx_hal_adc.c ****   ADC_Common_TypeDef *tmpADC_Common;
 736:Drivers/STM32F4xx_HAL_Driver/Src/stm32f4xx_hal_adc.c ****   
 737:Drivers/STM32F4xx_HAL_Driver/Src/stm32f4xx_hal_adc.c ****   /* Check the parameters */
 738:Drivers/STM32F4xx_HAL_Driver/Src/stm32f4xx_hal_adc.c ****   assert_param(IS_FUNCTIONAL_STATE(hadc->Init.ContinuousConvMode));
 739:Drivers/STM32F4xx_HAL_Driver/Src/stm32f4xx_hal_adc.c ****   assert_param(IS_ADC_EXT_TRIG_EDGE(hadc->Init.ExternalTrigConvEdge)); 
 740:Drivers/STM32F4xx_HAL_Driver/Src/stm32f4xx_hal_adc.c ****   
 741:Drivers/STM32F4xx_HAL_Driver/Src/stm32f4xx_hal_adc.c ****   /* Process locked */
 742:Drivers/STM32F4xx_HAL_Driver/Src/stm32f4xx_hal_adc.c ****   __HAL_LOCK(hadc);
 743:Drivers/STM32F4xx_HAL_Driver/Src/stm32f4xx_hal_adc.c ****   
 744:Drivers/STM32F4xx_HAL_Driver/Src/stm32f4xx_hal_adc.c ****   /* Enable the ADC peripheral */
 745:Drivers/STM32F4xx_HAL_Driver/Src/stm32f4xx_hal_adc.c ****   /* Check if ADC peripheral is disabled in order to enable it and wait during 
 746:Drivers/STM32F4xx_HAL_Driver/Src/stm32f4xx_hal_adc.c ****   Tstab time the ADC's stabilization */
 747:Drivers/STM32F4xx_HAL_Driver/Src/stm32f4xx_hal_adc.c ****   if((hadc->Instance->CR2 & ADC_CR2_ADON) != ADC_CR2_ADON)
 748:Drivers/STM32F4xx_HAL_Driver/Src/stm32f4xx_hal_adc.c ****   {  
 749:Drivers/STM32F4xx_HAL_Driver/Src/stm32f4xx_hal_adc.c ****     /* Enable the Peripheral */
 750:Drivers/STM32F4xx_HAL_Driver/Src/stm32f4xx_hal_adc.c ****     __HAL_ADC_ENABLE(hadc);
 751:Drivers/STM32F4xx_HAL_Driver/Src/stm32f4xx_hal_adc.c ****     
 752:Drivers/STM32F4xx_HAL_Driver/Src/stm32f4xx_hal_adc.c ****     /* Delay for ADC stabilization time */
 753:Drivers/STM32F4xx_HAL_Driver/Src/stm32f4xx_hal_adc.c ****     /* Compute number of CPU cycles to wait for */
 754:Drivers/STM32F4xx_HAL_Driver/Src/stm32f4xx_hal_adc.c ****     counter = (ADC_STAB_DELAY_US * (SystemCoreClock / 1000000U));
 755:Drivers/STM32F4xx_HAL_Driver/Src/stm32f4xx_hal_adc.c ****     while(counter != 0U)
 756:Drivers/STM32F4xx_HAL_Driver/Src/stm32f4xx_hal_adc.c ****     {
 757:Drivers/STM32F4xx_HAL_Driver/Src/stm32f4xx_hal_adc.c ****       counter--;
 758:Drivers/STM32F4xx_HAL_Driver/Src/stm32f4xx_hal_adc.c ****     }
 759:Drivers/STM32F4xx_HAL_Driver/Src/stm32f4xx_hal_adc.c ****   }
 760:Drivers/STM32F4xx_HAL_Driver/Src/stm32f4xx_hal_adc.c ****   
 761:Drivers/STM32F4xx_HAL_Driver/Src/stm32f4xx_hal_adc.c ****   /* Start conversion if ADC is effectively enabled */
 762:Drivers/STM32F4xx_HAL_Driver/Src/stm32f4xx_hal_adc.c ****   if(HAL_IS_BIT_SET(hadc->Instance->CR2, ADC_CR2_ADON))
 763:Drivers/STM32F4xx_HAL_Driver/Src/stm32f4xx_hal_adc.c ****   {
 764:Drivers/STM32F4xx_HAL_Driver/Src/stm32f4xx_hal_adc.c ****     /* Set ADC state                                                          */
 765:Drivers/STM32F4xx_HAL_Driver/Src/stm32f4xx_hal_adc.c ****     /* - Clear state bitfield related to regular group conversion results     */
 766:Drivers/STM32F4xx_HAL_Driver/Src/stm32f4xx_hal_adc.c ****     /* - Set state bitfield related to regular group operation                */
 767:Drivers/STM32F4xx_HAL_Driver/Src/stm32f4xx_hal_adc.c ****     ADC_STATE_CLR_SET(hadc->State,
 768:Drivers/STM32F4xx_HAL_Driver/Src/stm32f4xx_hal_adc.c ****                       HAL_ADC_STATE_READY | HAL_ADC_STATE_REG_EOC | HAL_ADC_STATE_REG_OVR,
 769:Drivers/STM32F4xx_HAL_Driver/Src/stm32f4xx_hal_adc.c ****                       HAL_ADC_STATE_REG_BUSY);
 770:Drivers/STM32F4xx_HAL_Driver/Src/stm32f4xx_hal_adc.c ****     
 771:Drivers/STM32F4xx_HAL_Driver/Src/stm32f4xx_hal_adc.c ****     /* If conversions on group regular are also triggering group injected,    */
 772:Drivers/STM32F4xx_HAL_Driver/Src/stm32f4xx_hal_adc.c ****     /* update ADC state.                                                      */
 773:Drivers/STM32F4xx_HAL_Driver/Src/stm32f4xx_hal_adc.c ****     if (READ_BIT(hadc->Instance->CR1, ADC_CR1_JAUTO) != RESET)
ARM GAS  C:\Users\n-is\AppData\Local\Temp\cc3jxhl4.s 			page 15


 774:Drivers/STM32F4xx_HAL_Driver/Src/stm32f4xx_hal_adc.c ****     {
 775:Drivers/STM32F4xx_HAL_Driver/Src/stm32f4xx_hal_adc.c ****       ADC_STATE_CLR_SET(hadc->State, HAL_ADC_STATE_INJ_EOC, HAL_ADC_STATE_INJ_BUSY);  
 776:Drivers/STM32F4xx_HAL_Driver/Src/stm32f4xx_hal_adc.c ****     }
 777:Drivers/STM32F4xx_HAL_Driver/Src/stm32f4xx_hal_adc.c ****     
 778:Drivers/STM32F4xx_HAL_Driver/Src/stm32f4xx_hal_adc.c ****     /* State machine update: Check if an injected conversion is ongoing */
 779:Drivers/STM32F4xx_HAL_Driver/Src/stm32f4xx_hal_adc.c ****     if (HAL_IS_BIT_SET(hadc->State, HAL_ADC_STATE_INJ_BUSY))
 780:Drivers/STM32F4xx_HAL_Driver/Src/stm32f4xx_hal_adc.c ****     {
 781:Drivers/STM32F4xx_HAL_Driver/Src/stm32f4xx_hal_adc.c ****       /* Reset ADC error code fields related to conversions on group regular */
 782:Drivers/STM32F4xx_HAL_Driver/Src/stm32f4xx_hal_adc.c ****       CLEAR_BIT(hadc->ErrorCode, (HAL_ADC_ERROR_OVR | HAL_ADC_ERROR_DMA));         
 783:Drivers/STM32F4xx_HAL_Driver/Src/stm32f4xx_hal_adc.c ****     }
 784:Drivers/STM32F4xx_HAL_Driver/Src/stm32f4xx_hal_adc.c ****     else
 785:Drivers/STM32F4xx_HAL_Driver/Src/stm32f4xx_hal_adc.c ****     {
 786:Drivers/STM32F4xx_HAL_Driver/Src/stm32f4xx_hal_adc.c ****       /* Reset ADC all error code fields */
 787:Drivers/STM32F4xx_HAL_Driver/Src/stm32f4xx_hal_adc.c ****       ADC_CLEAR_ERRORCODE(hadc);
 788:Drivers/STM32F4xx_HAL_Driver/Src/stm32f4xx_hal_adc.c ****     }
 789:Drivers/STM32F4xx_HAL_Driver/Src/stm32f4xx_hal_adc.c **** 
 790:Drivers/STM32F4xx_HAL_Driver/Src/stm32f4xx_hal_adc.c ****     /* Process unlocked */
 791:Drivers/STM32F4xx_HAL_Driver/Src/stm32f4xx_hal_adc.c ****     /* Unlock before starting ADC conversions: in case of potential           */
 792:Drivers/STM32F4xx_HAL_Driver/Src/stm32f4xx_hal_adc.c ****     /* interruption, to let the process to ADC IRQ Handler.                   */
 793:Drivers/STM32F4xx_HAL_Driver/Src/stm32f4xx_hal_adc.c ****     __HAL_UNLOCK(hadc);
 794:Drivers/STM32F4xx_HAL_Driver/Src/stm32f4xx_hal_adc.c **** 
 795:Drivers/STM32F4xx_HAL_Driver/Src/stm32f4xx_hal_adc.c ****     /* Pointer to the common control register to which is belonging hadc    */
 796:Drivers/STM32F4xx_HAL_Driver/Src/stm32f4xx_hal_adc.c ****     /* (Depending on STM32F4 product, there may be up to 3 ADCs and 1 common */
 797:Drivers/STM32F4xx_HAL_Driver/Src/stm32f4xx_hal_adc.c ****     /* control register)                                                    */
 798:Drivers/STM32F4xx_HAL_Driver/Src/stm32f4xx_hal_adc.c ****     tmpADC_Common = ADC_COMMON_REGISTER(hadc);
 799:Drivers/STM32F4xx_HAL_Driver/Src/stm32f4xx_hal_adc.c **** 
 800:Drivers/STM32F4xx_HAL_Driver/Src/stm32f4xx_hal_adc.c ****     /* Clear regular group conversion flag and overrun flag */
 801:Drivers/STM32F4xx_HAL_Driver/Src/stm32f4xx_hal_adc.c ****     /* (To ensure of no unknown state from potential previous ADC operations) */
 802:Drivers/STM32F4xx_HAL_Driver/Src/stm32f4xx_hal_adc.c ****     __HAL_ADC_CLEAR_FLAG(hadc, ADC_FLAG_EOC | ADC_FLAG_OVR);
 803:Drivers/STM32F4xx_HAL_Driver/Src/stm32f4xx_hal_adc.c ****     
 804:Drivers/STM32F4xx_HAL_Driver/Src/stm32f4xx_hal_adc.c ****     /* Enable end of conversion interrupt for regular group */
 805:Drivers/STM32F4xx_HAL_Driver/Src/stm32f4xx_hal_adc.c ****     __HAL_ADC_ENABLE_IT(hadc, (ADC_IT_EOC | ADC_IT_OVR));
 806:Drivers/STM32F4xx_HAL_Driver/Src/stm32f4xx_hal_adc.c ****     
 807:Drivers/STM32F4xx_HAL_Driver/Src/stm32f4xx_hal_adc.c ****     /* Check if Multimode enabled */
 808:Drivers/STM32F4xx_HAL_Driver/Src/stm32f4xx_hal_adc.c ****     if(HAL_IS_BIT_CLR(tmpADC_Common->CCR, ADC_CCR_MULTI))
 809:Drivers/STM32F4xx_HAL_Driver/Src/stm32f4xx_hal_adc.c ****     {
 810:Drivers/STM32F4xx_HAL_Driver/Src/stm32f4xx_hal_adc.c ****       /* if no external trigger present enable software conversion of regular channels */
 811:Drivers/STM32F4xx_HAL_Driver/Src/stm32f4xx_hal_adc.c ****       if((hadc->Instance->CR2 & ADC_CR2_EXTEN) == RESET) 
 812:Drivers/STM32F4xx_HAL_Driver/Src/stm32f4xx_hal_adc.c ****       {
 813:Drivers/STM32F4xx_HAL_Driver/Src/stm32f4xx_hal_adc.c ****         /* Enable the selected ADC software conversion for regular group */
 814:Drivers/STM32F4xx_HAL_Driver/Src/stm32f4xx_hal_adc.c ****         hadc->Instance->CR2 |= (uint32_t)ADC_CR2_SWSTART;
 815:Drivers/STM32F4xx_HAL_Driver/Src/stm32f4xx_hal_adc.c ****       }
 816:Drivers/STM32F4xx_HAL_Driver/Src/stm32f4xx_hal_adc.c ****     }
 817:Drivers/STM32F4xx_HAL_Driver/Src/stm32f4xx_hal_adc.c ****     else
 818:Drivers/STM32F4xx_HAL_Driver/Src/stm32f4xx_hal_adc.c ****     {
 819:Drivers/STM32F4xx_HAL_Driver/Src/stm32f4xx_hal_adc.c ****       /* if instance of handle correspond to ADC1 and  no external trigger present enable software 
 820:Drivers/STM32F4xx_HAL_Driver/Src/stm32f4xx_hal_adc.c ****       if((hadc->Instance == ADC1) && ((hadc->Instance->CR2 & ADC_CR2_EXTEN) == RESET))
 821:Drivers/STM32F4xx_HAL_Driver/Src/stm32f4xx_hal_adc.c ****       {
 822:Drivers/STM32F4xx_HAL_Driver/Src/stm32f4xx_hal_adc.c ****         /* Enable the selected ADC software conversion for regular group */
 823:Drivers/STM32F4xx_HAL_Driver/Src/stm32f4xx_hal_adc.c ****           hadc->Instance->CR2 |= (uint32_t)ADC_CR2_SWSTART;
 824:Drivers/STM32F4xx_HAL_Driver/Src/stm32f4xx_hal_adc.c ****       }
 825:Drivers/STM32F4xx_HAL_Driver/Src/stm32f4xx_hal_adc.c ****     }
 826:Drivers/STM32F4xx_HAL_Driver/Src/stm32f4xx_hal_adc.c ****   }
 827:Drivers/STM32F4xx_HAL_Driver/Src/stm32f4xx_hal_adc.c ****   
 828:Drivers/STM32F4xx_HAL_Driver/Src/stm32f4xx_hal_adc.c ****   /* Return function status */
 829:Drivers/STM32F4xx_HAL_Driver/Src/stm32f4xx_hal_adc.c ****   return HAL_OK;
 830:Drivers/STM32F4xx_HAL_Driver/Src/stm32f4xx_hal_adc.c **** }
ARM GAS  C:\Users\n-is\AppData\Local\Temp\cc3jxhl4.s 			page 16


 831:Drivers/STM32F4xx_HAL_Driver/Src/stm32f4xx_hal_adc.c **** 
 832:Drivers/STM32F4xx_HAL_Driver/Src/stm32f4xx_hal_adc.c **** /**
 833:Drivers/STM32F4xx_HAL_Driver/Src/stm32f4xx_hal_adc.c ****   * @brief  Disables the interrupt and stop ADC conversion of regular channels.
 834:Drivers/STM32F4xx_HAL_Driver/Src/stm32f4xx_hal_adc.c ****   * 
 835:Drivers/STM32F4xx_HAL_Driver/Src/stm32f4xx_hal_adc.c ****   * @note   Caution: This function will stop also injected channels.  
 836:Drivers/STM32F4xx_HAL_Driver/Src/stm32f4xx_hal_adc.c ****   *
 837:Drivers/STM32F4xx_HAL_Driver/Src/stm32f4xx_hal_adc.c ****   * @param  hadc pointer to a ADC_HandleTypeDef structure that contains
 838:Drivers/STM32F4xx_HAL_Driver/Src/stm32f4xx_hal_adc.c ****   *         the configuration information for the specified ADC.
 839:Drivers/STM32F4xx_HAL_Driver/Src/stm32f4xx_hal_adc.c ****   * @retval HAL status.
 840:Drivers/STM32F4xx_HAL_Driver/Src/stm32f4xx_hal_adc.c ****   */
 841:Drivers/STM32F4xx_HAL_Driver/Src/stm32f4xx_hal_adc.c **** HAL_StatusTypeDef HAL_ADC_Stop_IT(ADC_HandleTypeDef* hadc)
 842:Drivers/STM32F4xx_HAL_Driver/Src/stm32f4xx_hal_adc.c **** {
 843:Drivers/STM32F4xx_HAL_Driver/Src/stm32f4xx_hal_adc.c ****   /* Check the parameters */
 844:Drivers/STM32F4xx_HAL_Driver/Src/stm32f4xx_hal_adc.c ****   assert_param(IS_ADC_ALL_INSTANCE(hadc->Instance));
 845:Drivers/STM32F4xx_HAL_Driver/Src/stm32f4xx_hal_adc.c ****   
 846:Drivers/STM32F4xx_HAL_Driver/Src/stm32f4xx_hal_adc.c ****   /* Process locked */
 847:Drivers/STM32F4xx_HAL_Driver/Src/stm32f4xx_hal_adc.c ****   __HAL_LOCK(hadc);
 848:Drivers/STM32F4xx_HAL_Driver/Src/stm32f4xx_hal_adc.c ****   
 849:Drivers/STM32F4xx_HAL_Driver/Src/stm32f4xx_hal_adc.c ****   /* Stop potential conversion on going, on regular and injected groups */
 850:Drivers/STM32F4xx_HAL_Driver/Src/stm32f4xx_hal_adc.c ****   /* Disable ADC peripheral */
 851:Drivers/STM32F4xx_HAL_Driver/Src/stm32f4xx_hal_adc.c ****   __HAL_ADC_DISABLE(hadc);
 852:Drivers/STM32F4xx_HAL_Driver/Src/stm32f4xx_hal_adc.c ****   
 853:Drivers/STM32F4xx_HAL_Driver/Src/stm32f4xx_hal_adc.c ****   /* Check if ADC is effectively disabled */
 854:Drivers/STM32F4xx_HAL_Driver/Src/stm32f4xx_hal_adc.c ****   if(HAL_IS_BIT_CLR(hadc->Instance->CR2, ADC_CR2_ADON))
 855:Drivers/STM32F4xx_HAL_Driver/Src/stm32f4xx_hal_adc.c ****   {
 856:Drivers/STM32F4xx_HAL_Driver/Src/stm32f4xx_hal_adc.c ****   	/* Disable ADC end of conversion interrupt for regular group */
 857:Drivers/STM32F4xx_HAL_Driver/Src/stm32f4xx_hal_adc.c ****     __HAL_ADC_DISABLE_IT(hadc, (ADC_IT_EOC | ADC_IT_OVR));
 858:Drivers/STM32F4xx_HAL_Driver/Src/stm32f4xx_hal_adc.c **** 
 859:Drivers/STM32F4xx_HAL_Driver/Src/stm32f4xx_hal_adc.c ****     /* Set ADC state */
 860:Drivers/STM32F4xx_HAL_Driver/Src/stm32f4xx_hal_adc.c ****     ADC_STATE_CLR_SET(hadc->State,
 861:Drivers/STM32F4xx_HAL_Driver/Src/stm32f4xx_hal_adc.c ****                       HAL_ADC_STATE_REG_BUSY | HAL_ADC_STATE_INJ_BUSY,
 862:Drivers/STM32F4xx_HAL_Driver/Src/stm32f4xx_hal_adc.c ****                       HAL_ADC_STATE_READY);
 863:Drivers/STM32F4xx_HAL_Driver/Src/stm32f4xx_hal_adc.c ****   }
 864:Drivers/STM32F4xx_HAL_Driver/Src/stm32f4xx_hal_adc.c ****   
 865:Drivers/STM32F4xx_HAL_Driver/Src/stm32f4xx_hal_adc.c ****   /* Process unlocked */
 866:Drivers/STM32F4xx_HAL_Driver/Src/stm32f4xx_hal_adc.c ****   __HAL_UNLOCK(hadc);
 867:Drivers/STM32F4xx_HAL_Driver/Src/stm32f4xx_hal_adc.c ****   
 868:Drivers/STM32F4xx_HAL_Driver/Src/stm32f4xx_hal_adc.c ****   /* Return function status */
 869:Drivers/STM32F4xx_HAL_Driver/Src/stm32f4xx_hal_adc.c ****   return HAL_OK;
 870:Drivers/STM32F4xx_HAL_Driver/Src/stm32f4xx_hal_adc.c **** }
 871:Drivers/STM32F4xx_HAL_Driver/Src/stm32f4xx_hal_adc.c **** 
 872:Drivers/STM32F4xx_HAL_Driver/Src/stm32f4xx_hal_adc.c **** /**
 873:Drivers/STM32F4xx_HAL_Driver/Src/stm32f4xx_hal_adc.c ****   * @brief  Handles ADC interrupt request  
 874:Drivers/STM32F4xx_HAL_Driver/Src/stm32f4xx_hal_adc.c ****   * @param  hadc pointer to a ADC_HandleTypeDef structure that contains
 875:Drivers/STM32F4xx_HAL_Driver/Src/stm32f4xx_hal_adc.c ****   *         the configuration information for the specified ADC.
 876:Drivers/STM32F4xx_HAL_Driver/Src/stm32f4xx_hal_adc.c ****   * @retval None
 877:Drivers/STM32F4xx_HAL_Driver/Src/stm32f4xx_hal_adc.c ****   */
 878:Drivers/STM32F4xx_HAL_Driver/Src/stm32f4xx_hal_adc.c **** void HAL_ADC_IRQHandler(ADC_HandleTypeDef* hadc)
 879:Drivers/STM32F4xx_HAL_Driver/Src/stm32f4xx_hal_adc.c **** {
 880:Drivers/STM32F4xx_HAL_Driver/Src/stm32f4xx_hal_adc.c ****   uint32_t tmp1 = 0U, tmp2 = 0U;
 881:Drivers/STM32F4xx_HAL_Driver/Src/stm32f4xx_hal_adc.c ****   
 882:Drivers/STM32F4xx_HAL_Driver/Src/stm32f4xx_hal_adc.c ****   /* Check the parameters */
 883:Drivers/STM32F4xx_HAL_Driver/Src/stm32f4xx_hal_adc.c ****   assert_param(IS_FUNCTIONAL_STATE(hadc->Init.ContinuousConvMode));
 884:Drivers/STM32F4xx_HAL_Driver/Src/stm32f4xx_hal_adc.c ****   assert_param(IS_ADC_REGULAR_LENGTH(hadc->Init.NbrOfConversion));
 885:Drivers/STM32F4xx_HAL_Driver/Src/stm32f4xx_hal_adc.c ****   assert_param(IS_ADC_EOCSelection(hadc->Init.EOCSelection));
 886:Drivers/STM32F4xx_HAL_Driver/Src/stm32f4xx_hal_adc.c ****   
 887:Drivers/STM32F4xx_HAL_Driver/Src/stm32f4xx_hal_adc.c ****   tmp1 = __HAL_ADC_GET_FLAG(hadc, ADC_FLAG_EOC);
ARM GAS  C:\Users\n-is\AppData\Local\Temp\cc3jxhl4.s 			page 17


 888:Drivers/STM32F4xx_HAL_Driver/Src/stm32f4xx_hal_adc.c ****   tmp2 = __HAL_ADC_GET_IT_SOURCE(hadc, ADC_IT_EOC);
 889:Drivers/STM32F4xx_HAL_Driver/Src/stm32f4xx_hal_adc.c ****   /* Check End of conversion flag for regular channels */
 890:Drivers/STM32F4xx_HAL_Driver/Src/stm32f4xx_hal_adc.c ****   if(tmp1 && tmp2)
 891:Drivers/STM32F4xx_HAL_Driver/Src/stm32f4xx_hal_adc.c ****   {
 892:Drivers/STM32F4xx_HAL_Driver/Src/stm32f4xx_hal_adc.c ****     /* Update state machine on conversion status if not in error state */
 893:Drivers/STM32F4xx_HAL_Driver/Src/stm32f4xx_hal_adc.c ****     if (HAL_IS_BIT_CLR(hadc->State, HAL_ADC_STATE_ERROR_INTERNAL))
 894:Drivers/STM32F4xx_HAL_Driver/Src/stm32f4xx_hal_adc.c ****     {
 895:Drivers/STM32F4xx_HAL_Driver/Src/stm32f4xx_hal_adc.c ****       /* Set ADC state */
 896:Drivers/STM32F4xx_HAL_Driver/Src/stm32f4xx_hal_adc.c ****       SET_BIT(hadc->State, HAL_ADC_STATE_REG_EOC); 
 897:Drivers/STM32F4xx_HAL_Driver/Src/stm32f4xx_hal_adc.c ****     }
 898:Drivers/STM32F4xx_HAL_Driver/Src/stm32f4xx_hal_adc.c ****     
 899:Drivers/STM32F4xx_HAL_Driver/Src/stm32f4xx_hal_adc.c ****     /* Determine whether any further conversion upcoming on group regular   */
 900:Drivers/STM32F4xx_HAL_Driver/Src/stm32f4xx_hal_adc.c ****     /* by external trigger, continuous mode or scan sequence on going.      */
 901:Drivers/STM32F4xx_HAL_Driver/Src/stm32f4xx_hal_adc.c ****     /* Note: On STM32F4, there is no independent flag of end of sequence.   */
 902:Drivers/STM32F4xx_HAL_Driver/Src/stm32f4xx_hal_adc.c ****     /*       The test of scan sequence on going is done either with scan    */
 903:Drivers/STM32F4xx_HAL_Driver/Src/stm32f4xx_hal_adc.c ****     /*       sequence disabled or with end of conversion flag set to        */
 904:Drivers/STM32F4xx_HAL_Driver/Src/stm32f4xx_hal_adc.c ****     /*       of end of sequence.                                            */
 905:Drivers/STM32F4xx_HAL_Driver/Src/stm32f4xx_hal_adc.c ****     if(ADC_IS_SOFTWARE_START_REGULAR(hadc)                   &&
 906:Drivers/STM32F4xx_HAL_Driver/Src/stm32f4xx_hal_adc.c ****        (hadc->Init.ContinuousConvMode == DISABLE)            &&
 907:Drivers/STM32F4xx_HAL_Driver/Src/stm32f4xx_hal_adc.c ****        (HAL_IS_BIT_CLR(hadc->Instance->SQR1, ADC_SQR1_L) || 
 908:Drivers/STM32F4xx_HAL_Driver/Src/stm32f4xx_hal_adc.c ****         HAL_IS_BIT_CLR(hadc->Instance->CR2, ADC_CR2_EOCS)  )   )
 909:Drivers/STM32F4xx_HAL_Driver/Src/stm32f4xx_hal_adc.c ****     {
 910:Drivers/STM32F4xx_HAL_Driver/Src/stm32f4xx_hal_adc.c ****       /* Disable ADC end of single conversion interrupt on group regular */
 911:Drivers/STM32F4xx_HAL_Driver/Src/stm32f4xx_hal_adc.c ****       /* Note: Overrun interrupt was enabled with EOC interrupt in          */
 912:Drivers/STM32F4xx_HAL_Driver/Src/stm32f4xx_hal_adc.c ****       /* HAL_ADC_Start_IT(), but is not disabled here because can be used   */
 913:Drivers/STM32F4xx_HAL_Driver/Src/stm32f4xx_hal_adc.c ****       /* by overrun IRQ process below.                                      */
 914:Drivers/STM32F4xx_HAL_Driver/Src/stm32f4xx_hal_adc.c ****       __HAL_ADC_DISABLE_IT(hadc, ADC_IT_EOC);
 915:Drivers/STM32F4xx_HAL_Driver/Src/stm32f4xx_hal_adc.c ****       
 916:Drivers/STM32F4xx_HAL_Driver/Src/stm32f4xx_hal_adc.c ****       /* Set ADC state */
 917:Drivers/STM32F4xx_HAL_Driver/Src/stm32f4xx_hal_adc.c ****       CLEAR_BIT(hadc->State, HAL_ADC_STATE_REG_BUSY);
 918:Drivers/STM32F4xx_HAL_Driver/Src/stm32f4xx_hal_adc.c ****       
 919:Drivers/STM32F4xx_HAL_Driver/Src/stm32f4xx_hal_adc.c ****       if (HAL_IS_BIT_CLR(hadc->State, HAL_ADC_STATE_INJ_BUSY))
 920:Drivers/STM32F4xx_HAL_Driver/Src/stm32f4xx_hal_adc.c ****       {
 921:Drivers/STM32F4xx_HAL_Driver/Src/stm32f4xx_hal_adc.c ****         SET_BIT(hadc->State, HAL_ADC_STATE_READY);
 922:Drivers/STM32F4xx_HAL_Driver/Src/stm32f4xx_hal_adc.c ****       }
 923:Drivers/STM32F4xx_HAL_Driver/Src/stm32f4xx_hal_adc.c ****     }
 924:Drivers/STM32F4xx_HAL_Driver/Src/stm32f4xx_hal_adc.c ****     
 925:Drivers/STM32F4xx_HAL_Driver/Src/stm32f4xx_hal_adc.c ****     /* Conversion complete callback */ 
 926:Drivers/STM32F4xx_HAL_Driver/Src/stm32f4xx_hal_adc.c ****     HAL_ADC_ConvCpltCallback(hadc);
 927:Drivers/STM32F4xx_HAL_Driver/Src/stm32f4xx_hal_adc.c ****     
 928:Drivers/STM32F4xx_HAL_Driver/Src/stm32f4xx_hal_adc.c ****     /* Clear regular group conversion flag */
 929:Drivers/STM32F4xx_HAL_Driver/Src/stm32f4xx_hal_adc.c ****     __HAL_ADC_CLEAR_FLAG(hadc, ADC_FLAG_STRT | ADC_FLAG_EOC);
 930:Drivers/STM32F4xx_HAL_Driver/Src/stm32f4xx_hal_adc.c ****   }
 931:Drivers/STM32F4xx_HAL_Driver/Src/stm32f4xx_hal_adc.c ****   
 932:Drivers/STM32F4xx_HAL_Driver/Src/stm32f4xx_hal_adc.c ****   tmp1 = __HAL_ADC_GET_FLAG(hadc, ADC_FLAG_JEOC);
 933:Drivers/STM32F4xx_HAL_Driver/Src/stm32f4xx_hal_adc.c ****   tmp2 = __HAL_ADC_GET_IT_SOURCE(hadc, ADC_IT_JEOC);                               
 934:Drivers/STM32F4xx_HAL_Driver/Src/stm32f4xx_hal_adc.c ****   /* Check End of conversion flag for injected channels */
 935:Drivers/STM32F4xx_HAL_Driver/Src/stm32f4xx_hal_adc.c ****   if(tmp1 && tmp2)
 936:Drivers/STM32F4xx_HAL_Driver/Src/stm32f4xx_hal_adc.c ****   {
 937:Drivers/STM32F4xx_HAL_Driver/Src/stm32f4xx_hal_adc.c ****     /* Update state machine on conversion status if not in error state */
 938:Drivers/STM32F4xx_HAL_Driver/Src/stm32f4xx_hal_adc.c ****     if (HAL_IS_BIT_CLR(hadc->State, HAL_ADC_STATE_ERROR_INTERNAL))
 939:Drivers/STM32F4xx_HAL_Driver/Src/stm32f4xx_hal_adc.c ****     {
 940:Drivers/STM32F4xx_HAL_Driver/Src/stm32f4xx_hal_adc.c ****       /* Set ADC state */
 941:Drivers/STM32F4xx_HAL_Driver/Src/stm32f4xx_hal_adc.c ****       SET_BIT(hadc->State, HAL_ADC_STATE_INJ_EOC);
 942:Drivers/STM32F4xx_HAL_Driver/Src/stm32f4xx_hal_adc.c ****     }
 943:Drivers/STM32F4xx_HAL_Driver/Src/stm32f4xx_hal_adc.c **** 
 944:Drivers/STM32F4xx_HAL_Driver/Src/stm32f4xx_hal_adc.c ****     /* Determine whether any further conversion upcoming on group injected  */
ARM GAS  C:\Users\n-is\AppData\Local\Temp\cc3jxhl4.s 			page 18


 945:Drivers/STM32F4xx_HAL_Driver/Src/stm32f4xx_hal_adc.c ****     /* by external trigger, scan sequence on going or by automatic injected */
 946:Drivers/STM32F4xx_HAL_Driver/Src/stm32f4xx_hal_adc.c ****     /* conversion from group regular (same conditions as group regular      */
 947:Drivers/STM32F4xx_HAL_Driver/Src/stm32f4xx_hal_adc.c ****     /* interruption disabling above).                                       */
 948:Drivers/STM32F4xx_HAL_Driver/Src/stm32f4xx_hal_adc.c ****     if(ADC_IS_SOFTWARE_START_INJECTED(hadc)                    &&
 949:Drivers/STM32F4xx_HAL_Driver/Src/stm32f4xx_hal_adc.c ****        (HAL_IS_BIT_CLR(hadc->Instance->JSQR, ADC_JSQR_JL)  ||
 950:Drivers/STM32F4xx_HAL_Driver/Src/stm32f4xx_hal_adc.c ****         HAL_IS_BIT_CLR(hadc->Instance->CR2, ADC_CR2_EOCS)    ) &&
 951:Drivers/STM32F4xx_HAL_Driver/Src/stm32f4xx_hal_adc.c ****        (HAL_IS_BIT_CLR(hadc->Instance->CR1, ADC_CR1_JAUTO) &&
 952:Drivers/STM32F4xx_HAL_Driver/Src/stm32f4xx_hal_adc.c ****         (ADC_IS_SOFTWARE_START_REGULAR(hadc)       &&
 953:Drivers/STM32F4xx_HAL_Driver/Src/stm32f4xx_hal_adc.c ****         (hadc->Init.ContinuousConvMode == DISABLE)   )       )   )
 954:Drivers/STM32F4xx_HAL_Driver/Src/stm32f4xx_hal_adc.c ****     {
 955:Drivers/STM32F4xx_HAL_Driver/Src/stm32f4xx_hal_adc.c ****       /* Disable ADC end of single conversion interrupt on group injected */
 956:Drivers/STM32F4xx_HAL_Driver/Src/stm32f4xx_hal_adc.c ****       __HAL_ADC_DISABLE_IT(hadc, ADC_IT_JEOC);
 957:Drivers/STM32F4xx_HAL_Driver/Src/stm32f4xx_hal_adc.c ****       
 958:Drivers/STM32F4xx_HAL_Driver/Src/stm32f4xx_hal_adc.c ****       /* Set ADC state */
 959:Drivers/STM32F4xx_HAL_Driver/Src/stm32f4xx_hal_adc.c ****       CLEAR_BIT(hadc->State, HAL_ADC_STATE_INJ_BUSY);   
 960:Drivers/STM32F4xx_HAL_Driver/Src/stm32f4xx_hal_adc.c **** 
 961:Drivers/STM32F4xx_HAL_Driver/Src/stm32f4xx_hal_adc.c ****       if (HAL_IS_BIT_CLR(hadc->State, HAL_ADC_STATE_REG_BUSY))
 962:Drivers/STM32F4xx_HAL_Driver/Src/stm32f4xx_hal_adc.c ****       { 
 963:Drivers/STM32F4xx_HAL_Driver/Src/stm32f4xx_hal_adc.c ****         SET_BIT(hadc->State, HAL_ADC_STATE_READY);
 964:Drivers/STM32F4xx_HAL_Driver/Src/stm32f4xx_hal_adc.c ****       }
 965:Drivers/STM32F4xx_HAL_Driver/Src/stm32f4xx_hal_adc.c ****     }
 966:Drivers/STM32F4xx_HAL_Driver/Src/stm32f4xx_hal_adc.c **** 
 967:Drivers/STM32F4xx_HAL_Driver/Src/stm32f4xx_hal_adc.c ****     /* Conversion complete callback */ 
 968:Drivers/STM32F4xx_HAL_Driver/Src/stm32f4xx_hal_adc.c ****     HAL_ADCEx_InjectedConvCpltCallback(hadc);
 969:Drivers/STM32F4xx_HAL_Driver/Src/stm32f4xx_hal_adc.c ****     
 970:Drivers/STM32F4xx_HAL_Driver/Src/stm32f4xx_hal_adc.c ****     /* Clear injected group conversion flag */
 971:Drivers/STM32F4xx_HAL_Driver/Src/stm32f4xx_hal_adc.c ****     __HAL_ADC_CLEAR_FLAG(hadc, (ADC_FLAG_JSTRT | ADC_FLAG_JEOC));
 972:Drivers/STM32F4xx_HAL_Driver/Src/stm32f4xx_hal_adc.c ****   }
 973:Drivers/STM32F4xx_HAL_Driver/Src/stm32f4xx_hal_adc.c ****   
 974:Drivers/STM32F4xx_HAL_Driver/Src/stm32f4xx_hal_adc.c ****   tmp1 = __HAL_ADC_GET_FLAG(hadc, ADC_FLAG_AWD);
 975:Drivers/STM32F4xx_HAL_Driver/Src/stm32f4xx_hal_adc.c ****   tmp2 = __HAL_ADC_GET_IT_SOURCE(hadc, ADC_IT_AWD);                          
 976:Drivers/STM32F4xx_HAL_Driver/Src/stm32f4xx_hal_adc.c ****   /* Check Analog watchdog flag */
 977:Drivers/STM32F4xx_HAL_Driver/Src/stm32f4xx_hal_adc.c ****   if(tmp1 && tmp2)
 978:Drivers/STM32F4xx_HAL_Driver/Src/stm32f4xx_hal_adc.c ****   {
 979:Drivers/STM32F4xx_HAL_Driver/Src/stm32f4xx_hal_adc.c ****     if(__HAL_ADC_GET_FLAG(hadc, ADC_FLAG_AWD))
 980:Drivers/STM32F4xx_HAL_Driver/Src/stm32f4xx_hal_adc.c ****     {
 981:Drivers/STM32F4xx_HAL_Driver/Src/stm32f4xx_hal_adc.c ****       /* Set ADC state */
 982:Drivers/STM32F4xx_HAL_Driver/Src/stm32f4xx_hal_adc.c ****       SET_BIT(hadc->State, HAL_ADC_STATE_AWD1);
 983:Drivers/STM32F4xx_HAL_Driver/Src/stm32f4xx_hal_adc.c ****       
 984:Drivers/STM32F4xx_HAL_Driver/Src/stm32f4xx_hal_adc.c ****       /* Level out of window callback */ 
 985:Drivers/STM32F4xx_HAL_Driver/Src/stm32f4xx_hal_adc.c ****       HAL_ADC_LevelOutOfWindowCallback(hadc);
 986:Drivers/STM32F4xx_HAL_Driver/Src/stm32f4xx_hal_adc.c ****       
 987:Drivers/STM32F4xx_HAL_Driver/Src/stm32f4xx_hal_adc.c ****       /* Clear the ADC analog watchdog flag */
 988:Drivers/STM32F4xx_HAL_Driver/Src/stm32f4xx_hal_adc.c ****       __HAL_ADC_CLEAR_FLAG(hadc, ADC_FLAG_AWD);
 989:Drivers/STM32F4xx_HAL_Driver/Src/stm32f4xx_hal_adc.c ****     }
 990:Drivers/STM32F4xx_HAL_Driver/Src/stm32f4xx_hal_adc.c ****   }
 991:Drivers/STM32F4xx_HAL_Driver/Src/stm32f4xx_hal_adc.c ****   
 992:Drivers/STM32F4xx_HAL_Driver/Src/stm32f4xx_hal_adc.c ****   tmp1 = __HAL_ADC_GET_FLAG(hadc, ADC_FLAG_OVR);
 993:Drivers/STM32F4xx_HAL_Driver/Src/stm32f4xx_hal_adc.c ****   tmp2 = __HAL_ADC_GET_IT_SOURCE(hadc, ADC_IT_OVR);
 994:Drivers/STM32F4xx_HAL_Driver/Src/stm32f4xx_hal_adc.c ****   /* Check Overrun flag */
 995:Drivers/STM32F4xx_HAL_Driver/Src/stm32f4xx_hal_adc.c ****   if(tmp1 && tmp2)
 996:Drivers/STM32F4xx_HAL_Driver/Src/stm32f4xx_hal_adc.c ****   {
 997:Drivers/STM32F4xx_HAL_Driver/Src/stm32f4xx_hal_adc.c ****     /* Note: On STM32F4, ADC overrun can be set through other parameters    */
 998:Drivers/STM32F4xx_HAL_Driver/Src/stm32f4xx_hal_adc.c ****     /*       refer to description of parameter "EOCSelection" for more      */
 999:Drivers/STM32F4xx_HAL_Driver/Src/stm32f4xx_hal_adc.c ****     /*       details.                                                       */
1000:Drivers/STM32F4xx_HAL_Driver/Src/stm32f4xx_hal_adc.c ****     
1001:Drivers/STM32F4xx_HAL_Driver/Src/stm32f4xx_hal_adc.c ****     /* Set ADC error code to overrun */
ARM GAS  C:\Users\n-is\AppData\Local\Temp\cc3jxhl4.s 			page 19


1002:Drivers/STM32F4xx_HAL_Driver/Src/stm32f4xx_hal_adc.c ****     SET_BIT(hadc->ErrorCode, HAL_ADC_ERROR_OVR);
1003:Drivers/STM32F4xx_HAL_Driver/Src/stm32f4xx_hal_adc.c ****     
1004:Drivers/STM32F4xx_HAL_Driver/Src/stm32f4xx_hal_adc.c ****     /* Clear ADC overrun flag */
1005:Drivers/STM32F4xx_HAL_Driver/Src/stm32f4xx_hal_adc.c ****     __HAL_ADC_CLEAR_FLAG(hadc, ADC_FLAG_OVR);
1006:Drivers/STM32F4xx_HAL_Driver/Src/stm32f4xx_hal_adc.c ****     
1007:Drivers/STM32F4xx_HAL_Driver/Src/stm32f4xx_hal_adc.c ****     /* Error callback */ 
1008:Drivers/STM32F4xx_HAL_Driver/Src/stm32f4xx_hal_adc.c ****     HAL_ADC_ErrorCallback(hadc);
1009:Drivers/STM32F4xx_HAL_Driver/Src/stm32f4xx_hal_adc.c ****     
1010:Drivers/STM32F4xx_HAL_Driver/Src/stm32f4xx_hal_adc.c ****     /* Clear the Overrun flag */
1011:Drivers/STM32F4xx_HAL_Driver/Src/stm32f4xx_hal_adc.c ****     __HAL_ADC_CLEAR_FLAG(hadc, ADC_FLAG_OVR);
1012:Drivers/STM32F4xx_HAL_Driver/Src/stm32f4xx_hal_adc.c ****   }
1013:Drivers/STM32F4xx_HAL_Driver/Src/stm32f4xx_hal_adc.c **** }
1014:Drivers/STM32F4xx_HAL_Driver/Src/stm32f4xx_hal_adc.c **** 
1015:Drivers/STM32F4xx_HAL_Driver/Src/stm32f4xx_hal_adc.c **** /**
1016:Drivers/STM32F4xx_HAL_Driver/Src/stm32f4xx_hal_adc.c ****   * @brief  Enables ADC DMA request after last transfer (Single-ADC mode) and enables ADC periphera
1017:Drivers/STM32F4xx_HAL_Driver/Src/stm32f4xx_hal_adc.c ****   * @param  hadc pointer to a ADC_HandleTypeDef structure that contains
1018:Drivers/STM32F4xx_HAL_Driver/Src/stm32f4xx_hal_adc.c ****   *         the configuration information for the specified ADC.
1019:Drivers/STM32F4xx_HAL_Driver/Src/stm32f4xx_hal_adc.c ****   * @param  pData The destination Buffer address.
1020:Drivers/STM32F4xx_HAL_Driver/Src/stm32f4xx_hal_adc.c ****   * @param  Length The length of data to be transferred from ADC peripheral to memory.
1021:Drivers/STM32F4xx_HAL_Driver/Src/stm32f4xx_hal_adc.c ****   * @retval HAL status
1022:Drivers/STM32F4xx_HAL_Driver/Src/stm32f4xx_hal_adc.c ****   */
1023:Drivers/STM32F4xx_HAL_Driver/Src/stm32f4xx_hal_adc.c **** HAL_StatusTypeDef HAL_ADC_Start_DMA(ADC_HandleTypeDef* hadc, uint32_t* pData, uint32_t Length)
1024:Drivers/STM32F4xx_HAL_Driver/Src/stm32f4xx_hal_adc.c **** {
1025:Drivers/STM32F4xx_HAL_Driver/Src/stm32f4xx_hal_adc.c ****   __IO uint32_t counter = 0U;
1026:Drivers/STM32F4xx_HAL_Driver/Src/stm32f4xx_hal_adc.c ****   ADC_Common_TypeDef *tmpADC_Common;
1027:Drivers/STM32F4xx_HAL_Driver/Src/stm32f4xx_hal_adc.c ****   
1028:Drivers/STM32F4xx_HAL_Driver/Src/stm32f4xx_hal_adc.c ****   /* Check the parameters */
1029:Drivers/STM32F4xx_HAL_Driver/Src/stm32f4xx_hal_adc.c ****   assert_param(IS_FUNCTIONAL_STATE(hadc->Init.ContinuousConvMode));
1030:Drivers/STM32F4xx_HAL_Driver/Src/stm32f4xx_hal_adc.c ****   assert_param(IS_ADC_EXT_TRIG_EDGE(hadc->Init.ExternalTrigConvEdge)); 
1031:Drivers/STM32F4xx_HAL_Driver/Src/stm32f4xx_hal_adc.c ****   
1032:Drivers/STM32F4xx_HAL_Driver/Src/stm32f4xx_hal_adc.c ****   /* Process locked */
1033:Drivers/STM32F4xx_HAL_Driver/Src/stm32f4xx_hal_adc.c ****   __HAL_LOCK(hadc);
1034:Drivers/STM32F4xx_HAL_Driver/Src/stm32f4xx_hal_adc.c ****   
1035:Drivers/STM32F4xx_HAL_Driver/Src/stm32f4xx_hal_adc.c ****   /* Enable the ADC peripheral */
1036:Drivers/STM32F4xx_HAL_Driver/Src/stm32f4xx_hal_adc.c ****   /* Check if ADC peripheral is disabled in order to enable it and wait during 
1037:Drivers/STM32F4xx_HAL_Driver/Src/stm32f4xx_hal_adc.c ****   Tstab time the ADC's stabilization */
1038:Drivers/STM32F4xx_HAL_Driver/Src/stm32f4xx_hal_adc.c ****   if((hadc->Instance->CR2 & ADC_CR2_ADON) != ADC_CR2_ADON)
1039:Drivers/STM32F4xx_HAL_Driver/Src/stm32f4xx_hal_adc.c ****   {  
1040:Drivers/STM32F4xx_HAL_Driver/Src/stm32f4xx_hal_adc.c ****     /* Enable the Peripheral */
1041:Drivers/STM32F4xx_HAL_Driver/Src/stm32f4xx_hal_adc.c ****     __HAL_ADC_ENABLE(hadc);
1042:Drivers/STM32F4xx_HAL_Driver/Src/stm32f4xx_hal_adc.c ****     
1043:Drivers/STM32F4xx_HAL_Driver/Src/stm32f4xx_hal_adc.c ****     /* Delay for ADC stabilization time */
1044:Drivers/STM32F4xx_HAL_Driver/Src/stm32f4xx_hal_adc.c ****     /* Compute number of CPU cycles to wait for */
1045:Drivers/STM32F4xx_HAL_Driver/Src/stm32f4xx_hal_adc.c ****     counter = (ADC_STAB_DELAY_US * (SystemCoreClock / 1000000U));
1046:Drivers/STM32F4xx_HAL_Driver/Src/stm32f4xx_hal_adc.c ****     while(counter != 0U)
1047:Drivers/STM32F4xx_HAL_Driver/Src/stm32f4xx_hal_adc.c ****     {
1048:Drivers/STM32F4xx_HAL_Driver/Src/stm32f4xx_hal_adc.c ****       counter--;
1049:Drivers/STM32F4xx_HAL_Driver/Src/stm32f4xx_hal_adc.c ****     }
1050:Drivers/STM32F4xx_HAL_Driver/Src/stm32f4xx_hal_adc.c ****   }
1051:Drivers/STM32F4xx_HAL_Driver/Src/stm32f4xx_hal_adc.c ****   
1052:Drivers/STM32F4xx_HAL_Driver/Src/stm32f4xx_hal_adc.c ****   /* Start conversion if ADC is effectively enabled */
1053:Drivers/STM32F4xx_HAL_Driver/Src/stm32f4xx_hal_adc.c ****   if(HAL_IS_BIT_SET(hadc->Instance->CR2, ADC_CR2_ADON))
1054:Drivers/STM32F4xx_HAL_Driver/Src/stm32f4xx_hal_adc.c ****   {
1055:Drivers/STM32F4xx_HAL_Driver/Src/stm32f4xx_hal_adc.c ****     /* Set ADC state                                                          */
1056:Drivers/STM32F4xx_HAL_Driver/Src/stm32f4xx_hal_adc.c ****     /* - Clear state bitfield related to regular group conversion results     */
1057:Drivers/STM32F4xx_HAL_Driver/Src/stm32f4xx_hal_adc.c ****     /* - Set state bitfield related to regular group operation                */
1058:Drivers/STM32F4xx_HAL_Driver/Src/stm32f4xx_hal_adc.c ****     ADC_STATE_CLR_SET(hadc->State,
ARM GAS  C:\Users\n-is\AppData\Local\Temp\cc3jxhl4.s 			page 20


1059:Drivers/STM32F4xx_HAL_Driver/Src/stm32f4xx_hal_adc.c ****                       HAL_ADC_STATE_READY | HAL_ADC_STATE_REG_EOC | HAL_ADC_STATE_REG_OVR,
1060:Drivers/STM32F4xx_HAL_Driver/Src/stm32f4xx_hal_adc.c ****                       HAL_ADC_STATE_REG_BUSY);
1061:Drivers/STM32F4xx_HAL_Driver/Src/stm32f4xx_hal_adc.c ****     
1062:Drivers/STM32F4xx_HAL_Driver/Src/stm32f4xx_hal_adc.c ****     /* If conversions on group regular are also triggering group injected,    */
1063:Drivers/STM32F4xx_HAL_Driver/Src/stm32f4xx_hal_adc.c ****     /* update ADC state.                                                      */
1064:Drivers/STM32F4xx_HAL_Driver/Src/stm32f4xx_hal_adc.c ****     if (READ_BIT(hadc->Instance->CR1, ADC_CR1_JAUTO) != RESET)
1065:Drivers/STM32F4xx_HAL_Driver/Src/stm32f4xx_hal_adc.c ****     {
1066:Drivers/STM32F4xx_HAL_Driver/Src/stm32f4xx_hal_adc.c ****       ADC_STATE_CLR_SET(hadc->State, HAL_ADC_STATE_INJ_EOC, HAL_ADC_STATE_INJ_BUSY);  
1067:Drivers/STM32F4xx_HAL_Driver/Src/stm32f4xx_hal_adc.c ****     }
1068:Drivers/STM32F4xx_HAL_Driver/Src/stm32f4xx_hal_adc.c ****     
1069:Drivers/STM32F4xx_HAL_Driver/Src/stm32f4xx_hal_adc.c ****     /* State machine update: Check if an injected conversion is ongoing */
1070:Drivers/STM32F4xx_HAL_Driver/Src/stm32f4xx_hal_adc.c ****     if (HAL_IS_BIT_SET(hadc->State, HAL_ADC_STATE_INJ_BUSY))
1071:Drivers/STM32F4xx_HAL_Driver/Src/stm32f4xx_hal_adc.c ****     {
1072:Drivers/STM32F4xx_HAL_Driver/Src/stm32f4xx_hal_adc.c ****       /* Reset ADC error code fields related to conversions on group regular */
1073:Drivers/STM32F4xx_HAL_Driver/Src/stm32f4xx_hal_adc.c ****       CLEAR_BIT(hadc->ErrorCode, (HAL_ADC_ERROR_OVR | HAL_ADC_ERROR_DMA));         
1074:Drivers/STM32F4xx_HAL_Driver/Src/stm32f4xx_hal_adc.c ****     }
1075:Drivers/STM32F4xx_HAL_Driver/Src/stm32f4xx_hal_adc.c ****     else
1076:Drivers/STM32F4xx_HAL_Driver/Src/stm32f4xx_hal_adc.c ****     {
1077:Drivers/STM32F4xx_HAL_Driver/Src/stm32f4xx_hal_adc.c ****       /* Reset ADC all error code fields */
1078:Drivers/STM32F4xx_HAL_Driver/Src/stm32f4xx_hal_adc.c ****       ADC_CLEAR_ERRORCODE(hadc);
1079:Drivers/STM32F4xx_HAL_Driver/Src/stm32f4xx_hal_adc.c ****     }
1080:Drivers/STM32F4xx_HAL_Driver/Src/stm32f4xx_hal_adc.c **** 
1081:Drivers/STM32F4xx_HAL_Driver/Src/stm32f4xx_hal_adc.c ****     /* Process unlocked */
1082:Drivers/STM32F4xx_HAL_Driver/Src/stm32f4xx_hal_adc.c ****     /* Unlock before starting ADC conversions: in case of potential           */
1083:Drivers/STM32F4xx_HAL_Driver/Src/stm32f4xx_hal_adc.c ****     /* interruption, to let the process to ADC IRQ Handler.                   */
1084:Drivers/STM32F4xx_HAL_Driver/Src/stm32f4xx_hal_adc.c ****     __HAL_UNLOCK(hadc);   
1085:Drivers/STM32F4xx_HAL_Driver/Src/stm32f4xx_hal_adc.c **** 
1086:Drivers/STM32F4xx_HAL_Driver/Src/stm32f4xx_hal_adc.c ****     /* Pointer to the common control register to which is belonging hadc    */
1087:Drivers/STM32F4xx_HAL_Driver/Src/stm32f4xx_hal_adc.c ****     /* (Depending on STM32F4 product, there may be up to 3 ADCs and 1 common */
1088:Drivers/STM32F4xx_HAL_Driver/Src/stm32f4xx_hal_adc.c ****     /* control register)                                                    */
1089:Drivers/STM32F4xx_HAL_Driver/Src/stm32f4xx_hal_adc.c ****     tmpADC_Common = ADC_COMMON_REGISTER(hadc);
1090:Drivers/STM32F4xx_HAL_Driver/Src/stm32f4xx_hal_adc.c **** 
1091:Drivers/STM32F4xx_HAL_Driver/Src/stm32f4xx_hal_adc.c ****     /* Set the DMA transfer complete callback */
1092:Drivers/STM32F4xx_HAL_Driver/Src/stm32f4xx_hal_adc.c ****     hadc->DMA_Handle->XferCpltCallback = ADC_DMAConvCplt;
1093:Drivers/STM32F4xx_HAL_Driver/Src/stm32f4xx_hal_adc.c **** 
1094:Drivers/STM32F4xx_HAL_Driver/Src/stm32f4xx_hal_adc.c ****     /* Set the DMA half transfer complete callback */
1095:Drivers/STM32F4xx_HAL_Driver/Src/stm32f4xx_hal_adc.c ****     hadc->DMA_Handle->XferHalfCpltCallback = ADC_DMAHalfConvCplt;
1096:Drivers/STM32F4xx_HAL_Driver/Src/stm32f4xx_hal_adc.c ****     
1097:Drivers/STM32F4xx_HAL_Driver/Src/stm32f4xx_hal_adc.c ****     /* Set the DMA error callback */
1098:Drivers/STM32F4xx_HAL_Driver/Src/stm32f4xx_hal_adc.c ****     hadc->DMA_Handle->XferErrorCallback = ADC_DMAError;
1099:Drivers/STM32F4xx_HAL_Driver/Src/stm32f4xx_hal_adc.c **** 
1100:Drivers/STM32F4xx_HAL_Driver/Src/stm32f4xx_hal_adc.c ****     
1101:Drivers/STM32F4xx_HAL_Driver/Src/stm32f4xx_hal_adc.c ****     /* Manage ADC and DMA start: ADC overrun interruption, DMA start, ADC     */
1102:Drivers/STM32F4xx_HAL_Driver/Src/stm32f4xx_hal_adc.c ****     /* start (in case of SW start):                                           */
1103:Drivers/STM32F4xx_HAL_Driver/Src/stm32f4xx_hal_adc.c ****     
1104:Drivers/STM32F4xx_HAL_Driver/Src/stm32f4xx_hal_adc.c ****     /* Clear regular group conversion flag and overrun flag */
1105:Drivers/STM32F4xx_HAL_Driver/Src/stm32f4xx_hal_adc.c ****     /* (To ensure of no unknown state from potential previous ADC operations) */
1106:Drivers/STM32F4xx_HAL_Driver/Src/stm32f4xx_hal_adc.c ****     __HAL_ADC_CLEAR_FLAG(hadc, ADC_FLAG_EOC | ADC_FLAG_OVR);
1107:Drivers/STM32F4xx_HAL_Driver/Src/stm32f4xx_hal_adc.c **** 
1108:Drivers/STM32F4xx_HAL_Driver/Src/stm32f4xx_hal_adc.c ****     /* Enable ADC overrun interrupt */
1109:Drivers/STM32F4xx_HAL_Driver/Src/stm32f4xx_hal_adc.c ****     __HAL_ADC_ENABLE_IT(hadc, ADC_IT_OVR);
1110:Drivers/STM32F4xx_HAL_Driver/Src/stm32f4xx_hal_adc.c ****     
1111:Drivers/STM32F4xx_HAL_Driver/Src/stm32f4xx_hal_adc.c ****     /* Enable ADC DMA mode */
1112:Drivers/STM32F4xx_HAL_Driver/Src/stm32f4xx_hal_adc.c ****     hadc->Instance->CR2 |= ADC_CR2_DMA;
1113:Drivers/STM32F4xx_HAL_Driver/Src/stm32f4xx_hal_adc.c ****     
1114:Drivers/STM32F4xx_HAL_Driver/Src/stm32f4xx_hal_adc.c ****     /* Start the DMA channel */
1115:Drivers/STM32F4xx_HAL_Driver/Src/stm32f4xx_hal_adc.c ****     HAL_DMA_Start_IT(hadc->DMA_Handle, (uint32_t)&hadc->Instance->DR, (uint32_t)pData, Length);
ARM GAS  C:\Users\n-is\AppData\Local\Temp\cc3jxhl4.s 			page 21


1116:Drivers/STM32F4xx_HAL_Driver/Src/stm32f4xx_hal_adc.c ****     
1117:Drivers/STM32F4xx_HAL_Driver/Src/stm32f4xx_hal_adc.c ****     /* Check if Multimode enabled */
1118:Drivers/STM32F4xx_HAL_Driver/Src/stm32f4xx_hal_adc.c ****     if(HAL_IS_BIT_CLR(tmpADC_Common->CCR, ADC_CCR_MULTI))
1119:Drivers/STM32F4xx_HAL_Driver/Src/stm32f4xx_hal_adc.c ****     {
1120:Drivers/STM32F4xx_HAL_Driver/Src/stm32f4xx_hal_adc.c ****       /* if no external trigger present enable software conversion of regular channels */
1121:Drivers/STM32F4xx_HAL_Driver/Src/stm32f4xx_hal_adc.c ****       if((hadc->Instance->CR2 & ADC_CR2_EXTEN) == RESET) 
1122:Drivers/STM32F4xx_HAL_Driver/Src/stm32f4xx_hal_adc.c ****       {
1123:Drivers/STM32F4xx_HAL_Driver/Src/stm32f4xx_hal_adc.c ****         /* Enable the selected ADC software conversion for regular group */
1124:Drivers/STM32F4xx_HAL_Driver/Src/stm32f4xx_hal_adc.c ****         hadc->Instance->CR2 |= (uint32_t)ADC_CR2_SWSTART;
1125:Drivers/STM32F4xx_HAL_Driver/Src/stm32f4xx_hal_adc.c ****       }
1126:Drivers/STM32F4xx_HAL_Driver/Src/stm32f4xx_hal_adc.c ****     }
1127:Drivers/STM32F4xx_HAL_Driver/Src/stm32f4xx_hal_adc.c ****     else
1128:Drivers/STM32F4xx_HAL_Driver/Src/stm32f4xx_hal_adc.c ****     {
1129:Drivers/STM32F4xx_HAL_Driver/Src/stm32f4xx_hal_adc.c ****       /* if instance of handle correspond to ADC1 and  no external trigger present enable software 
1130:Drivers/STM32F4xx_HAL_Driver/Src/stm32f4xx_hal_adc.c ****       if((hadc->Instance == ADC1) && ((hadc->Instance->CR2 & ADC_CR2_EXTEN) == RESET))
1131:Drivers/STM32F4xx_HAL_Driver/Src/stm32f4xx_hal_adc.c ****       {
1132:Drivers/STM32F4xx_HAL_Driver/Src/stm32f4xx_hal_adc.c ****         /* Enable the selected ADC software conversion for regular group */
1133:Drivers/STM32F4xx_HAL_Driver/Src/stm32f4xx_hal_adc.c ****           hadc->Instance->CR2 |= (uint32_t)ADC_CR2_SWSTART;
1134:Drivers/STM32F4xx_HAL_Driver/Src/stm32f4xx_hal_adc.c ****       }
1135:Drivers/STM32F4xx_HAL_Driver/Src/stm32f4xx_hal_adc.c ****     }
1136:Drivers/STM32F4xx_HAL_Driver/Src/stm32f4xx_hal_adc.c ****   }
1137:Drivers/STM32F4xx_HAL_Driver/Src/stm32f4xx_hal_adc.c ****   
1138:Drivers/STM32F4xx_HAL_Driver/Src/stm32f4xx_hal_adc.c ****   /* Return function status */
1139:Drivers/STM32F4xx_HAL_Driver/Src/stm32f4xx_hal_adc.c ****   return HAL_OK;
1140:Drivers/STM32F4xx_HAL_Driver/Src/stm32f4xx_hal_adc.c **** }
1141:Drivers/STM32F4xx_HAL_Driver/Src/stm32f4xx_hal_adc.c **** 
1142:Drivers/STM32F4xx_HAL_Driver/Src/stm32f4xx_hal_adc.c **** /**
1143:Drivers/STM32F4xx_HAL_Driver/Src/stm32f4xx_hal_adc.c ****   * @brief  Disables ADC DMA (Single-ADC mode) and disables ADC peripheral    
1144:Drivers/STM32F4xx_HAL_Driver/Src/stm32f4xx_hal_adc.c ****   * @param  hadc pointer to a ADC_HandleTypeDef structure that contains
1145:Drivers/STM32F4xx_HAL_Driver/Src/stm32f4xx_hal_adc.c ****   *         the configuration information for the specified ADC.
1146:Drivers/STM32F4xx_HAL_Driver/Src/stm32f4xx_hal_adc.c ****   * @retval HAL status
1147:Drivers/STM32F4xx_HAL_Driver/Src/stm32f4xx_hal_adc.c ****   */
1148:Drivers/STM32F4xx_HAL_Driver/Src/stm32f4xx_hal_adc.c **** HAL_StatusTypeDef HAL_ADC_Stop_DMA(ADC_HandleTypeDef* hadc)
1149:Drivers/STM32F4xx_HAL_Driver/Src/stm32f4xx_hal_adc.c **** {
1150:Drivers/STM32F4xx_HAL_Driver/Src/stm32f4xx_hal_adc.c ****   HAL_StatusTypeDef tmp_hal_status = HAL_OK;
1151:Drivers/STM32F4xx_HAL_Driver/Src/stm32f4xx_hal_adc.c ****   
1152:Drivers/STM32F4xx_HAL_Driver/Src/stm32f4xx_hal_adc.c ****   /* Check the parameters */
1153:Drivers/STM32F4xx_HAL_Driver/Src/stm32f4xx_hal_adc.c ****   assert_param(IS_ADC_ALL_INSTANCE(hadc->Instance));
1154:Drivers/STM32F4xx_HAL_Driver/Src/stm32f4xx_hal_adc.c ****   
1155:Drivers/STM32F4xx_HAL_Driver/Src/stm32f4xx_hal_adc.c ****   /* Process locked */
1156:Drivers/STM32F4xx_HAL_Driver/Src/stm32f4xx_hal_adc.c ****   __HAL_LOCK(hadc);
1157:Drivers/STM32F4xx_HAL_Driver/Src/stm32f4xx_hal_adc.c ****   
1158:Drivers/STM32F4xx_HAL_Driver/Src/stm32f4xx_hal_adc.c ****   /* Stop potential conversion on going, on regular and injected groups */
1159:Drivers/STM32F4xx_HAL_Driver/Src/stm32f4xx_hal_adc.c ****   /* Disable ADC peripheral */
1160:Drivers/STM32F4xx_HAL_Driver/Src/stm32f4xx_hal_adc.c ****   __HAL_ADC_DISABLE(hadc);
1161:Drivers/STM32F4xx_HAL_Driver/Src/stm32f4xx_hal_adc.c ****   
1162:Drivers/STM32F4xx_HAL_Driver/Src/stm32f4xx_hal_adc.c ****   /* Check if ADC is effectively disabled */
1163:Drivers/STM32F4xx_HAL_Driver/Src/stm32f4xx_hal_adc.c ****   if(HAL_IS_BIT_CLR(hadc->Instance->CR2, ADC_CR2_ADON))
1164:Drivers/STM32F4xx_HAL_Driver/Src/stm32f4xx_hal_adc.c ****   {
1165:Drivers/STM32F4xx_HAL_Driver/Src/stm32f4xx_hal_adc.c ****     /* Disable the selected ADC DMA mode */
1166:Drivers/STM32F4xx_HAL_Driver/Src/stm32f4xx_hal_adc.c ****     hadc->Instance->CR2 &= ~ADC_CR2_DMA;
1167:Drivers/STM32F4xx_HAL_Driver/Src/stm32f4xx_hal_adc.c ****     
1168:Drivers/STM32F4xx_HAL_Driver/Src/stm32f4xx_hal_adc.c ****     /* Disable the DMA channel (in case of DMA in circular mode or stop while */
1169:Drivers/STM32F4xx_HAL_Driver/Src/stm32f4xx_hal_adc.c ****     /* DMA transfer is on going)                                              */
1170:Drivers/STM32F4xx_HAL_Driver/Src/stm32f4xx_hal_adc.c ****     tmp_hal_status = HAL_DMA_Abort(hadc->DMA_Handle);
1171:Drivers/STM32F4xx_HAL_Driver/Src/stm32f4xx_hal_adc.c ****     
1172:Drivers/STM32F4xx_HAL_Driver/Src/stm32f4xx_hal_adc.c ****     /* Disable ADC overrun interrupt */
ARM GAS  C:\Users\n-is\AppData\Local\Temp\cc3jxhl4.s 			page 22


1173:Drivers/STM32F4xx_HAL_Driver/Src/stm32f4xx_hal_adc.c ****     __HAL_ADC_DISABLE_IT(hadc, ADC_IT_OVR);
1174:Drivers/STM32F4xx_HAL_Driver/Src/stm32f4xx_hal_adc.c ****     
1175:Drivers/STM32F4xx_HAL_Driver/Src/stm32f4xx_hal_adc.c ****     /* Set ADC state */
1176:Drivers/STM32F4xx_HAL_Driver/Src/stm32f4xx_hal_adc.c ****     ADC_STATE_CLR_SET(hadc->State,
1177:Drivers/STM32F4xx_HAL_Driver/Src/stm32f4xx_hal_adc.c ****                       HAL_ADC_STATE_REG_BUSY | HAL_ADC_STATE_INJ_BUSY,
1178:Drivers/STM32F4xx_HAL_Driver/Src/stm32f4xx_hal_adc.c ****                       HAL_ADC_STATE_READY);
1179:Drivers/STM32F4xx_HAL_Driver/Src/stm32f4xx_hal_adc.c ****   }
1180:Drivers/STM32F4xx_HAL_Driver/Src/stm32f4xx_hal_adc.c ****   
1181:Drivers/STM32F4xx_HAL_Driver/Src/stm32f4xx_hal_adc.c ****   /* Process unlocked */
1182:Drivers/STM32F4xx_HAL_Driver/Src/stm32f4xx_hal_adc.c ****   __HAL_UNLOCK(hadc);
1183:Drivers/STM32F4xx_HAL_Driver/Src/stm32f4xx_hal_adc.c ****   
1184:Drivers/STM32F4xx_HAL_Driver/Src/stm32f4xx_hal_adc.c ****   /* Return function status */
1185:Drivers/STM32F4xx_HAL_Driver/Src/stm32f4xx_hal_adc.c ****   return tmp_hal_status;
1186:Drivers/STM32F4xx_HAL_Driver/Src/stm32f4xx_hal_adc.c **** }
1187:Drivers/STM32F4xx_HAL_Driver/Src/stm32f4xx_hal_adc.c **** 
1188:Drivers/STM32F4xx_HAL_Driver/Src/stm32f4xx_hal_adc.c **** /**
1189:Drivers/STM32F4xx_HAL_Driver/Src/stm32f4xx_hal_adc.c ****   * @brief  Gets the converted value from data register of regular channel.
1190:Drivers/STM32F4xx_HAL_Driver/Src/stm32f4xx_hal_adc.c ****   * @param  hadc pointer to a ADC_HandleTypeDef structure that contains
1191:Drivers/STM32F4xx_HAL_Driver/Src/stm32f4xx_hal_adc.c ****   *         the configuration information for the specified ADC.
1192:Drivers/STM32F4xx_HAL_Driver/Src/stm32f4xx_hal_adc.c ****   * @retval Converted value
1193:Drivers/STM32F4xx_HAL_Driver/Src/stm32f4xx_hal_adc.c ****   */
1194:Drivers/STM32F4xx_HAL_Driver/Src/stm32f4xx_hal_adc.c **** uint32_t HAL_ADC_GetValue(ADC_HandleTypeDef* hadc)
1195:Drivers/STM32F4xx_HAL_Driver/Src/stm32f4xx_hal_adc.c **** {       
1196:Drivers/STM32F4xx_HAL_Driver/Src/stm32f4xx_hal_adc.c ****   /* Return the selected ADC converted value */ 
1197:Drivers/STM32F4xx_HAL_Driver/Src/stm32f4xx_hal_adc.c ****   return hadc->Instance->DR;
1198:Drivers/STM32F4xx_HAL_Driver/Src/stm32f4xx_hal_adc.c **** }
1199:Drivers/STM32F4xx_HAL_Driver/Src/stm32f4xx_hal_adc.c **** 
1200:Drivers/STM32F4xx_HAL_Driver/Src/stm32f4xx_hal_adc.c **** /**
1201:Drivers/STM32F4xx_HAL_Driver/Src/stm32f4xx_hal_adc.c ****   * @brief  Regular conversion complete callback in non blocking mode 
1202:Drivers/STM32F4xx_HAL_Driver/Src/stm32f4xx_hal_adc.c ****   * @param  hadc pointer to a ADC_HandleTypeDef structure that contains
1203:Drivers/STM32F4xx_HAL_Driver/Src/stm32f4xx_hal_adc.c ****   *         the configuration information for the specified ADC.
1204:Drivers/STM32F4xx_HAL_Driver/Src/stm32f4xx_hal_adc.c ****   * @retval None
1205:Drivers/STM32F4xx_HAL_Driver/Src/stm32f4xx_hal_adc.c ****   */
1206:Drivers/STM32F4xx_HAL_Driver/Src/stm32f4xx_hal_adc.c **** __weak void HAL_ADC_ConvCpltCallback(ADC_HandleTypeDef* hadc)
1207:Drivers/STM32F4xx_HAL_Driver/Src/stm32f4xx_hal_adc.c **** {
1208:Drivers/STM32F4xx_HAL_Driver/Src/stm32f4xx_hal_adc.c ****   /* Prevent unused argument(s) compilation warning */
1209:Drivers/STM32F4xx_HAL_Driver/Src/stm32f4xx_hal_adc.c ****   UNUSED(hadc);
1210:Drivers/STM32F4xx_HAL_Driver/Src/stm32f4xx_hal_adc.c ****   /* NOTE : This function Should not be modified, when the callback is needed,
1211:Drivers/STM32F4xx_HAL_Driver/Src/stm32f4xx_hal_adc.c ****             the HAL_ADC_ConvCpltCallback could be implemented in the user file
1212:Drivers/STM32F4xx_HAL_Driver/Src/stm32f4xx_hal_adc.c ****    */
1213:Drivers/STM32F4xx_HAL_Driver/Src/stm32f4xx_hal_adc.c **** }
1214:Drivers/STM32F4xx_HAL_Driver/Src/stm32f4xx_hal_adc.c **** 
1215:Drivers/STM32F4xx_HAL_Driver/Src/stm32f4xx_hal_adc.c **** /**
1216:Drivers/STM32F4xx_HAL_Driver/Src/stm32f4xx_hal_adc.c ****   * @brief  Regular conversion half DMA transfer callback in non blocking mode 
1217:Drivers/STM32F4xx_HAL_Driver/Src/stm32f4xx_hal_adc.c ****   * @param  hadc pointer to a ADC_HandleTypeDef structure that contains
1218:Drivers/STM32F4xx_HAL_Driver/Src/stm32f4xx_hal_adc.c ****   *         the configuration information for the specified ADC.
1219:Drivers/STM32F4xx_HAL_Driver/Src/stm32f4xx_hal_adc.c ****   * @retval None
1220:Drivers/STM32F4xx_HAL_Driver/Src/stm32f4xx_hal_adc.c ****   */
1221:Drivers/STM32F4xx_HAL_Driver/Src/stm32f4xx_hal_adc.c **** __weak void HAL_ADC_ConvHalfCpltCallback(ADC_HandleTypeDef* hadc)
1222:Drivers/STM32F4xx_HAL_Driver/Src/stm32f4xx_hal_adc.c **** {
1223:Drivers/STM32F4xx_HAL_Driver/Src/stm32f4xx_hal_adc.c ****   /* Prevent unused argument(s) compilation warning */
1224:Drivers/STM32F4xx_HAL_Driver/Src/stm32f4xx_hal_adc.c ****   UNUSED(hadc);
1225:Drivers/STM32F4xx_HAL_Driver/Src/stm32f4xx_hal_adc.c ****   /* NOTE : This function Should not be modified, when the callback is needed,
1226:Drivers/STM32F4xx_HAL_Driver/Src/stm32f4xx_hal_adc.c ****             the HAL_ADC_ConvHalfCpltCallback could be implemented in the user file
1227:Drivers/STM32F4xx_HAL_Driver/Src/stm32f4xx_hal_adc.c ****    */
1228:Drivers/STM32F4xx_HAL_Driver/Src/stm32f4xx_hal_adc.c **** }
1229:Drivers/STM32F4xx_HAL_Driver/Src/stm32f4xx_hal_adc.c **** 
ARM GAS  C:\Users\n-is\AppData\Local\Temp\cc3jxhl4.s 			page 23


1230:Drivers/STM32F4xx_HAL_Driver/Src/stm32f4xx_hal_adc.c **** /**
1231:Drivers/STM32F4xx_HAL_Driver/Src/stm32f4xx_hal_adc.c ****   * @brief  Analog watchdog callback in non blocking mode 
1232:Drivers/STM32F4xx_HAL_Driver/Src/stm32f4xx_hal_adc.c ****   * @param  hadc pointer to a ADC_HandleTypeDef structure that contains
1233:Drivers/STM32F4xx_HAL_Driver/Src/stm32f4xx_hal_adc.c ****   *         the configuration information for the specified ADC.
1234:Drivers/STM32F4xx_HAL_Driver/Src/stm32f4xx_hal_adc.c ****   * @retval None
1235:Drivers/STM32F4xx_HAL_Driver/Src/stm32f4xx_hal_adc.c ****   */
1236:Drivers/STM32F4xx_HAL_Driver/Src/stm32f4xx_hal_adc.c **** __weak void HAL_ADC_LevelOutOfWindowCallback(ADC_HandleTypeDef* hadc)
1237:Drivers/STM32F4xx_HAL_Driver/Src/stm32f4xx_hal_adc.c **** {
1238:Drivers/STM32F4xx_HAL_Driver/Src/stm32f4xx_hal_adc.c ****   /* Prevent unused argument(s) compilation warning */
1239:Drivers/STM32F4xx_HAL_Driver/Src/stm32f4xx_hal_adc.c ****   UNUSED(hadc);
1240:Drivers/STM32F4xx_HAL_Driver/Src/stm32f4xx_hal_adc.c ****   /* NOTE : This function Should not be modified, when the callback is needed,
1241:Drivers/STM32F4xx_HAL_Driver/Src/stm32f4xx_hal_adc.c ****             the HAL_ADC_LevelOoutOfWindowCallback could be implemented in the user file
1242:Drivers/STM32F4xx_HAL_Driver/Src/stm32f4xx_hal_adc.c ****    */
1243:Drivers/STM32F4xx_HAL_Driver/Src/stm32f4xx_hal_adc.c **** }
1244:Drivers/STM32F4xx_HAL_Driver/Src/stm32f4xx_hal_adc.c **** 
1245:Drivers/STM32F4xx_HAL_Driver/Src/stm32f4xx_hal_adc.c **** /**
1246:Drivers/STM32F4xx_HAL_Driver/Src/stm32f4xx_hal_adc.c ****   * @brief  Error ADC callback.
1247:Drivers/STM32F4xx_HAL_Driver/Src/stm32f4xx_hal_adc.c ****   * @note   In case of error due to overrun when using ADC with DMA transfer 
1248:Drivers/STM32F4xx_HAL_Driver/Src/stm32f4xx_hal_adc.c ****   *         (HAL ADC handle paramater "ErrorCode" to state "HAL_ADC_ERROR_OVR"):
1249:Drivers/STM32F4xx_HAL_Driver/Src/stm32f4xx_hal_adc.c ****   *         - Reinitialize the DMA using function "HAL_ADC_Stop_DMA()".
1250:Drivers/STM32F4xx_HAL_Driver/Src/stm32f4xx_hal_adc.c ****   *         - If needed, restart a new ADC conversion using function
1251:Drivers/STM32F4xx_HAL_Driver/Src/stm32f4xx_hal_adc.c ****   *           "HAL_ADC_Start_DMA()"
1252:Drivers/STM32F4xx_HAL_Driver/Src/stm32f4xx_hal_adc.c ****   *           (this function is also clearing overrun flag)
1253:Drivers/STM32F4xx_HAL_Driver/Src/stm32f4xx_hal_adc.c ****   * @param  hadc pointer to a ADC_HandleTypeDef structure that contains
1254:Drivers/STM32F4xx_HAL_Driver/Src/stm32f4xx_hal_adc.c ****   *         the configuration information for the specified ADC.
1255:Drivers/STM32F4xx_HAL_Driver/Src/stm32f4xx_hal_adc.c ****   * @retval None
1256:Drivers/STM32F4xx_HAL_Driver/Src/stm32f4xx_hal_adc.c ****   */
1257:Drivers/STM32F4xx_HAL_Driver/Src/stm32f4xx_hal_adc.c **** __weak void HAL_ADC_ErrorCallback(ADC_HandleTypeDef *hadc)
1258:Drivers/STM32F4xx_HAL_Driver/Src/stm32f4xx_hal_adc.c **** {
1259:Drivers/STM32F4xx_HAL_Driver/Src/stm32f4xx_hal_adc.c ****   /* Prevent unused argument(s) compilation warning */
1260:Drivers/STM32F4xx_HAL_Driver/Src/stm32f4xx_hal_adc.c ****   UNUSED(hadc);
1261:Drivers/STM32F4xx_HAL_Driver/Src/stm32f4xx_hal_adc.c ****   /* NOTE : This function Should not be modified, when the callback is needed,
1262:Drivers/STM32F4xx_HAL_Driver/Src/stm32f4xx_hal_adc.c ****             the HAL_ADC_ErrorCallback could be implemented in the user file
1263:Drivers/STM32F4xx_HAL_Driver/Src/stm32f4xx_hal_adc.c ****    */
1264:Drivers/STM32F4xx_HAL_Driver/Src/stm32f4xx_hal_adc.c **** }
1265:Drivers/STM32F4xx_HAL_Driver/Src/stm32f4xx_hal_adc.c **** 
1266:Drivers/STM32F4xx_HAL_Driver/Src/stm32f4xx_hal_adc.c **** /**
1267:Drivers/STM32F4xx_HAL_Driver/Src/stm32f4xx_hal_adc.c ****   * @}
1268:Drivers/STM32F4xx_HAL_Driver/Src/stm32f4xx_hal_adc.c ****   */
1269:Drivers/STM32F4xx_HAL_Driver/Src/stm32f4xx_hal_adc.c ****   
1270:Drivers/STM32F4xx_HAL_Driver/Src/stm32f4xx_hal_adc.c **** /** @defgroup ADC_Exported_Functions_Group3 Peripheral Control functions
1271:Drivers/STM32F4xx_HAL_Driver/Src/stm32f4xx_hal_adc.c ****  *  @brief   	Peripheral Control functions 
1272:Drivers/STM32F4xx_HAL_Driver/Src/stm32f4xx_hal_adc.c ****  *
1273:Drivers/STM32F4xx_HAL_Driver/Src/stm32f4xx_hal_adc.c **** @verbatim   
1274:Drivers/STM32F4xx_HAL_Driver/Src/stm32f4xx_hal_adc.c ****  ===============================================================================
1275:Drivers/STM32F4xx_HAL_Driver/Src/stm32f4xx_hal_adc.c ****              ##### Peripheral Control functions #####
1276:Drivers/STM32F4xx_HAL_Driver/Src/stm32f4xx_hal_adc.c ****  ===============================================================================  
1277:Drivers/STM32F4xx_HAL_Driver/Src/stm32f4xx_hal_adc.c ****     [..]  This section provides functions allowing to:
1278:Drivers/STM32F4xx_HAL_Driver/Src/stm32f4xx_hal_adc.c ****       (+) Configure regular channels. 
1279:Drivers/STM32F4xx_HAL_Driver/Src/stm32f4xx_hal_adc.c ****       (+) Configure injected channels.
1280:Drivers/STM32F4xx_HAL_Driver/Src/stm32f4xx_hal_adc.c ****       (+) Configure multimode.
1281:Drivers/STM32F4xx_HAL_Driver/Src/stm32f4xx_hal_adc.c ****       (+) Configure the analog watch dog.
1282:Drivers/STM32F4xx_HAL_Driver/Src/stm32f4xx_hal_adc.c ****       
1283:Drivers/STM32F4xx_HAL_Driver/Src/stm32f4xx_hal_adc.c **** @endverbatim
1284:Drivers/STM32F4xx_HAL_Driver/Src/stm32f4xx_hal_adc.c ****   * @{
1285:Drivers/STM32F4xx_HAL_Driver/Src/stm32f4xx_hal_adc.c ****   */
1286:Drivers/STM32F4xx_HAL_Driver/Src/stm32f4xx_hal_adc.c **** 
ARM GAS  C:\Users\n-is\AppData\Local\Temp\cc3jxhl4.s 			page 24


1287:Drivers/STM32F4xx_HAL_Driver/Src/stm32f4xx_hal_adc.c ****   /**
1288:Drivers/STM32F4xx_HAL_Driver/Src/stm32f4xx_hal_adc.c ****   * @brief  Configures for the selected ADC regular channel its corresponding
1289:Drivers/STM32F4xx_HAL_Driver/Src/stm32f4xx_hal_adc.c ****   *         rank in the sequencer and its sample time.
1290:Drivers/STM32F4xx_HAL_Driver/Src/stm32f4xx_hal_adc.c ****   * @param  hadc pointer to a ADC_HandleTypeDef structure that contains
1291:Drivers/STM32F4xx_HAL_Driver/Src/stm32f4xx_hal_adc.c ****   *         the configuration information for the specified ADC.
1292:Drivers/STM32F4xx_HAL_Driver/Src/stm32f4xx_hal_adc.c ****   * @param  sConfig ADC configuration structure. 
1293:Drivers/STM32F4xx_HAL_Driver/Src/stm32f4xx_hal_adc.c ****   * @retval HAL status
1294:Drivers/STM32F4xx_HAL_Driver/Src/stm32f4xx_hal_adc.c ****   */
1295:Drivers/STM32F4xx_HAL_Driver/Src/stm32f4xx_hal_adc.c **** HAL_StatusTypeDef HAL_ADC_ConfigChannel(ADC_HandleTypeDef* hadc, ADC_ChannelConfTypeDef* sConfig)
1296:Drivers/STM32F4xx_HAL_Driver/Src/stm32f4xx_hal_adc.c **** {
1297:Drivers/STM32F4xx_HAL_Driver/Src/stm32f4xx_hal_adc.c ****   __IO uint32_t counter = 0U;
1298:Drivers/STM32F4xx_HAL_Driver/Src/stm32f4xx_hal_adc.c ****   ADC_Common_TypeDef *tmpADC_Common;
1299:Drivers/STM32F4xx_HAL_Driver/Src/stm32f4xx_hal_adc.c ****   
1300:Drivers/STM32F4xx_HAL_Driver/Src/stm32f4xx_hal_adc.c ****   /* Check the parameters */
1301:Drivers/STM32F4xx_HAL_Driver/Src/stm32f4xx_hal_adc.c ****   assert_param(IS_ADC_CHANNEL(sConfig->Channel));
1302:Drivers/STM32F4xx_HAL_Driver/Src/stm32f4xx_hal_adc.c ****   assert_param(IS_ADC_REGULAR_RANK(sConfig->Rank));
1303:Drivers/STM32F4xx_HAL_Driver/Src/stm32f4xx_hal_adc.c ****   assert_param(IS_ADC_SAMPLE_TIME(sConfig->SamplingTime));
1304:Drivers/STM32F4xx_HAL_Driver/Src/stm32f4xx_hal_adc.c ****   
1305:Drivers/STM32F4xx_HAL_Driver/Src/stm32f4xx_hal_adc.c ****   /* Process locked */
1306:Drivers/STM32F4xx_HAL_Driver/Src/stm32f4xx_hal_adc.c ****   __HAL_LOCK(hadc);
1307:Drivers/STM32F4xx_HAL_Driver/Src/stm32f4xx_hal_adc.c ****     
1308:Drivers/STM32F4xx_HAL_Driver/Src/stm32f4xx_hal_adc.c ****   /* if ADC_Channel_10 ... ADC_Channel_18 is selected */
1309:Drivers/STM32F4xx_HAL_Driver/Src/stm32f4xx_hal_adc.c ****   if (sConfig->Channel > ADC_CHANNEL_9)
1310:Drivers/STM32F4xx_HAL_Driver/Src/stm32f4xx_hal_adc.c ****   {
1311:Drivers/STM32F4xx_HAL_Driver/Src/stm32f4xx_hal_adc.c ****     /* Clear the old sample time */
1312:Drivers/STM32F4xx_HAL_Driver/Src/stm32f4xx_hal_adc.c ****     hadc->Instance->SMPR1 &= ~ADC_SMPR1(ADC_SMPR1_SMP10, sConfig->Channel);
1313:Drivers/STM32F4xx_HAL_Driver/Src/stm32f4xx_hal_adc.c ****     
1314:Drivers/STM32F4xx_HAL_Driver/Src/stm32f4xx_hal_adc.c ****     /* Set the new sample time */
1315:Drivers/STM32F4xx_HAL_Driver/Src/stm32f4xx_hal_adc.c ****     hadc->Instance->SMPR1 |= ADC_SMPR1(sConfig->SamplingTime, sConfig->Channel);
1316:Drivers/STM32F4xx_HAL_Driver/Src/stm32f4xx_hal_adc.c ****   }
1317:Drivers/STM32F4xx_HAL_Driver/Src/stm32f4xx_hal_adc.c ****   else /* ADC_Channel include in ADC_Channel_[0..9] */
1318:Drivers/STM32F4xx_HAL_Driver/Src/stm32f4xx_hal_adc.c ****   {
1319:Drivers/STM32F4xx_HAL_Driver/Src/stm32f4xx_hal_adc.c ****     /* Clear the old sample time */
1320:Drivers/STM32F4xx_HAL_Driver/Src/stm32f4xx_hal_adc.c ****     hadc->Instance->SMPR2 &= ~ADC_SMPR2(ADC_SMPR2_SMP0, sConfig->Channel);
1321:Drivers/STM32F4xx_HAL_Driver/Src/stm32f4xx_hal_adc.c ****     
1322:Drivers/STM32F4xx_HAL_Driver/Src/stm32f4xx_hal_adc.c ****     /* Set the new sample time */
1323:Drivers/STM32F4xx_HAL_Driver/Src/stm32f4xx_hal_adc.c ****     hadc->Instance->SMPR2 |= ADC_SMPR2(sConfig->SamplingTime, sConfig->Channel);
1324:Drivers/STM32F4xx_HAL_Driver/Src/stm32f4xx_hal_adc.c ****   }
1325:Drivers/STM32F4xx_HAL_Driver/Src/stm32f4xx_hal_adc.c ****   
1326:Drivers/STM32F4xx_HAL_Driver/Src/stm32f4xx_hal_adc.c ****   /* For Rank 1 to 6 */
1327:Drivers/STM32F4xx_HAL_Driver/Src/stm32f4xx_hal_adc.c ****   if (sConfig->Rank < 7U)
1328:Drivers/STM32F4xx_HAL_Driver/Src/stm32f4xx_hal_adc.c ****   {
1329:Drivers/STM32F4xx_HAL_Driver/Src/stm32f4xx_hal_adc.c ****     /* Clear the old SQx bits for the selected rank */
1330:Drivers/STM32F4xx_HAL_Driver/Src/stm32f4xx_hal_adc.c ****     hadc->Instance->SQR3 &= ~ADC_SQR3_RK(ADC_SQR3_SQ1, sConfig->Rank);
1331:Drivers/STM32F4xx_HAL_Driver/Src/stm32f4xx_hal_adc.c ****     
1332:Drivers/STM32F4xx_HAL_Driver/Src/stm32f4xx_hal_adc.c ****     /* Set the SQx bits for the selected rank */
1333:Drivers/STM32F4xx_HAL_Driver/Src/stm32f4xx_hal_adc.c ****     hadc->Instance->SQR3 |= ADC_SQR3_RK(sConfig->Channel, sConfig->Rank);
1334:Drivers/STM32F4xx_HAL_Driver/Src/stm32f4xx_hal_adc.c ****   }
1335:Drivers/STM32F4xx_HAL_Driver/Src/stm32f4xx_hal_adc.c ****   /* For Rank 7 to 12 */
1336:Drivers/STM32F4xx_HAL_Driver/Src/stm32f4xx_hal_adc.c ****   else if (sConfig->Rank < 13U)
1337:Drivers/STM32F4xx_HAL_Driver/Src/stm32f4xx_hal_adc.c ****   {
1338:Drivers/STM32F4xx_HAL_Driver/Src/stm32f4xx_hal_adc.c ****     /* Clear the old SQx bits for the selected rank */
1339:Drivers/STM32F4xx_HAL_Driver/Src/stm32f4xx_hal_adc.c ****     hadc->Instance->SQR2 &= ~ADC_SQR2_RK(ADC_SQR2_SQ7, sConfig->Rank);
1340:Drivers/STM32F4xx_HAL_Driver/Src/stm32f4xx_hal_adc.c ****     
1341:Drivers/STM32F4xx_HAL_Driver/Src/stm32f4xx_hal_adc.c ****     /* Set the SQx bits for the selected rank */
1342:Drivers/STM32F4xx_HAL_Driver/Src/stm32f4xx_hal_adc.c ****     hadc->Instance->SQR2 |= ADC_SQR2_RK(sConfig->Channel, sConfig->Rank);
1343:Drivers/STM32F4xx_HAL_Driver/Src/stm32f4xx_hal_adc.c ****   }
ARM GAS  C:\Users\n-is\AppData\Local\Temp\cc3jxhl4.s 			page 25


1344:Drivers/STM32F4xx_HAL_Driver/Src/stm32f4xx_hal_adc.c ****   /* For Rank 13 to 16 */
1345:Drivers/STM32F4xx_HAL_Driver/Src/stm32f4xx_hal_adc.c ****   else
1346:Drivers/STM32F4xx_HAL_Driver/Src/stm32f4xx_hal_adc.c ****   {
1347:Drivers/STM32F4xx_HAL_Driver/Src/stm32f4xx_hal_adc.c ****     /* Clear the old SQx bits for the selected rank */
1348:Drivers/STM32F4xx_HAL_Driver/Src/stm32f4xx_hal_adc.c ****     hadc->Instance->SQR1 &= ~ADC_SQR1_RK(ADC_SQR1_SQ13, sConfig->Rank);
1349:Drivers/STM32F4xx_HAL_Driver/Src/stm32f4xx_hal_adc.c ****     
1350:Drivers/STM32F4xx_HAL_Driver/Src/stm32f4xx_hal_adc.c ****     /* Set the SQx bits for the selected rank */
1351:Drivers/STM32F4xx_HAL_Driver/Src/stm32f4xx_hal_adc.c ****     hadc->Instance->SQR1 |= ADC_SQR1_RK(sConfig->Channel, sConfig->Rank);
1352:Drivers/STM32F4xx_HAL_Driver/Src/stm32f4xx_hal_adc.c ****   }
1353:Drivers/STM32F4xx_HAL_Driver/Src/stm32f4xx_hal_adc.c **** 
1354:Drivers/STM32F4xx_HAL_Driver/Src/stm32f4xx_hal_adc.c ****     /* Pointer to the common control register to which is belonging hadc    */
1355:Drivers/STM32F4xx_HAL_Driver/Src/stm32f4xx_hal_adc.c ****     /* (Depending on STM32F4 product, there may be up to 3 ADCs and 1 common */
1356:Drivers/STM32F4xx_HAL_Driver/Src/stm32f4xx_hal_adc.c ****     /* control register)                                                    */
1357:Drivers/STM32F4xx_HAL_Driver/Src/stm32f4xx_hal_adc.c ****     tmpADC_Common = ADC_COMMON_REGISTER(hadc);
1358:Drivers/STM32F4xx_HAL_Driver/Src/stm32f4xx_hal_adc.c **** 
1359:Drivers/STM32F4xx_HAL_Driver/Src/stm32f4xx_hal_adc.c ****   /* if ADC1 Channel_18 is selected enable VBAT Channel */
1360:Drivers/STM32F4xx_HAL_Driver/Src/stm32f4xx_hal_adc.c ****   if ((hadc->Instance == ADC1) && (sConfig->Channel == ADC_CHANNEL_VBAT))
1361:Drivers/STM32F4xx_HAL_Driver/Src/stm32f4xx_hal_adc.c ****   {
1362:Drivers/STM32F4xx_HAL_Driver/Src/stm32f4xx_hal_adc.c ****     /* Enable the VBAT channel*/
1363:Drivers/STM32F4xx_HAL_Driver/Src/stm32f4xx_hal_adc.c ****     tmpADC_Common->CCR |= ADC_CCR_VBATE;
1364:Drivers/STM32F4xx_HAL_Driver/Src/stm32f4xx_hal_adc.c ****   }
1365:Drivers/STM32F4xx_HAL_Driver/Src/stm32f4xx_hal_adc.c ****   
1366:Drivers/STM32F4xx_HAL_Driver/Src/stm32f4xx_hal_adc.c ****   /* if ADC1 Channel_16 or Channel_17 is selected enable TSVREFE Channel(Temperature sensor and VRE
1367:Drivers/STM32F4xx_HAL_Driver/Src/stm32f4xx_hal_adc.c ****   if ((hadc->Instance == ADC1) && ((sConfig->Channel == ADC_CHANNEL_TEMPSENSOR) || (sConfig->Channe
1368:Drivers/STM32F4xx_HAL_Driver/Src/stm32f4xx_hal_adc.c ****   {
1369:Drivers/STM32F4xx_HAL_Driver/Src/stm32f4xx_hal_adc.c ****     /* Enable the TSVREFE channel*/
1370:Drivers/STM32F4xx_HAL_Driver/Src/stm32f4xx_hal_adc.c ****     tmpADC_Common->CCR |= ADC_CCR_TSVREFE;
1371:Drivers/STM32F4xx_HAL_Driver/Src/stm32f4xx_hal_adc.c ****     
1372:Drivers/STM32F4xx_HAL_Driver/Src/stm32f4xx_hal_adc.c ****     if((sConfig->Channel == ADC_CHANNEL_TEMPSENSOR))
1373:Drivers/STM32F4xx_HAL_Driver/Src/stm32f4xx_hal_adc.c ****     {
1374:Drivers/STM32F4xx_HAL_Driver/Src/stm32f4xx_hal_adc.c ****       /* Delay for temperature sensor stabilization time */
1375:Drivers/STM32F4xx_HAL_Driver/Src/stm32f4xx_hal_adc.c ****       /* Compute number of CPU cycles to wait for */
1376:Drivers/STM32F4xx_HAL_Driver/Src/stm32f4xx_hal_adc.c ****       counter = (ADC_TEMPSENSOR_DELAY_US * (SystemCoreClock / 1000000U));
1377:Drivers/STM32F4xx_HAL_Driver/Src/stm32f4xx_hal_adc.c ****       while(counter != 0U)
1378:Drivers/STM32F4xx_HAL_Driver/Src/stm32f4xx_hal_adc.c ****       {
1379:Drivers/STM32F4xx_HAL_Driver/Src/stm32f4xx_hal_adc.c ****         counter--;
1380:Drivers/STM32F4xx_HAL_Driver/Src/stm32f4xx_hal_adc.c ****       }
1381:Drivers/STM32F4xx_HAL_Driver/Src/stm32f4xx_hal_adc.c ****     }
1382:Drivers/STM32F4xx_HAL_Driver/Src/stm32f4xx_hal_adc.c ****   }
1383:Drivers/STM32F4xx_HAL_Driver/Src/stm32f4xx_hal_adc.c ****   
1384:Drivers/STM32F4xx_HAL_Driver/Src/stm32f4xx_hal_adc.c ****   /* Process unlocked */
1385:Drivers/STM32F4xx_HAL_Driver/Src/stm32f4xx_hal_adc.c ****   __HAL_UNLOCK(hadc);
1386:Drivers/STM32F4xx_HAL_Driver/Src/stm32f4xx_hal_adc.c ****   
1387:Drivers/STM32F4xx_HAL_Driver/Src/stm32f4xx_hal_adc.c ****   /* Return function status */
1388:Drivers/STM32F4xx_HAL_Driver/Src/stm32f4xx_hal_adc.c ****   return HAL_OK;
1389:Drivers/STM32F4xx_HAL_Driver/Src/stm32f4xx_hal_adc.c **** }
1390:Drivers/STM32F4xx_HAL_Driver/Src/stm32f4xx_hal_adc.c **** 
1391:Drivers/STM32F4xx_HAL_Driver/Src/stm32f4xx_hal_adc.c **** /**
1392:Drivers/STM32F4xx_HAL_Driver/Src/stm32f4xx_hal_adc.c ****   * @brief  Configures the analog watchdog.
1393:Drivers/STM32F4xx_HAL_Driver/Src/stm32f4xx_hal_adc.c ****   * @note Analog watchdog thresholds can be modified while ADC conversion
1394:Drivers/STM32F4xx_HAL_Driver/Src/stm32f4xx_hal_adc.c ****   * is on going.
1395:Drivers/STM32F4xx_HAL_Driver/Src/stm32f4xx_hal_adc.c ****   * In this case, some constraints must be taken into account:
1396:Drivers/STM32F4xx_HAL_Driver/Src/stm32f4xx_hal_adc.c ****   * The programmed threshold values are effective from the next
1397:Drivers/STM32F4xx_HAL_Driver/Src/stm32f4xx_hal_adc.c ****   * ADC EOC (end of unitary conversion).
1398:Drivers/STM32F4xx_HAL_Driver/Src/stm32f4xx_hal_adc.c ****   * Considering that registers write delay may happen due to
1399:Drivers/STM32F4xx_HAL_Driver/Src/stm32f4xx_hal_adc.c ****   * bus activity, this might cause an uncertainty on the
1400:Drivers/STM32F4xx_HAL_Driver/Src/stm32f4xx_hal_adc.c ****   * effective timing of the new programmed threshold values.
ARM GAS  C:\Users\n-is\AppData\Local\Temp\cc3jxhl4.s 			page 26


1401:Drivers/STM32F4xx_HAL_Driver/Src/stm32f4xx_hal_adc.c ****   * @param  hadc pointer to a ADC_HandleTypeDef structure that contains
1402:Drivers/STM32F4xx_HAL_Driver/Src/stm32f4xx_hal_adc.c ****   *         the configuration information for the specified ADC.
1403:Drivers/STM32F4xx_HAL_Driver/Src/stm32f4xx_hal_adc.c ****   * @param  AnalogWDGConfig  pointer to an ADC_AnalogWDGConfTypeDef structure 
1404:Drivers/STM32F4xx_HAL_Driver/Src/stm32f4xx_hal_adc.c ****   *         that contains the configuration information of ADC analog watchdog.
1405:Drivers/STM32F4xx_HAL_Driver/Src/stm32f4xx_hal_adc.c ****   * @retval HAL status	  
1406:Drivers/STM32F4xx_HAL_Driver/Src/stm32f4xx_hal_adc.c ****   */
1407:Drivers/STM32F4xx_HAL_Driver/Src/stm32f4xx_hal_adc.c **** HAL_StatusTypeDef HAL_ADC_AnalogWDGConfig(ADC_HandleTypeDef* hadc, ADC_AnalogWDGConfTypeDef* Analog
1408:Drivers/STM32F4xx_HAL_Driver/Src/stm32f4xx_hal_adc.c **** {
1409:Drivers/STM32F4xx_HAL_Driver/Src/stm32f4xx_hal_adc.c **** #ifdef USE_FULL_ASSERT  
1410:Drivers/STM32F4xx_HAL_Driver/Src/stm32f4xx_hal_adc.c ****   uint32_t tmp = 0U;
1411:Drivers/STM32F4xx_HAL_Driver/Src/stm32f4xx_hal_adc.c **** #endif /* USE_FULL_ASSERT  */  
1412:Drivers/STM32F4xx_HAL_Driver/Src/stm32f4xx_hal_adc.c ****   
1413:Drivers/STM32F4xx_HAL_Driver/Src/stm32f4xx_hal_adc.c ****   /* Check the parameters */
1414:Drivers/STM32F4xx_HAL_Driver/Src/stm32f4xx_hal_adc.c ****   assert_param(IS_ADC_ANALOG_WATCHDOG(AnalogWDGConfig->WatchdogMode));
1415:Drivers/STM32F4xx_HAL_Driver/Src/stm32f4xx_hal_adc.c ****   assert_param(IS_ADC_CHANNEL(AnalogWDGConfig->Channel));
1416:Drivers/STM32F4xx_HAL_Driver/Src/stm32f4xx_hal_adc.c ****   assert_param(IS_FUNCTIONAL_STATE(AnalogWDGConfig->ITMode));
1417:Drivers/STM32F4xx_HAL_Driver/Src/stm32f4xx_hal_adc.c **** 
1418:Drivers/STM32F4xx_HAL_Driver/Src/stm32f4xx_hal_adc.c **** #ifdef USE_FULL_ASSERT  
1419:Drivers/STM32F4xx_HAL_Driver/Src/stm32f4xx_hal_adc.c ****   tmp = ADC_GET_RESOLUTION(hadc);
1420:Drivers/STM32F4xx_HAL_Driver/Src/stm32f4xx_hal_adc.c ****   assert_param(IS_ADC_RANGE(tmp, AnalogWDGConfig->HighThreshold));
1421:Drivers/STM32F4xx_HAL_Driver/Src/stm32f4xx_hal_adc.c ****   assert_param(IS_ADC_RANGE(tmp, AnalogWDGConfig->LowThreshold));
1422:Drivers/STM32F4xx_HAL_Driver/Src/stm32f4xx_hal_adc.c **** #endif /* USE_FULL_ASSERT  */
1423:Drivers/STM32F4xx_HAL_Driver/Src/stm32f4xx_hal_adc.c ****   
1424:Drivers/STM32F4xx_HAL_Driver/Src/stm32f4xx_hal_adc.c ****   /* Process locked */
1425:Drivers/STM32F4xx_HAL_Driver/Src/stm32f4xx_hal_adc.c ****   __HAL_LOCK(hadc);
1426:Drivers/STM32F4xx_HAL_Driver/Src/stm32f4xx_hal_adc.c ****   
1427:Drivers/STM32F4xx_HAL_Driver/Src/stm32f4xx_hal_adc.c ****   if(AnalogWDGConfig->ITMode == ENABLE)
1428:Drivers/STM32F4xx_HAL_Driver/Src/stm32f4xx_hal_adc.c ****   {
1429:Drivers/STM32F4xx_HAL_Driver/Src/stm32f4xx_hal_adc.c ****     /* Enable the ADC Analog watchdog interrupt */
1430:Drivers/STM32F4xx_HAL_Driver/Src/stm32f4xx_hal_adc.c ****     __HAL_ADC_ENABLE_IT(hadc, ADC_IT_AWD);
1431:Drivers/STM32F4xx_HAL_Driver/Src/stm32f4xx_hal_adc.c ****   }
1432:Drivers/STM32F4xx_HAL_Driver/Src/stm32f4xx_hal_adc.c ****   else
1433:Drivers/STM32F4xx_HAL_Driver/Src/stm32f4xx_hal_adc.c ****   {
1434:Drivers/STM32F4xx_HAL_Driver/Src/stm32f4xx_hal_adc.c ****     /* Disable the ADC Analog watchdog interrupt */
1435:Drivers/STM32F4xx_HAL_Driver/Src/stm32f4xx_hal_adc.c ****     __HAL_ADC_DISABLE_IT(hadc, ADC_IT_AWD);
1436:Drivers/STM32F4xx_HAL_Driver/Src/stm32f4xx_hal_adc.c ****   }
1437:Drivers/STM32F4xx_HAL_Driver/Src/stm32f4xx_hal_adc.c ****   
1438:Drivers/STM32F4xx_HAL_Driver/Src/stm32f4xx_hal_adc.c ****   /* Clear AWDEN, JAWDEN and AWDSGL bits */
1439:Drivers/STM32F4xx_HAL_Driver/Src/stm32f4xx_hal_adc.c ****   hadc->Instance->CR1 &=  ~(ADC_CR1_AWDSGL | ADC_CR1_JAWDEN | ADC_CR1_AWDEN);
1440:Drivers/STM32F4xx_HAL_Driver/Src/stm32f4xx_hal_adc.c ****   
1441:Drivers/STM32F4xx_HAL_Driver/Src/stm32f4xx_hal_adc.c ****   /* Set the analog watchdog enable mode */
1442:Drivers/STM32F4xx_HAL_Driver/Src/stm32f4xx_hal_adc.c ****   hadc->Instance->CR1 |= AnalogWDGConfig->WatchdogMode;
1443:Drivers/STM32F4xx_HAL_Driver/Src/stm32f4xx_hal_adc.c ****   
1444:Drivers/STM32F4xx_HAL_Driver/Src/stm32f4xx_hal_adc.c ****   /* Set the high threshold */
1445:Drivers/STM32F4xx_HAL_Driver/Src/stm32f4xx_hal_adc.c ****   hadc->Instance->HTR = AnalogWDGConfig->HighThreshold;
1446:Drivers/STM32F4xx_HAL_Driver/Src/stm32f4xx_hal_adc.c ****   
1447:Drivers/STM32F4xx_HAL_Driver/Src/stm32f4xx_hal_adc.c ****   /* Set the low threshold */
1448:Drivers/STM32F4xx_HAL_Driver/Src/stm32f4xx_hal_adc.c ****   hadc->Instance->LTR = AnalogWDGConfig->LowThreshold;
1449:Drivers/STM32F4xx_HAL_Driver/Src/stm32f4xx_hal_adc.c ****   
1450:Drivers/STM32F4xx_HAL_Driver/Src/stm32f4xx_hal_adc.c ****   /* Clear the Analog watchdog channel select bits */
1451:Drivers/STM32F4xx_HAL_Driver/Src/stm32f4xx_hal_adc.c ****   hadc->Instance->CR1 &= ~ADC_CR1_AWDCH;
1452:Drivers/STM32F4xx_HAL_Driver/Src/stm32f4xx_hal_adc.c ****   
1453:Drivers/STM32F4xx_HAL_Driver/Src/stm32f4xx_hal_adc.c ****   /* Set the Analog watchdog channel */
1454:Drivers/STM32F4xx_HAL_Driver/Src/stm32f4xx_hal_adc.c ****   hadc->Instance->CR1 |= (uint32_t)((uint16_t)(AnalogWDGConfig->Channel));
1455:Drivers/STM32F4xx_HAL_Driver/Src/stm32f4xx_hal_adc.c ****   
1456:Drivers/STM32F4xx_HAL_Driver/Src/stm32f4xx_hal_adc.c ****   /* Process unlocked */
1457:Drivers/STM32F4xx_HAL_Driver/Src/stm32f4xx_hal_adc.c ****   __HAL_UNLOCK(hadc);
ARM GAS  C:\Users\n-is\AppData\Local\Temp\cc3jxhl4.s 			page 27


1458:Drivers/STM32F4xx_HAL_Driver/Src/stm32f4xx_hal_adc.c ****   
1459:Drivers/STM32F4xx_HAL_Driver/Src/stm32f4xx_hal_adc.c ****   /* Return function status */
1460:Drivers/STM32F4xx_HAL_Driver/Src/stm32f4xx_hal_adc.c ****   return HAL_OK;
1461:Drivers/STM32F4xx_HAL_Driver/Src/stm32f4xx_hal_adc.c **** }
1462:Drivers/STM32F4xx_HAL_Driver/Src/stm32f4xx_hal_adc.c **** 
1463:Drivers/STM32F4xx_HAL_Driver/Src/stm32f4xx_hal_adc.c **** /**
1464:Drivers/STM32F4xx_HAL_Driver/Src/stm32f4xx_hal_adc.c ****   * @}
1465:Drivers/STM32F4xx_HAL_Driver/Src/stm32f4xx_hal_adc.c ****   */
1466:Drivers/STM32F4xx_HAL_Driver/Src/stm32f4xx_hal_adc.c **** 
1467:Drivers/STM32F4xx_HAL_Driver/Src/stm32f4xx_hal_adc.c **** /** @defgroup ADC_Exported_Functions_Group4 ADC Peripheral State functions
1468:Drivers/STM32F4xx_HAL_Driver/Src/stm32f4xx_hal_adc.c ****  *  @brief   ADC Peripheral State functions 
1469:Drivers/STM32F4xx_HAL_Driver/Src/stm32f4xx_hal_adc.c ****  *
1470:Drivers/STM32F4xx_HAL_Driver/Src/stm32f4xx_hal_adc.c **** @verbatim   
1471:Drivers/STM32F4xx_HAL_Driver/Src/stm32f4xx_hal_adc.c ****  ===============================================================================
1472:Drivers/STM32F4xx_HAL_Driver/Src/stm32f4xx_hal_adc.c ****             ##### Peripheral State and errors functions #####
1473:Drivers/STM32F4xx_HAL_Driver/Src/stm32f4xx_hal_adc.c ****  ===============================================================================  
1474:Drivers/STM32F4xx_HAL_Driver/Src/stm32f4xx_hal_adc.c ****     [..]
1475:Drivers/STM32F4xx_HAL_Driver/Src/stm32f4xx_hal_adc.c ****     This subsection provides functions allowing to
1476:Drivers/STM32F4xx_HAL_Driver/Src/stm32f4xx_hal_adc.c ****       (+) Check the ADC state
1477:Drivers/STM32F4xx_HAL_Driver/Src/stm32f4xx_hal_adc.c ****       (+) Check the ADC Error
1478:Drivers/STM32F4xx_HAL_Driver/Src/stm32f4xx_hal_adc.c ****          
1479:Drivers/STM32F4xx_HAL_Driver/Src/stm32f4xx_hal_adc.c **** @endverbatim
1480:Drivers/STM32F4xx_HAL_Driver/Src/stm32f4xx_hal_adc.c ****   * @{
1481:Drivers/STM32F4xx_HAL_Driver/Src/stm32f4xx_hal_adc.c ****   */
1482:Drivers/STM32F4xx_HAL_Driver/Src/stm32f4xx_hal_adc.c ****   
1483:Drivers/STM32F4xx_HAL_Driver/Src/stm32f4xx_hal_adc.c **** /**
1484:Drivers/STM32F4xx_HAL_Driver/Src/stm32f4xx_hal_adc.c ****   * @brief  return the ADC state
1485:Drivers/STM32F4xx_HAL_Driver/Src/stm32f4xx_hal_adc.c ****   * @param  hadc pointer to a ADC_HandleTypeDef structure that contains
1486:Drivers/STM32F4xx_HAL_Driver/Src/stm32f4xx_hal_adc.c ****   *         the configuration information for the specified ADC.
1487:Drivers/STM32F4xx_HAL_Driver/Src/stm32f4xx_hal_adc.c ****   * @retval HAL state
1488:Drivers/STM32F4xx_HAL_Driver/Src/stm32f4xx_hal_adc.c ****   */
1489:Drivers/STM32F4xx_HAL_Driver/Src/stm32f4xx_hal_adc.c **** uint32_t HAL_ADC_GetState(ADC_HandleTypeDef* hadc)
1490:Drivers/STM32F4xx_HAL_Driver/Src/stm32f4xx_hal_adc.c **** {
1491:Drivers/STM32F4xx_HAL_Driver/Src/stm32f4xx_hal_adc.c ****   /* Return ADC state */
1492:Drivers/STM32F4xx_HAL_Driver/Src/stm32f4xx_hal_adc.c ****   return hadc->State;
1493:Drivers/STM32F4xx_HAL_Driver/Src/stm32f4xx_hal_adc.c **** }
1494:Drivers/STM32F4xx_HAL_Driver/Src/stm32f4xx_hal_adc.c **** 
1495:Drivers/STM32F4xx_HAL_Driver/Src/stm32f4xx_hal_adc.c **** /**
1496:Drivers/STM32F4xx_HAL_Driver/Src/stm32f4xx_hal_adc.c ****   * @brief  Return the ADC error code
1497:Drivers/STM32F4xx_HAL_Driver/Src/stm32f4xx_hal_adc.c ****   * @param  hadc pointer to a ADC_HandleTypeDef structure that contains
1498:Drivers/STM32F4xx_HAL_Driver/Src/stm32f4xx_hal_adc.c ****   *         the configuration information for the specified ADC.
1499:Drivers/STM32F4xx_HAL_Driver/Src/stm32f4xx_hal_adc.c ****   * @retval ADC Error Code
1500:Drivers/STM32F4xx_HAL_Driver/Src/stm32f4xx_hal_adc.c ****   */
1501:Drivers/STM32F4xx_HAL_Driver/Src/stm32f4xx_hal_adc.c **** uint32_t HAL_ADC_GetError(ADC_HandleTypeDef *hadc)
1502:Drivers/STM32F4xx_HAL_Driver/Src/stm32f4xx_hal_adc.c **** {
1503:Drivers/STM32F4xx_HAL_Driver/Src/stm32f4xx_hal_adc.c ****   return hadc->ErrorCode;
1504:Drivers/STM32F4xx_HAL_Driver/Src/stm32f4xx_hal_adc.c **** }
1505:Drivers/STM32F4xx_HAL_Driver/Src/stm32f4xx_hal_adc.c **** 
1506:Drivers/STM32F4xx_HAL_Driver/Src/stm32f4xx_hal_adc.c **** /**
1507:Drivers/STM32F4xx_HAL_Driver/Src/stm32f4xx_hal_adc.c ****   * @}
1508:Drivers/STM32F4xx_HAL_Driver/Src/stm32f4xx_hal_adc.c ****   */
1509:Drivers/STM32F4xx_HAL_Driver/Src/stm32f4xx_hal_adc.c **** 
1510:Drivers/STM32F4xx_HAL_Driver/Src/stm32f4xx_hal_adc.c **** /** @addtogroup ADC_Private_Functions
1511:Drivers/STM32F4xx_HAL_Driver/Src/stm32f4xx_hal_adc.c ****   * @{
1512:Drivers/STM32F4xx_HAL_Driver/Src/stm32f4xx_hal_adc.c ****   */
1513:Drivers/STM32F4xx_HAL_Driver/Src/stm32f4xx_hal_adc.c **** 
1514:Drivers/STM32F4xx_HAL_Driver/Src/stm32f4xx_hal_adc.c **** /**
ARM GAS  C:\Users\n-is\AppData\Local\Temp\cc3jxhl4.s 			page 28


1515:Drivers/STM32F4xx_HAL_Driver/Src/stm32f4xx_hal_adc.c ****   * @brief  Initializes the ADCx peripheral according to the specified parameters 
1516:Drivers/STM32F4xx_HAL_Driver/Src/stm32f4xx_hal_adc.c ****   *         in the ADC_InitStruct without initializing the ADC MSP.       
1517:Drivers/STM32F4xx_HAL_Driver/Src/stm32f4xx_hal_adc.c ****   * @param  hadc pointer to a ADC_HandleTypeDef structure that contains
1518:Drivers/STM32F4xx_HAL_Driver/Src/stm32f4xx_hal_adc.c ****   *         the configuration information for the specified ADC.  
1519:Drivers/STM32F4xx_HAL_Driver/Src/stm32f4xx_hal_adc.c ****   * @retval None
1520:Drivers/STM32F4xx_HAL_Driver/Src/stm32f4xx_hal_adc.c ****   */
1521:Drivers/STM32F4xx_HAL_Driver/Src/stm32f4xx_hal_adc.c **** static void ADC_Init(ADC_HandleTypeDef* hadc)
1522:Drivers/STM32F4xx_HAL_Driver/Src/stm32f4xx_hal_adc.c **** {
  27              		.loc 1 1522 0
  28              		.cfi_startproc
  29              		@ args = 0, pretend = 0, frame = 0
  30              		@ frame_needed = 0, uses_anonymous_args = 0
  31              	.LVL0:
  32 0000 10B5     		push	{r4, lr}
  33              	.LCFI0:
  34              		.cfi_def_cfa_offset 8
  35              		.cfi_offset 4, -8
  36              		.cfi_offset 14, -4
  37 0002 0446     		mov	r4, r0
  38              	.LVL1:
1523:Drivers/STM32F4xx_HAL_Driver/Src/stm32f4xx_hal_adc.c ****   ADC_Common_TypeDef *tmpADC_Common;
1524:Drivers/STM32F4xx_HAL_Driver/Src/stm32f4xx_hal_adc.c ****   
1525:Drivers/STM32F4xx_HAL_Driver/Src/stm32f4xx_hal_adc.c ****   /* Set ADC parameters */
1526:Drivers/STM32F4xx_HAL_Driver/Src/stm32f4xx_hal_adc.c ****   /* Pointer to the common control register to which is belonging hadc    */
1527:Drivers/STM32F4xx_HAL_Driver/Src/stm32f4xx_hal_adc.c ****   /* (Depending on STM32F4 product, there may be up to 3 ADCs and 1 common */
1528:Drivers/STM32F4xx_HAL_Driver/Src/stm32f4xx_hal_adc.c ****   /* control register)                                                    */
1529:Drivers/STM32F4xx_HAL_Driver/Src/stm32f4xx_hal_adc.c ****   tmpADC_Common = ADC_COMMON_REGISTER(hadc);
1530:Drivers/STM32F4xx_HAL_Driver/Src/stm32f4xx_hal_adc.c ****   
1531:Drivers/STM32F4xx_HAL_Driver/Src/stm32f4xx_hal_adc.c ****   /* Set the ADC clock prescaler */
1532:Drivers/STM32F4xx_HAL_Driver/Src/stm32f4xx_hal_adc.c ****   tmpADC_Common->CCR &= ~(ADC_CCR_ADCPRE);
  39              		.loc 1 1532 0
  40 0004 4E4B     		ldr	r3, .L9
  41 0006 5A68     		ldr	r2, [r3, #4]
  42 0008 22F44032 		bic	r2, r2, #196608
  43 000c 5A60     		str	r2, [r3, #4]
1533:Drivers/STM32F4xx_HAL_Driver/Src/stm32f4xx_hal_adc.c ****   tmpADC_Common->CCR |=  hadc->Init.ClockPrescaler;
  44              		.loc 1 1533 0
  45 000e 5A68     		ldr	r2, [r3, #4]
  46 0010 4168     		ldr	r1, [r0, #4]
  47 0012 0A43     		orrs	r2, r2, r1
  48 0014 5A60     		str	r2, [r3, #4]
1534:Drivers/STM32F4xx_HAL_Driver/Src/stm32f4xx_hal_adc.c ****   
1535:Drivers/STM32F4xx_HAL_Driver/Src/stm32f4xx_hal_adc.c ****   /* Set ADC scan mode */
1536:Drivers/STM32F4xx_HAL_Driver/Src/stm32f4xx_hal_adc.c ****   hadc->Instance->CR1 &= ~(ADC_CR1_SCAN);
  49              		.loc 1 1536 0
  50 0016 0268     		ldr	r2, [r0]
  51 0018 5368     		ldr	r3, [r2, #4]
  52 001a 23F48073 		bic	r3, r3, #256
  53 001e 5360     		str	r3, [r2, #4]
1537:Drivers/STM32F4xx_HAL_Driver/Src/stm32f4xx_hal_adc.c ****   hadc->Instance->CR1 |=  ADC_CR1_SCANCONV(hadc->Init.ScanConvMode);
  54              		.loc 1 1537 0
  55 0020 0268     		ldr	r2, [r0]
  56 0022 5368     		ldr	r3, [r2, #4]
  57 0024 0169     		ldr	r1, [r0, #16]
  58 0026 43EA0123 		orr	r3, r3, r1, lsl #8
  59 002a 5360     		str	r3, [r2, #4]
1538:Drivers/STM32F4xx_HAL_Driver/Src/stm32f4xx_hal_adc.c ****   
ARM GAS  C:\Users\n-is\AppData\Local\Temp\cc3jxhl4.s 			page 29


1539:Drivers/STM32F4xx_HAL_Driver/Src/stm32f4xx_hal_adc.c ****   /* Set ADC resolution */
1540:Drivers/STM32F4xx_HAL_Driver/Src/stm32f4xx_hal_adc.c ****   hadc->Instance->CR1 &= ~(ADC_CR1_RES);
  60              		.loc 1 1540 0
  61 002c 0268     		ldr	r2, [r0]
  62 002e 5368     		ldr	r3, [r2, #4]
  63 0030 23F04073 		bic	r3, r3, #50331648
  64 0034 5360     		str	r3, [r2, #4]
1541:Drivers/STM32F4xx_HAL_Driver/Src/stm32f4xx_hal_adc.c ****   hadc->Instance->CR1 |=  hadc->Init.Resolution;
  65              		.loc 1 1541 0
  66 0036 0268     		ldr	r2, [r0]
  67 0038 5368     		ldr	r3, [r2, #4]
  68 003a 8168     		ldr	r1, [r0, #8]
  69 003c 0B43     		orrs	r3, r3, r1
  70 003e 5360     		str	r3, [r2, #4]
1542:Drivers/STM32F4xx_HAL_Driver/Src/stm32f4xx_hal_adc.c ****   
1543:Drivers/STM32F4xx_HAL_Driver/Src/stm32f4xx_hal_adc.c ****   /* Set ADC data alignment */
1544:Drivers/STM32F4xx_HAL_Driver/Src/stm32f4xx_hal_adc.c ****   hadc->Instance->CR2 &= ~(ADC_CR2_ALIGN);
  71              		.loc 1 1544 0
  72 0040 0268     		ldr	r2, [r0]
  73 0042 9368     		ldr	r3, [r2, #8]
  74 0044 23F40063 		bic	r3, r3, #2048
  75 0048 9360     		str	r3, [r2, #8]
1545:Drivers/STM32F4xx_HAL_Driver/Src/stm32f4xx_hal_adc.c ****   hadc->Instance->CR2 |= hadc->Init.DataAlign;
  76              		.loc 1 1545 0
  77 004a 0268     		ldr	r2, [r0]
  78 004c 9368     		ldr	r3, [r2, #8]
  79 004e C168     		ldr	r1, [r0, #12]
  80 0050 0B43     		orrs	r3, r3, r1
  81 0052 9360     		str	r3, [r2, #8]
1546:Drivers/STM32F4xx_HAL_Driver/Src/stm32f4xx_hal_adc.c ****   
1547:Drivers/STM32F4xx_HAL_Driver/Src/stm32f4xx_hal_adc.c ****   /* Enable external trigger if trigger selection is different of software  */
1548:Drivers/STM32F4xx_HAL_Driver/Src/stm32f4xx_hal_adc.c ****   /* start.                                                                 */
1549:Drivers/STM32F4xx_HAL_Driver/Src/stm32f4xx_hal_adc.c ****   /* Note: This configuration keeps the hardware feature of parameter       */
1550:Drivers/STM32F4xx_HAL_Driver/Src/stm32f4xx_hal_adc.c ****   /*       ExternalTrigConvEdge "trigger edge none" equivalent to           */
1551:Drivers/STM32F4xx_HAL_Driver/Src/stm32f4xx_hal_adc.c ****   /*       software start.                                                  */
1552:Drivers/STM32F4xx_HAL_Driver/Src/stm32f4xx_hal_adc.c ****   if(hadc->Init.ExternalTrigConv != ADC_SOFTWARE_START)
  82              		.loc 1 1552 0
  83 0054 826A     		ldr	r2, [r0, #40]
  84 0056 3B4B     		ldr	r3, .L9+4
  85 0058 9A42     		cmp	r2, r3
  86 005a 59D0     		beq	.L2
1553:Drivers/STM32F4xx_HAL_Driver/Src/stm32f4xx_hal_adc.c ****   {
1554:Drivers/STM32F4xx_HAL_Driver/Src/stm32f4xx_hal_adc.c ****     /* Select external trigger to start conversion */
1555:Drivers/STM32F4xx_HAL_Driver/Src/stm32f4xx_hal_adc.c ****     hadc->Instance->CR2 &= ~(ADC_CR2_EXTSEL);
  87              		.loc 1 1555 0
  88 005c 0268     		ldr	r2, [r0]
  89 005e 9368     		ldr	r3, [r2, #8]
  90 0060 23F07063 		bic	r3, r3, #251658240
  91 0064 9360     		str	r3, [r2, #8]
1556:Drivers/STM32F4xx_HAL_Driver/Src/stm32f4xx_hal_adc.c ****     hadc->Instance->CR2 |= hadc->Init.ExternalTrigConv;
  92              		.loc 1 1556 0
  93 0066 0268     		ldr	r2, [r0]
  94 0068 9368     		ldr	r3, [r2, #8]
  95 006a 816A     		ldr	r1, [r0, #40]
  96 006c 0B43     		orrs	r3, r3, r1
  97 006e 9360     		str	r3, [r2, #8]
1557:Drivers/STM32F4xx_HAL_Driver/Src/stm32f4xx_hal_adc.c ****     
ARM GAS  C:\Users\n-is\AppData\Local\Temp\cc3jxhl4.s 			page 30


1558:Drivers/STM32F4xx_HAL_Driver/Src/stm32f4xx_hal_adc.c ****     /* Select external trigger polarity */
1559:Drivers/STM32F4xx_HAL_Driver/Src/stm32f4xx_hal_adc.c ****     hadc->Instance->CR2 &= ~(ADC_CR2_EXTEN);
  98              		.loc 1 1559 0
  99 0070 0268     		ldr	r2, [r0]
 100 0072 9368     		ldr	r3, [r2, #8]
 101 0074 23F04053 		bic	r3, r3, #805306368
 102 0078 9360     		str	r3, [r2, #8]
1560:Drivers/STM32F4xx_HAL_Driver/Src/stm32f4xx_hal_adc.c ****     hadc->Instance->CR2 |= hadc->Init.ExternalTrigConvEdge;
 103              		.loc 1 1560 0
 104 007a 0268     		ldr	r2, [r0]
 105 007c 9368     		ldr	r3, [r2, #8]
 106 007e C16A     		ldr	r1, [r0, #44]
 107 0080 0B43     		orrs	r3, r3, r1
 108 0082 9360     		str	r3, [r2, #8]
 109              	.L3:
1561:Drivers/STM32F4xx_HAL_Driver/Src/stm32f4xx_hal_adc.c ****   }
1562:Drivers/STM32F4xx_HAL_Driver/Src/stm32f4xx_hal_adc.c ****   else
1563:Drivers/STM32F4xx_HAL_Driver/Src/stm32f4xx_hal_adc.c ****   {
1564:Drivers/STM32F4xx_HAL_Driver/Src/stm32f4xx_hal_adc.c ****     /* Reset the external trigger */
1565:Drivers/STM32F4xx_HAL_Driver/Src/stm32f4xx_hal_adc.c ****     hadc->Instance->CR2 &= ~(ADC_CR2_EXTSEL);
1566:Drivers/STM32F4xx_HAL_Driver/Src/stm32f4xx_hal_adc.c ****     hadc->Instance->CR2 &= ~(ADC_CR2_EXTEN);
1567:Drivers/STM32F4xx_HAL_Driver/Src/stm32f4xx_hal_adc.c ****   }
1568:Drivers/STM32F4xx_HAL_Driver/Src/stm32f4xx_hal_adc.c ****   
1569:Drivers/STM32F4xx_HAL_Driver/Src/stm32f4xx_hal_adc.c ****   /* Enable or disable ADC continuous conversion mode */
1570:Drivers/STM32F4xx_HAL_Driver/Src/stm32f4xx_hal_adc.c ****   hadc->Instance->CR2 &= ~(ADC_CR2_CONT);
 110              		.loc 1 1570 0
 111 0084 2268     		ldr	r2, [r4]
 112 0086 9368     		ldr	r3, [r2, #8]
 113 0088 23F00203 		bic	r3, r3, #2
 114 008c 9360     		str	r3, [r2, #8]
1571:Drivers/STM32F4xx_HAL_Driver/Src/stm32f4xx_hal_adc.c ****   hadc->Instance->CR2 |= ADC_CR2_CONTINUOUS(hadc->Init.ContinuousConvMode);
 115              		.loc 1 1571 0
 116 008e 2268     		ldr	r2, [r4]
 117 0090 9368     		ldr	r3, [r2, #8]
 118 0092 A169     		ldr	r1, [r4, #24]
 119 0094 43EA4103 		orr	r3, r3, r1, lsl #1
 120 0098 9360     		str	r3, [r2, #8]
1572:Drivers/STM32F4xx_HAL_Driver/Src/stm32f4xx_hal_adc.c ****   
1573:Drivers/STM32F4xx_HAL_Driver/Src/stm32f4xx_hal_adc.c ****   if(hadc->Init.DiscontinuousConvMode != DISABLE)
 121              		.loc 1 1573 0
 122 009a 236A     		ldr	r3, [r4, #32]
 123 009c 002B     		cmp	r3, #0
 124 009e 48D0     		beq	.L4
1574:Drivers/STM32F4xx_HAL_Driver/Src/stm32f4xx_hal_adc.c ****   {
1575:Drivers/STM32F4xx_HAL_Driver/Src/stm32f4xx_hal_adc.c ****     assert_param(IS_ADC_REGULAR_DISC_NUMBER(hadc->Init.NbrOfDiscConversion));
 125              		.loc 1 1575 0
 126 00a0 636A     		ldr	r3, [r4, #36]
 127 00a2 013B     		subs	r3, r3, #1
 128 00a4 072B     		cmp	r3, #7
 129 00a6 3ED8     		bhi	.L8
 130              	.LVL2:
 131              	.L5:
1576:Drivers/STM32F4xx_HAL_Driver/Src/stm32f4xx_hal_adc.c ****   
1577:Drivers/STM32F4xx_HAL_Driver/Src/stm32f4xx_hal_adc.c ****     /* Enable the selected ADC regular discontinuous mode */
1578:Drivers/STM32F4xx_HAL_Driver/Src/stm32f4xx_hal_adc.c ****     hadc->Instance->CR1 |= (uint32_t)ADC_CR1_DISCEN;
 132              		.loc 1 1578 0
 133 00a8 2268     		ldr	r2, [r4]
ARM GAS  C:\Users\n-is\AppData\Local\Temp\cc3jxhl4.s 			page 31


 134 00aa 5368     		ldr	r3, [r2, #4]
 135 00ac 43F40063 		orr	r3, r3, #2048
 136 00b0 5360     		str	r3, [r2, #4]
1579:Drivers/STM32F4xx_HAL_Driver/Src/stm32f4xx_hal_adc.c ****     
1580:Drivers/STM32F4xx_HAL_Driver/Src/stm32f4xx_hal_adc.c ****     /* Set the number of channels to be converted in discontinuous mode */
1581:Drivers/STM32F4xx_HAL_Driver/Src/stm32f4xx_hal_adc.c ****     hadc->Instance->CR1 &= ~(ADC_CR1_DISCNUM);
 137              		.loc 1 1581 0
 138 00b2 2268     		ldr	r2, [r4]
 139 00b4 5368     		ldr	r3, [r2, #4]
 140 00b6 23F46043 		bic	r3, r3, #57344
 141 00ba 5360     		str	r3, [r2, #4]
1582:Drivers/STM32F4xx_HAL_Driver/Src/stm32f4xx_hal_adc.c ****     hadc->Instance->CR1 |=  ADC_CR1_DISCONTINUOUS(hadc->Init.NbrOfDiscConversion);
 142              		.loc 1 1582 0
 143 00bc 2168     		ldr	r1, [r4]
 144 00be 4B68     		ldr	r3, [r1, #4]
 145 00c0 626A     		ldr	r2, [r4, #36]
 146 00c2 013A     		subs	r2, r2, #1
 147 00c4 43EA4233 		orr	r3, r3, r2, lsl #13
 148 00c8 4B60     		str	r3, [r1, #4]
 149              	.L6:
1583:Drivers/STM32F4xx_HAL_Driver/Src/stm32f4xx_hal_adc.c ****   }
1584:Drivers/STM32F4xx_HAL_Driver/Src/stm32f4xx_hal_adc.c ****   else
1585:Drivers/STM32F4xx_HAL_Driver/Src/stm32f4xx_hal_adc.c ****   {
1586:Drivers/STM32F4xx_HAL_Driver/Src/stm32f4xx_hal_adc.c ****     /* Disable the selected ADC regular discontinuous mode */
1587:Drivers/STM32F4xx_HAL_Driver/Src/stm32f4xx_hal_adc.c ****     hadc->Instance->CR1 &= ~(ADC_CR1_DISCEN);
1588:Drivers/STM32F4xx_HAL_Driver/Src/stm32f4xx_hal_adc.c ****   }
1589:Drivers/STM32F4xx_HAL_Driver/Src/stm32f4xx_hal_adc.c ****   
1590:Drivers/STM32F4xx_HAL_Driver/Src/stm32f4xx_hal_adc.c ****   /* Set ADC number of conversion */
1591:Drivers/STM32F4xx_HAL_Driver/Src/stm32f4xx_hal_adc.c ****   hadc->Instance->SQR1 &= ~(ADC_SQR1_L);
 150              		.loc 1 1591 0
 151 00ca 2268     		ldr	r2, [r4]
 152 00cc D36A     		ldr	r3, [r2, #44]
 153 00ce 23F47003 		bic	r3, r3, #15728640
 154 00d2 D362     		str	r3, [r2, #44]
1592:Drivers/STM32F4xx_HAL_Driver/Src/stm32f4xx_hal_adc.c ****   hadc->Instance->SQR1 |=  ADC_SQR1(hadc->Init.NbrOfConversion);
 155              		.loc 1 1592 0
 156 00d4 2168     		ldr	r1, [r4]
 157 00d6 CB6A     		ldr	r3, [r1, #44]
 158 00d8 E269     		ldr	r2, [r4, #28]
 159 00da 013A     		subs	r2, r2, #1
 160 00dc 43EA0253 		orr	r3, r3, r2, lsl #20
 161 00e0 CB62     		str	r3, [r1, #44]
1593:Drivers/STM32F4xx_HAL_Driver/Src/stm32f4xx_hal_adc.c ****   
1594:Drivers/STM32F4xx_HAL_Driver/Src/stm32f4xx_hal_adc.c ****   /* Enable or disable ADC DMA continuous request */
1595:Drivers/STM32F4xx_HAL_Driver/Src/stm32f4xx_hal_adc.c ****   hadc->Instance->CR2 &= ~(ADC_CR2_DDS);
 162              		.loc 1 1595 0
 163 00e2 2268     		ldr	r2, [r4]
 164 00e4 9368     		ldr	r3, [r2, #8]
 165 00e6 23F40073 		bic	r3, r3, #512
 166 00ea 9360     		str	r3, [r2, #8]
1596:Drivers/STM32F4xx_HAL_Driver/Src/stm32f4xx_hal_adc.c ****   hadc->Instance->CR2 |= ADC_CR2_DMAContReq(hadc->Init.DMAContinuousRequests);
 167              		.loc 1 1596 0
 168 00ec 2268     		ldr	r2, [r4]
 169 00ee 9368     		ldr	r3, [r2, #8]
 170 00f0 216B     		ldr	r1, [r4, #48]
 171 00f2 43EA4123 		orr	r3, r3, r1, lsl #9
 172 00f6 9360     		str	r3, [r2, #8]
ARM GAS  C:\Users\n-is\AppData\Local\Temp\cc3jxhl4.s 			page 32


1597:Drivers/STM32F4xx_HAL_Driver/Src/stm32f4xx_hal_adc.c ****   
1598:Drivers/STM32F4xx_HAL_Driver/Src/stm32f4xx_hal_adc.c ****   /* Enable or disable ADC end of conversion selection */
1599:Drivers/STM32F4xx_HAL_Driver/Src/stm32f4xx_hal_adc.c ****   hadc->Instance->CR2 &= ~(ADC_CR2_EOCS);
 173              		.loc 1 1599 0
 174 00f8 2268     		ldr	r2, [r4]
 175 00fa 9368     		ldr	r3, [r2, #8]
 176 00fc 23F48063 		bic	r3, r3, #1024
 177 0100 9360     		str	r3, [r2, #8]
1600:Drivers/STM32F4xx_HAL_Driver/Src/stm32f4xx_hal_adc.c ****   hadc->Instance->CR2 |= ADC_CR2_EOCSelection(hadc->Init.EOCSelection);
 178              		.loc 1 1600 0
 179 0102 2268     		ldr	r2, [r4]
 180 0104 9368     		ldr	r3, [r2, #8]
 181 0106 6169     		ldr	r1, [r4, #20]
 182 0108 43EA8123 		orr	r3, r3, r1, lsl #10
 183 010c 9360     		str	r3, [r2, #8]
1601:Drivers/STM32F4xx_HAL_Driver/Src/stm32f4xx_hal_adc.c **** }
 184              		.loc 1 1601 0
 185 010e 10BD     		pop	{r4, pc}
 186              	.LVL3:
 187              	.L2:
1565:Drivers/STM32F4xx_HAL_Driver/Src/stm32f4xx_hal_adc.c ****     hadc->Instance->CR2 &= ~(ADC_CR2_EXTEN);
 188              		.loc 1 1565 0
 189 0110 0268     		ldr	r2, [r0]
 190 0112 9368     		ldr	r3, [r2, #8]
 191 0114 23F07063 		bic	r3, r3, #251658240
 192 0118 9360     		str	r3, [r2, #8]
1566:Drivers/STM32F4xx_HAL_Driver/Src/stm32f4xx_hal_adc.c ****   }
 193              		.loc 1 1566 0
 194 011a 0268     		ldr	r2, [r0]
 195 011c 9368     		ldr	r3, [r2, #8]
 196 011e 23F04053 		bic	r3, r3, #805306368
 197 0122 9360     		str	r3, [r2, #8]
 198 0124 AEE7     		b	.L3
 199              	.L8:
1575:Drivers/STM32F4xx_HAL_Driver/Src/stm32f4xx_hal_adc.c ****   
 200              		.loc 1 1575 0 discriminator 1
 201 0126 40F22761 		movw	r1, #1575
 202 012a 0748     		ldr	r0, .L9+8
 203              	.LVL4:
 204 012c FFF7FEFF 		bl	assert_failed
 205              	.LVL5:
 206 0130 BAE7     		b	.L5
 207              	.LVL6:
 208              	.L4:
1587:Drivers/STM32F4xx_HAL_Driver/Src/stm32f4xx_hal_adc.c ****   }
 209              		.loc 1 1587 0
 210 0132 2268     		ldr	r2, [r4]
 211 0134 5368     		ldr	r3, [r2, #4]
 212 0136 23F40063 		bic	r3, r3, #2048
 213 013a 5360     		str	r3, [r2, #4]
 214 013c C5E7     		b	.L6
 215              	.L10:
 216 013e 00BF     		.align	2
 217              	.L9:
 218 0140 00230140 		.word	1073816320
 219 0144 0100000F 		.word	251658241
 220 0148 00000000 		.word	.LC0
ARM GAS  C:\Users\n-is\AppData\Local\Temp\cc3jxhl4.s 			page 33


 221              		.cfi_endproc
 222              	.LFE148:
 224              		.section	.text.HAL_ADC_MspInit,"ax",%progbits
 225              		.align	1
 226              		.weak	HAL_ADC_MspInit
 227              		.syntax unified
 228              		.thumb
 229              		.thumb_func
 230              		.fpu fpv4-sp-d16
 232              	HAL_ADC_MspInit:
 233              	.LFB128:
 382:Drivers/STM32F4xx_HAL_Driver/Src/stm32f4xx_hal_adc.c ****   /* Prevent unused argument(s) compilation warning */
 234              		.loc 1 382 0
 235              		.cfi_startproc
 236              		@ args = 0, pretend = 0, frame = 0
 237              		@ frame_needed = 0, uses_anonymous_args = 0
 238              		@ link register save eliminated.
 239              	.LVL7:
 388:Drivers/STM32F4xx_HAL_Driver/Src/stm32f4xx_hal_adc.c **** 
 240              		.loc 1 388 0
 241 0000 7047     		bx	lr
 242              		.cfi_endproc
 243              	.LFE128:
 245              		.section	.text.HAL_ADC_Init,"ax",%progbits
 246              		.align	1
 247              		.global	HAL_ADC_Init
 248              		.syntax unified
 249              		.thumb
 250              		.thumb_func
 251              		.fpu fpv4-sp-d16
 253              	HAL_ADC_Init:
 254              	.LFB126:
 257:Drivers/STM32F4xx_HAL_Driver/Src/stm32f4xx_hal_adc.c ****   HAL_StatusTypeDef tmp_hal_status = HAL_OK;
 255              		.loc 1 257 0
 256              		.cfi_startproc
 257              		@ args = 0, pretend = 0, frame = 0
 258              		@ frame_needed = 0, uses_anonymous_args = 0
 259              	.LVL8:
 261:Drivers/STM32F4xx_HAL_Driver/Src/stm32f4xx_hal_adc.c ****   {
 260              		.loc 1 261 0
 261 0000 0028     		cmp	r0, #0
 262 0002 00F0EB80 		beq	.L28
 257:Drivers/STM32F4xx_HAL_Driver/Src/stm32f4xx_hal_adc.c ****   HAL_StatusTypeDef tmp_hal_status = HAL_OK;
 263              		.loc 1 257 0
 264 0006 10B5     		push	{r4, lr}
 265              	.LCFI1:
 266              		.cfi_def_cfa_offset 8
 267              		.cfi_offset 4, -8
 268              		.cfi_offset 14, -4
 269 0008 0446     		mov	r4, r0
 267:Drivers/STM32F4xx_HAL_Driver/Src/stm32f4xx_hal_adc.c ****   assert_param(IS_ADC_CLOCKPRESCALER(hadc->Init.ClockPrescaler));
 270              		.loc 1 267 0
 271 000a 0368     		ldr	r3, [r0]
 272 000c 744A     		ldr	r2, .L47
 273 000e 9342     		cmp	r3, r2
 274 0010 0CD0     		beq	.L14
 267:Drivers/STM32F4xx_HAL_Driver/Src/stm32f4xx_hal_adc.c ****   assert_param(IS_ADC_CLOCKPRESCALER(hadc->Init.ClockPrescaler));
ARM GAS  C:\Users\n-is\AppData\Local\Temp\cc3jxhl4.s 			page 34


 275              		.loc 1 267 0 is_stmt 0 discriminator 1
 276 0012 02F58072 		add	r2, r2, #256
 277 0016 9342     		cmp	r3, r2
 278 0018 08D0     		beq	.L14
 267:Drivers/STM32F4xx_HAL_Driver/Src/stm32f4xx_hal_adc.c ****   assert_param(IS_ADC_CLOCKPRESCALER(hadc->Init.ClockPrescaler));
 279              		.loc 1 267 0 discriminator 2
 280 001a 02F58072 		add	r2, r2, #256
 281 001e 9342     		cmp	r3, r2
 282 0020 04D0     		beq	.L14
 267:Drivers/STM32F4xx_HAL_Driver/Src/stm32f4xx_hal_adc.c ****   assert_param(IS_ADC_CLOCKPRESCALER(hadc->Init.ClockPrescaler));
 283              		.loc 1 267 0 discriminator 3
 284 0022 40F20B11 		movw	r1, #267
 285 0026 6F48     		ldr	r0, .L47+4
 286              	.LVL9:
 287 0028 FFF7FEFF 		bl	assert_failed
 288              	.LVL10:
 289              	.L14:
 268:Drivers/STM32F4xx_HAL_Driver/Src/stm32f4xx_hal_adc.c ****   assert_param(IS_ADC_RESOLUTION(hadc->Init.Resolution));
 290              		.loc 1 268 0 is_stmt 1
 291 002c 6368     		ldr	r3, [r4, #4]
 292 002e 43B1     		cbz	r3, .L15
 268:Drivers/STM32F4xx_HAL_Driver/Src/stm32f4xx_hal_adc.c ****   assert_param(IS_ADC_RESOLUTION(hadc->Init.Resolution));
 293              		.loc 1 268 0 is_stmt 0 discriminator 1
 294 0030 B3F5803F 		cmp	r3, #65536
 295 0034 05D0     		beq	.L15
 268:Drivers/STM32F4xx_HAL_Driver/Src/stm32f4xx_hal_adc.c ****   assert_param(IS_ADC_RESOLUTION(hadc->Init.Resolution));
 296              		.loc 1 268 0 discriminator 2
 297 0036 B3F5003F 		cmp	r3, #131072
 298 003a 02D0     		beq	.L15
 268:Drivers/STM32F4xx_HAL_Driver/Src/stm32f4xx_hal_adc.c ****   assert_param(IS_ADC_RESOLUTION(hadc->Init.Resolution));
 299              		.loc 1 268 0 discriminator 3
 300 003c B3F5403F 		cmp	r3, #196608
 301 0040 6FD1     		bne	.L34
 302              	.L15:
 269:Drivers/STM32F4xx_HAL_Driver/Src/stm32f4xx_hal_adc.c ****   assert_param(IS_FUNCTIONAL_STATE(hadc->Init.ScanConvMode));
 303              		.loc 1 269 0 is_stmt 1
 304 0042 A368     		ldr	r3, [r4, #8]
 305 0044 43B1     		cbz	r3, .L16
 269:Drivers/STM32F4xx_HAL_Driver/Src/stm32f4xx_hal_adc.c ****   assert_param(IS_FUNCTIONAL_STATE(hadc->Init.ScanConvMode));
 306              		.loc 1 269 0 is_stmt 0 discriminator 1
 307 0046 B3F1807F 		cmp	r3, #16777216
 308 004a 05D0     		beq	.L16
 269:Drivers/STM32F4xx_HAL_Driver/Src/stm32f4xx_hal_adc.c ****   assert_param(IS_FUNCTIONAL_STATE(hadc->Init.ScanConvMode));
 309              		.loc 1 269 0 discriminator 2
 310 004c B3F1007F 		cmp	r3, #33554432
 311 0050 02D0     		beq	.L16
 269:Drivers/STM32F4xx_HAL_Driver/Src/stm32f4xx_hal_adc.c ****   assert_param(IS_FUNCTIONAL_STATE(hadc->Init.ScanConvMode));
 312              		.loc 1 269 0 discriminator 3
 313 0052 B3F1407F 		cmp	r3, #50331648
 314 0056 6AD1     		bne	.L35
 315              	.L16:
 270:Drivers/STM32F4xx_HAL_Driver/Src/stm32f4xx_hal_adc.c ****   assert_param(IS_FUNCTIONAL_STATE(hadc->Init.ContinuousConvMode));
 316              		.loc 1 270 0 is_stmt 1
 317 0058 2369     		ldr	r3, [r4, #16]
 318 005a 012B     		cmp	r3, #1
 319 005c 6DD8     		bhi	.L36
 320              	.L17:
ARM GAS  C:\Users\n-is\AppData\Local\Temp\cc3jxhl4.s 			page 35


 271:Drivers/STM32F4xx_HAL_Driver/Src/stm32f4xx_hal_adc.c ****   assert_param(IS_ADC_EXT_TRIG(hadc->Init.ExternalTrigConv));
 321              		.loc 1 271 0
 322 005e A369     		ldr	r3, [r4, #24]
 323 0060 012B     		cmp	r3, #1
 324 0062 70D8     		bhi	.L37
 325              	.L18:
 272:Drivers/STM32F4xx_HAL_Driver/Src/stm32f4xx_hal_adc.c ****   assert_param(IS_ADC_DATA_ALIGN(hadc->Init.DataAlign));
 326              		.loc 1 272 0
 327 0064 A36A     		ldr	r3, [r4, #40]
 328 0066 7BB3     		cbz	r3, .L19
 272:Drivers/STM32F4xx_HAL_Driver/Src/stm32f4xx_hal_adc.c ****   assert_param(IS_ADC_DATA_ALIGN(hadc->Init.DataAlign));
 329              		.loc 1 272 0 is_stmt 0 discriminator 1
 330 0068 B3F1807F 		cmp	r3, #16777216
 331 006c 2CD0     		beq	.L19
 272:Drivers/STM32F4xx_HAL_Driver/Src/stm32f4xx_hal_adc.c ****   assert_param(IS_ADC_DATA_ALIGN(hadc->Init.DataAlign));
 332              		.loc 1 272 0 discriminator 2
 333 006e B3F1007F 		cmp	r3, #33554432
 334 0072 29D0     		beq	.L19
 272:Drivers/STM32F4xx_HAL_Driver/Src/stm32f4xx_hal_adc.c ****   assert_param(IS_ADC_DATA_ALIGN(hadc->Init.DataAlign));
 335              		.loc 1 272 0 discriminator 3
 336 0074 B3F1407F 		cmp	r3, #50331648
 337 0078 26D0     		beq	.L19
 272:Drivers/STM32F4xx_HAL_Driver/Src/stm32f4xx_hal_adc.c ****   assert_param(IS_ADC_DATA_ALIGN(hadc->Init.DataAlign));
 338              		.loc 1 272 0 discriminator 4
 339 007a B3F1806F 		cmp	r3, #67108864
 340 007e 23D0     		beq	.L19
 272:Drivers/STM32F4xx_HAL_Driver/Src/stm32f4xx_hal_adc.c ****   assert_param(IS_ADC_DATA_ALIGN(hadc->Init.DataAlign));
 341              		.loc 1 272 0 discriminator 5
 342 0080 B3F1A06F 		cmp	r3, #83886080
 343 0084 20D0     		beq	.L19
 272:Drivers/STM32F4xx_HAL_Driver/Src/stm32f4xx_hal_adc.c ****   assert_param(IS_ADC_DATA_ALIGN(hadc->Init.DataAlign));
 344              		.loc 1 272 0 discriminator 6
 345 0086 B3F1C06F 		cmp	r3, #100663296
 346 008a 1DD0     		beq	.L19
 272:Drivers/STM32F4xx_HAL_Driver/Src/stm32f4xx_hal_adc.c ****   assert_param(IS_ADC_DATA_ALIGN(hadc->Init.DataAlign));
 347              		.loc 1 272 0 discriminator 7
 348 008c B3F1E06F 		cmp	r3, #117440512
 349 0090 1AD0     		beq	.L19
 272:Drivers/STM32F4xx_HAL_Driver/Src/stm32f4xx_hal_adc.c ****   assert_param(IS_ADC_DATA_ALIGN(hadc->Init.DataAlign));
 350              		.loc 1 272 0 discriminator 8
 351 0092 B3F1006F 		cmp	r3, #134217728
 352 0096 17D0     		beq	.L19
 272:Drivers/STM32F4xx_HAL_Driver/Src/stm32f4xx_hal_adc.c ****   assert_param(IS_ADC_DATA_ALIGN(hadc->Init.DataAlign));
 353              		.loc 1 272 0 discriminator 9
 354 0098 B3F1106F 		cmp	r3, #150994944
 355 009c 14D0     		beq	.L19
 272:Drivers/STM32F4xx_HAL_Driver/Src/stm32f4xx_hal_adc.c ****   assert_param(IS_ADC_DATA_ALIGN(hadc->Init.DataAlign));
 356              		.loc 1 272 0 discriminator 10
 357 009e B3F1206F 		cmp	r3, #167772160
 358 00a2 11D0     		beq	.L19
 272:Drivers/STM32F4xx_HAL_Driver/Src/stm32f4xx_hal_adc.c ****   assert_param(IS_ADC_DATA_ALIGN(hadc->Init.DataAlign));
 359              		.loc 1 272 0 discriminator 11
 360 00a4 B3F1306F 		cmp	r3, #184549376
 361 00a8 0ED0     		beq	.L19
 272:Drivers/STM32F4xx_HAL_Driver/Src/stm32f4xx_hal_adc.c ****   assert_param(IS_ADC_DATA_ALIGN(hadc->Init.DataAlign));
 362              		.loc 1 272 0 discriminator 12
 363 00aa B3F1406F 		cmp	r3, #201326592
ARM GAS  C:\Users\n-is\AppData\Local\Temp\cc3jxhl4.s 			page 36


 364 00ae 0BD0     		beq	.L19
 272:Drivers/STM32F4xx_HAL_Driver/Src/stm32f4xx_hal_adc.c ****   assert_param(IS_ADC_DATA_ALIGN(hadc->Init.DataAlign));
 365              		.loc 1 272 0 discriminator 13
 366 00b0 B3F1506F 		cmp	r3, #218103808
 367 00b4 08D0     		beq	.L19
 272:Drivers/STM32F4xx_HAL_Driver/Src/stm32f4xx_hal_adc.c ****   assert_param(IS_ADC_DATA_ALIGN(hadc->Init.DataAlign));
 368              		.loc 1 272 0 discriminator 14
 369 00b6 B3F1606F 		cmp	r3, #234881024
 370 00ba 05D0     		beq	.L19
 272:Drivers/STM32F4xx_HAL_Driver/Src/stm32f4xx_hal_adc.c ****   assert_param(IS_ADC_DATA_ALIGN(hadc->Init.DataAlign));
 371              		.loc 1 272 0 discriminator 15
 372 00bc B3F1706F 		cmp	r3, #251658240
 373 00c0 02D0     		beq	.L19
 272:Drivers/STM32F4xx_HAL_Driver/Src/stm32f4xx_hal_adc.c ****   assert_param(IS_ADC_DATA_ALIGN(hadc->Init.DataAlign));
 374              		.loc 1 272 0 discriminator 16
 375 00c2 494A     		ldr	r2, .L47+8
 376 00c4 9342     		cmp	r3, r2
 377 00c6 44D1     		bne	.L38
 378              	.L19:
 273:Drivers/STM32F4xx_HAL_Driver/Src/stm32f4xx_hal_adc.c ****   assert_param(IS_ADC_REGULAR_LENGTH(hadc->Init.NbrOfConversion));
 379              		.loc 1 273 0 is_stmt 1
 380 00c8 E368     		ldr	r3, [r4, #12]
 381 00ca 13B1     		cbz	r3, .L20
 273:Drivers/STM32F4xx_HAL_Driver/Src/stm32f4xx_hal_adc.c ****   assert_param(IS_ADC_REGULAR_LENGTH(hadc->Init.NbrOfConversion));
 382              		.loc 1 273 0 is_stmt 0 discriminator 1
 383 00cc B3F5006F 		cmp	r3, #2048
 384 00d0 45D1     		bne	.L39
 385              	.L20:
 274:Drivers/STM32F4xx_HAL_Driver/Src/stm32f4xx_hal_adc.c ****   assert_param(IS_FUNCTIONAL_STATE(hadc->Init.DMAContinuousRequests));
 386              		.loc 1 274 0 is_stmt 1
 387 00d2 E369     		ldr	r3, [r4, #28]
 388 00d4 013B     		subs	r3, r3, #1
 389 00d6 0F2B     		cmp	r3, #15
 390 00d8 47D8     		bhi	.L40
 391              	.L21:
 275:Drivers/STM32F4xx_HAL_Driver/Src/stm32f4xx_hal_adc.c ****   assert_param(IS_ADC_EOCSelection(hadc->Init.EOCSelection));
 392              		.loc 1 275 0
 393 00da 236B     		ldr	r3, [r4, #48]
 394 00dc 012B     		cmp	r3, #1
 395 00de 4AD8     		bhi	.L41
 396              	.L22:
 276:Drivers/STM32F4xx_HAL_Driver/Src/stm32f4xx_hal_adc.c ****   assert_param(IS_FUNCTIONAL_STATE(hadc->Init.DiscontinuousConvMode));
 397              		.loc 1 276 0
 398 00e0 6369     		ldr	r3, [r4, #20]
 399 00e2 022B     		cmp	r3, #2
 400 00e4 4DD8     		bhi	.L42
 401              	.L23:
 277:Drivers/STM32F4xx_HAL_Driver/Src/stm32f4xx_hal_adc.c ****   
 402              		.loc 1 277 0
 403 00e6 236A     		ldr	r3, [r4, #32]
 404 00e8 012B     		cmp	r3, #1
 405 00ea 50D8     		bhi	.L43
 406              	.L24:
 279:Drivers/STM32F4xx_HAL_Driver/Src/stm32f4xx_hal_adc.c ****   {
 407              		.loc 1 279 0
 408 00ec A26A     		ldr	r2, [r4, #40]
 409 00ee 3E4B     		ldr	r3, .L47+8
ARM GAS  C:\Users\n-is\AppData\Local\Temp\cc3jxhl4.s 			page 37


 410 00f0 9A42     		cmp	r2, r3
 411 00f2 0AD0     		beq	.L25
 281:Drivers/STM32F4xx_HAL_Driver/Src/stm32f4xx_hal_adc.c ****   }
 412              		.loc 1 281 0
 413 00f4 E36A     		ldr	r3, [r4, #44]
 414 00f6 43B1     		cbz	r3, .L25
 281:Drivers/STM32F4xx_HAL_Driver/Src/stm32f4xx_hal_adc.c ****   }
 415              		.loc 1 281 0 is_stmt 0 discriminator 1
 416 00f8 B3F1805F 		cmp	r3, #268435456
 417 00fc 05D0     		beq	.L25
 281:Drivers/STM32F4xx_HAL_Driver/Src/stm32f4xx_hal_adc.c ****   }
 418              		.loc 1 281 0 discriminator 2
 419 00fe B3F1005F 		cmp	r3, #536870912
 420 0102 02D0     		beq	.L25
 281:Drivers/STM32F4xx_HAL_Driver/Src/stm32f4xx_hal_adc.c ****   }
 421              		.loc 1 281 0 discriminator 3
 422 0104 B3F1405F 		cmp	r3, #805306368
 423 0108 47D1     		bne	.L44
 424              	.L25:
 284:Drivers/STM32F4xx_HAL_Driver/Src/stm32f4xx_hal_adc.c ****   {
 425              		.loc 1 284 0 is_stmt 1
 426 010a 236C     		ldr	r3, [r4, #64]
 427 010c 002B     		cmp	r3, #0
 428 010e 4AD0     		beq	.L45
 429              	.L26:
 298:Drivers/STM32F4xx_HAL_Driver/Src/stm32f4xx_hal_adc.c ****   {
 430              		.loc 1 298 0
 431 0110 236C     		ldr	r3, [r4, #64]
 432 0112 13F0100F 		tst	r3, #16
 433 0116 4DD0     		beq	.L46
 318:Drivers/STM32F4xx_HAL_Driver/Src/stm32f4xx_hal_adc.c ****   }
 434              		.loc 1 318 0
 435 0118 0120     		movs	r0, #1
 436              	.L27:
 437              	.LVL11:
 322:Drivers/STM32F4xx_HAL_Driver/Src/stm32f4xx_hal_adc.c **** 
 438              		.loc 1 322 0
 439 011a 0023     		movs	r3, #0
 440 011c 84F83C30 		strb	r3, [r4, #60]
 326:Drivers/STM32F4xx_HAL_Driver/Src/stm32f4xx_hal_adc.c **** 
 441              		.loc 1 326 0
 442 0120 10BD     		pop	{r4, pc}
 443              	.LVL12:
 444              	.L34:
 268:Drivers/STM32F4xx_HAL_Driver/Src/stm32f4xx_hal_adc.c ****   assert_param(IS_ADC_RESOLUTION(hadc->Init.Resolution));
 445              		.loc 1 268 0 discriminator 4
 446 0122 4FF48671 		mov	r1, #268
 447 0126 2F48     		ldr	r0, .L47+4
 448 0128 FFF7FEFF 		bl	assert_failed
 449              	.LVL13:
 450 012c 89E7     		b	.L15
 451              	.L35:
 269:Drivers/STM32F4xx_HAL_Driver/Src/stm32f4xx_hal_adc.c ****   assert_param(IS_FUNCTIONAL_STATE(hadc->Init.ScanConvMode));
 452              		.loc 1 269 0 discriminator 4
 453 012e 40F20D11 		movw	r1, #269
 454 0132 2C48     		ldr	r0, .L47+4
 455 0134 FFF7FEFF 		bl	assert_failed
ARM GAS  C:\Users\n-is\AppData\Local\Temp\cc3jxhl4.s 			page 38


 456              	.LVL14:
 457 0138 8EE7     		b	.L16
 458              	.L36:
 270:Drivers/STM32F4xx_HAL_Driver/Src/stm32f4xx_hal_adc.c ****   assert_param(IS_FUNCTIONAL_STATE(hadc->Init.ContinuousConvMode));
 459              		.loc 1 270 0 discriminator 1
 460 013a 4FF48771 		mov	r1, #270
 461 013e 2948     		ldr	r0, .L47+4
 462 0140 FFF7FEFF 		bl	assert_failed
 463              	.LVL15:
 464 0144 8BE7     		b	.L17
 465              	.L37:
 271:Drivers/STM32F4xx_HAL_Driver/Src/stm32f4xx_hal_adc.c ****   assert_param(IS_ADC_EXT_TRIG(hadc->Init.ExternalTrigConv));
 466              		.loc 1 271 0 discriminator 1
 467 0146 40F20F11 		movw	r1, #271
 468 014a 2648     		ldr	r0, .L47+4
 469 014c FFF7FEFF 		bl	assert_failed
 470              	.LVL16:
 471 0150 88E7     		b	.L18
 472              	.L38:
 272:Drivers/STM32F4xx_HAL_Driver/Src/stm32f4xx_hal_adc.c ****   assert_param(IS_ADC_DATA_ALIGN(hadc->Init.DataAlign));
 473              		.loc 1 272 0 discriminator 17
 474 0152 4FF48871 		mov	r1, #272
 475 0156 2348     		ldr	r0, .L47+4
 476 0158 FFF7FEFF 		bl	assert_failed
 477              	.LVL17:
 478 015c B4E7     		b	.L19
 479              	.L39:
 273:Drivers/STM32F4xx_HAL_Driver/Src/stm32f4xx_hal_adc.c ****   assert_param(IS_ADC_REGULAR_LENGTH(hadc->Init.NbrOfConversion));
 480              		.loc 1 273 0 discriminator 2
 481 015e 40F21111 		movw	r1, #273
 482 0162 2048     		ldr	r0, .L47+4
 483 0164 FFF7FEFF 		bl	assert_failed
 484              	.LVL18:
 485 0168 B3E7     		b	.L20
 486              	.L40:
 274:Drivers/STM32F4xx_HAL_Driver/Src/stm32f4xx_hal_adc.c ****   assert_param(IS_FUNCTIONAL_STATE(hadc->Init.DMAContinuousRequests));
 487              		.loc 1 274 0 discriminator 1
 488 016a 4FF48971 		mov	r1, #274
 489 016e 1D48     		ldr	r0, .L47+4
 490 0170 FFF7FEFF 		bl	assert_failed
 491              	.LVL19:
 492 0174 B1E7     		b	.L21
 493              	.L41:
 275:Drivers/STM32F4xx_HAL_Driver/Src/stm32f4xx_hal_adc.c ****   assert_param(IS_ADC_EOCSelection(hadc->Init.EOCSelection));
 494              		.loc 1 275 0 discriminator 1
 495 0176 40F21311 		movw	r1, #275
 496 017a 1A48     		ldr	r0, .L47+4
 497 017c FFF7FEFF 		bl	assert_failed
 498              	.LVL20:
 499 0180 AEE7     		b	.L22
 500              	.L42:
 276:Drivers/STM32F4xx_HAL_Driver/Src/stm32f4xx_hal_adc.c ****   assert_param(IS_FUNCTIONAL_STATE(hadc->Init.DiscontinuousConvMode));
 501              		.loc 1 276 0 discriminator 1
 502 0182 4FF48A71 		mov	r1, #276
 503 0186 1748     		ldr	r0, .L47+4
 504 0188 FFF7FEFF 		bl	assert_failed
 505              	.LVL21:
ARM GAS  C:\Users\n-is\AppData\Local\Temp\cc3jxhl4.s 			page 39


 506 018c ABE7     		b	.L23
 507              	.L43:
 277:Drivers/STM32F4xx_HAL_Driver/Src/stm32f4xx_hal_adc.c ****   
 508              		.loc 1 277 0 discriminator 1
 509 018e 40F21511 		movw	r1, #277
 510 0192 1448     		ldr	r0, .L47+4
 511 0194 FFF7FEFF 		bl	assert_failed
 512              	.LVL22:
 513 0198 A8E7     		b	.L24
 514              	.L44:
 281:Drivers/STM32F4xx_HAL_Driver/Src/stm32f4xx_hal_adc.c ****   }
 515              		.loc 1 281 0 discriminator 4
 516 019a 40F21911 		movw	r1, #281
 517 019e 1148     		ldr	r0, .L47+4
 518 01a0 FFF7FEFF 		bl	assert_failed
 519              	.LVL23:
 520 01a4 B1E7     		b	.L25
 521              	.L45:
 287:Drivers/STM32F4xx_HAL_Driver/Src/stm32f4xx_hal_adc.c ****     
 522              		.loc 1 287 0
 523 01a6 6364     		str	r3, [r4, #68]
 290:Drivers/STM32F4xx_HAL_Driver/Src/stm32f4xx_hal_adc.c ****     
 524              		.loc 1 290 0
 525 01a8 84F83C30 		strb	r3, [r4, #60]
 293:Drivers/STM32F4xx_HAL_Driver/Src/stm32f4xx_hal_adc.c ****   }
 526              		.loc 1 293 0
 527 01ac 2046     		mov	r0, r4
 528 01ae FFF7FEFF 		bl	HAL_ADC_MspInit
 529              	.LVL24:
 530 01b2 ADE7     		b	.L26
 531              	.L46:
 301:Drivers/STM32F4xx_HAL_Driver/Src/stm32f4xx_hal_adc.c ****                       HAL_ADC_STATE_REG_BUSY | HAL_ADC_STATE_INJ_BUSY,
 532              		.loc 1 301 0
 533 01b4 236C     		ldr	r3, [r4, #64]
 534 01b6 23F48853 		bic	r3, r3, #4352
 535 01ba 23F00203 		bic	r3, r3, #2
 536 01be 43F00203 		orr	r3, r3, #2
 537 01c2 2364     		str	r3, [r4, #64]
 306:Drivers/STM32F4xx_HAL_Driver/Src/stm32f4xx_hal_adc.c ****     
 538              		.loc 1 306 0
 539 01c4 2046     		mov	r0, r4
 540 01c6 FFF7FEFF 		bl	ADC_Init
 541              	.LVL25:
 309:Drivers/STM32F4xx_HAL_Driver/Src/stm32f4xx_hal_adc.c ****     
 542              		.loc 1 309 0
 543 01ca 0020     		movs	r0, #0
 544 01cc 6064     		str	r0, [r4, #68]
 312:Drivers/STM32F4xx_HAL_Driver/Src/stm32f4xx_hal_adc.c ****                       HAL_ADC_STATE_BUSY_INTERNAL,
 545              		.loc 1 312 0
 546 01ce 236C     		ldr	r3, [r4, #64]
 547 01d0 23F00303 		bic	r3, r3, #3
 548 01d4 43F00103 		orr	r3, r3, #1
 549 01d8 2364     		str	r3, [r4, #64]
 550 01da 9EE7     		b	.L27
 551              	.LVL26:
 552              	.L28:
 553              	.LCFI2:
ARM GAS  C:\Users\n-is\AppData\Local\Temp\cc3jxhl4.s 			page 40


 554              		.cfi_def_cfa_offset 0
 555              		.cfi_restore 4
 556              		.cfi_restore 14
 263:Drivers/STM32F4xx_HAL_Driver/Src/stm32f4xx_hal_adc.c ****   }
 557              		.loc 1 263 0
 558 01dc 0120     		movs	r0, #1
 559              	.LVL27:
 326:Drivers/STM32F4xx_HAL_Driver/Src/stm32f4xx_hal_adc.c **** 
 560              		.loc 1 326 0
 561 01de 7047     		bx	lr
 562              	.L48:
 563              		.align	2
 564              	.L47:
 565 01e0 00200140 		.word	1073815552
 566 01e4 00000000 		.word	.LC0
 567 01e8 0100000F 		.word	251658241
 568              		.cfi_endproc
 569              	.LFE126:
 571              		.section	.text.HAL_ADC_MspDeInit,"ax",%progbits
 572              		.align	1
 573              		.weak	HAL_ADC_MspDeInit
 574              		.syntax unified
 575              		.thumb
 576              		.thumb_func
 577              		.fpu fpv4-sp-d16
 579              	HAL_ADC_MspDeInit:
 580              	.LFB129:
 397:Drivers/STM32F4xx_HAL_Driver/Src/stm32f4xx_hal_adc.c ****   /* Prevent unused argument(s) compilation warning */
 581              		.loc 1 397 0
 582              		.cfi_startproc
 583              		@ args = 0, pretend = 0, frame = 0
 584              		@ frame_needed = 0, uses_anonymous_args = 0
 585              		@ link register save eliminated.
 586              	.LVL28:
 403:Drivers/STM32F4xx_HAL_Driver/Src/stm32f4xx_hal_adc.c **** 
 587              		.loc 1 403 0
 588 0000 7047     		bx	lr
 589              		.cfi_endproc
 590              	.LFE129:
 592              		.section	.text.HAL_ADC_DeInit,"ax",%progbits
 593              		.align	1
 594              		.global	HAL_ADC_DeInit
 595              		.syntax unified
 596              		.thumb
 597              		.thumb_func
 598              		.fpu fpv4-sp-d16
 600              	HAL_ADC_DeInit:
 601              	.LFB127:
 335:Drivers/STM32F4xx_HAL_Driver/Src/stm32f4xx_hal_adc.c ****   HAL_StatusTypeDef tmp_hal_status = HAL_OK;
 602              		.loc 1 335 0
 603              		.cfi_startproc
 604              		@ args = 0, pretend = 0, frame = 0
 605              		@ frame_needed = 0, uses_anonymous_args = 0
 606              	.LVL29:
 339:Drivers/STM32F4xx_HAL_Driver/Src/stm32f4xx_hal_adc.c ****   {
 607              		.loc 1 339 0
 608 0000 58B3     		cbz	r0, .L54
ARM GAS  C:\Users\n-is\AppData\Local\Temp\cc3jxhl4.s 			page 41


 335:Drivers/STM32F4xx_HAL_Driver/Src/stm32f4xx_hal_adc.c ****   HAL_StatusTypeDef tmp_hal_status = HAL_OK;
 609              		.loc 1 335 0
 610 0002 10B5     		push	{r4, lr}
 611              	.LCFI3:
 612              		.cfi_def_cfa_offset 8
 613              		.cfi_offset 4, -8
 614              		.cfi_offset 14, -4
 615 0004 0446     		mov	r4, r0
 345:Drivers/STM32F4xx_HAL_Driver/Src/stm32f4xx_hal_adc.c ****   
 616              		.loc 1 345 0
 617 0006 0368     		ldr	r3, [r0]
 618 0008 154A     		ldr	r2, .L60
 619 000a 9342     		cmp	r3, r2
 620 000c 0CD0     		beq	.L52
 345:Drivers/STM32F4xx_HAL_Driver/Src/stm32f4xx_hal_adc.c ****   
 621              		.loc 1 345 0 is_stmt 0 discriminator 1
 622 000e 02F58072 		add	r2, r2, #256
 623 0012 9342     		cmp	r3, r2
 624 0014 08D0     		beq	.L52
 345:Drivers/STM32F4xx_HAL_Driver/Src/stm32f4xx_hal_adc.c ****   
 625              		.loc 1 345 0 discriminator 2
 626 0016 02F58072 		add	r2, r2, #256
 627 001a 9342     		cmp	r3, r2
 628 001c 04D0     		beq	.L52
 345:Drivers/STM32F4xx_HAL_Driver/Src/stm32f4xx_hal_adc.c ****   
 629              		.loc 1 345 0 discriminator 3
 630 001e 40F25911 		movw	r1, #345
 631 0022 1048     		ldr	r0, .L60+4
 632              	.LVL30:
 633 0024 FFF7FEFF 		bl	assert_failed
 634              	.LVL31:
 635              	.L52:
 348:Drivers/STM32F4xx_HAL_Driver/Src/stm32f4xx_hal_adc.c ****   
 636              		.loc 1 348 0 is_stmt 1
 637 0028 236C     		ldr	r3, [r4, #64]
 638 002a 43F00203 		orr	r3, r3, #2
 639 002e 2364     		str	r3, [r4, #64]
 352:Drivers/STM32F4xx_HAL_Driver/Src/stm32f4xx_hal_adc.c ****   
 640              		.loc 1 352 0
 641 0030 2268     		ldr	r2, [r4]
 642 0032 9368     		ldr	r3, [r2, #8]
 643 0034 23F00103 		bic	r3, r3, #1
 644 0038 9360     		str	r3, [r2, #8]
 356:Drivers/STM32F4xx_HAL_Driver/Src/stm32f4xx_hal_adc.c ****   {
 645              		.loc 1 356 0
 646 003a 2368     		ldr	r3, [r4]
 647 003c 9B68     		ldr	r3, [r3, #8]
 648 003e 13F0010F 		tst	r3, #1
 649 0042 03D0     		beq	.L59
 650              	.L53:
 369:Drivers/STM32F4xx_HAL_Driver/Src/stm32f4xx_hal_adc.c ****   
 651              		.loc 1 369 0
 652 0044 0020     		movs	r0, #0
 653 0046 84F83C00 		strb	r0, [r4, #60]
 373:Drivers/STM32F4xx_HAL_Driver/Src/stm32f4xx_hal_adc.c **** 
 654              		.loc 1 373 0
 655 004a 10BD     		pop	{r4, pc}
ARM GAS  C:\Users\n-is\AppData\Local\Temp\cc3jxhl4.s 			page 42


 656              	.LVL32:
 657              	.L59:
 359:Drivers/STM32F4xx_HAL_Driver/Src/stm32f4xx_hal_adc.c ****     
 658              		.loc 1 359 0
 659 004c 2046     		mov	r0, r4
 660 004e FFF7FEFF 		bl	HAL_ADC_MspDeInit
 661              	.LVL33:
 362:Drivers/STM32F4xx_HAL_Driver/Src/stm32f4xx_hal_adc.c ****     
 662              		.loc 1 362 0
 663 0052 0023     		movs	r3, #0
 664 0054 6364     		str	r3, [r4, #68]
 365:Drivers/STM32F4xx_HAL_Driver/Src/stm32f4xx_hal_adc.c ****   }
 665              		.loc 1 365 0
 666 0056 2364     		str	r3, [r4, #64]
 667 0058 F4E7     		b	.L53
 668              	.LVL34:
 669              	.L54:
 670              	.LCFI4:
 671              		.cfi_def_cfa_offset 0
 672              		.cfi_restore 4
 673              		.cfi_restore 14
 341:Drivers/STM32F4xx_HAL_Driver/Src/stm32f4xx_hal_adc.c ****   }
 674              		.loc 1 341 0
 675 005a 0120     		movs	r0, #1
 676              	.LVL35:
 373:Drivers/STM32F4xx_HAL_Driver/Src/stm32f4xx_hal_adc.c **** 
 677              		.loc 1 373 0
 678 005c 7047     		bx	lr
 679              	.L61:
 680 005e 00BF     		.align	2
 681              	.L60:
 682 0060 00200140 		.word	1073815552
 683 0064 00000000 		.word	.LC0
 684              		.cfi_endproc
 685              	.LFE127:
 687              		.section	.text.HAL_ADC_Start,"ax",%progbits
 688              		.align	1
 689              		.global	HAL_ADC_Start
 690              		.syntax unified
 691              		.thumb
 692              		.thumb_func
 693              		.fpu fpv4-sp-d16
 695              	HAL_ADC_Start:
 696              	.LFB130:
 436:Drivers/STM32F4xx_HAL_Driver/Src/stm32f4xx_hal_adc.c ****   __IO uint32_t counter = 0U;
 697              		.loc 1 436 0
 698              		.cfi_startproc
 699              		@ args = 0, pretend = 0, frame = 8
 700              		@ frame_needed = 0, uses_anonymous_args = 0
 701              	.LVL36:
 702 0000 10B5     		push	{r4, lr}
 703              	.LCFI5:
 704              		.cfi_def_cfa_offset 8
 705              		.cfi_offset 4, -8
 706              		.cfi_offset 14, -4
 707 0002 82B0     		sub	sp, sp, #8
 708              	.LCFI6:
ARM GAS  C:\Users\n-is\AppData\Local\Temp\cc3jxhl4.s 			page 43


 709              		.cfi_def_cfa_offset 16
 710 0004 0446     		mov	r4, r0
 437:Drivers/STM32F4xx_HAL_Driver/Src/stm32f4xx_hal_adc.c ****   ADC_Common_TypeDef *tmpADC_Common;
 711              		.loc 1 437 0
 712 0006 0023     		movs	r3, #0
 713 0008 0193     		str	r3, [sp, #4]
 441:Drivers/STM32F4xx_HAL_Driver/Src/stm32f4xx_hal_adc.c ****   assert_param(IS_ADC_EXT_TRIG_EDGE(hadc->Init.ExternalTrigConvEdge)); 
 714              		.loc 1 441 0
 715 000a 8369     		ldr	r3, [r0, #24]
 716 000c 012B     		cmp	r3, #1
 717 000e 24D8     		bhi	.L79
 718              	.LVL37:
 719              	.L63:
 442:Drivers/STM32F4xx_HAL_Driver/Src/stm32f4xx_hal_adc.c ****   
 720              		.loc 1 442 0
 721 0010 E36A     		ldr	r3, [r4, #44]
 722 0012 43B1     		cbz	r3, .L64
 442:Drivers/STM32F4xx_HAL_Driver/Src/stm32f4xx_hal_adc.c ****   
 723              		.loc 1 442 0 is_stmt 0 discriminator 1
 724 0014 B3F1805F 		cmp	r3, #268435456
 725 0018 05D0     		beq	.L64
 442:Drivers/STM32F4xx_HAL_Driver/Src/stm32f4xx_hal_adc.c ****   
 726              		.loc 1 442 0 discriminator 2
 727 001a B3F1005F 		cmp	r3, #536870912
 728 001e 02D0     		beq	.L64
 442:Drivers/STM32F4xx_HAL_Driver/Src/stm32f4xx_hal_adc.c ****   
 729              		.loc 1 442 0 discriminator 3
 730 0020 B3F1405F 		cmp	r3, #805306368
 731 0024 1FD1     		bne	.L80
 732              	.L64:
 445:Drivers/STM32F4xx_HAL_Driver/Src/stm32f4xx_hal_adc.c ****   
 733              		.loc 1 445 0 is_stmt 1
 734 0026 94F83C30 		ldrb	r3, [r4, #60]	@ zero_extendqisi2
 735 002a 012B     		cmp	r3, #1
 736 002c 6FD0     		beq	.L73
 445:Drivers/STM32F4xx_HAL_Driver/Src/stm32f4xx_hal_adc.c ****   
 737              		.loc 1 445 0 is_stmt 0 discriminator 2
 738 002e 0123     		movs	r3, #1
 739 0030 84F83C30 		strb	r3, [r4, #60]
 450:Drivers/STM32F4xx_HAL_Driver/Src/stm32f4xx_hal_adc.c ****   {  
 740              		.loc 1 450 0 is_stmt 1 discriminator 2
 741 0034 2368     		ldr	r3, [r4]
 742 0036 9A68     		ldr	r2, [r3, #8]
 743 0038 12F0010F 		tst	r2, #1
 744 003c 1FD1     		bne	.L66
 453:Drivers/STM32F4xx_HAL_Driver/Src/stm32f4xx_hal_adc.c ****     
 745              		.loc 1 453 0
 746 003e 9A68     		ldr	r2, [r3, #8]
 747 0040 42F00102 		orr	r2, r2, #1
 748 0044 9A60     		str	r2, [r3, #8]
 457:Drivers/STM32F4xx_HAL_Driver/Src/stm32f4xx_hal_adc.c ****     while(counter != 0U)
 749              		.loc 1 457 0
 750 0046 364B     		ldr	r3, .L82
 751 0048 1B68     		ldr	r3, [r3]
 752 004a 364A     		ldr	r2, .L82+4
 753 004c A2FB0323 		umull	r2, r3, r2, r3
 754 0050 9B0C     		lsrs	r3, r3, #18
ARM GAS  C:\Users\n-is\AppData\Local\Temp\cc3jxhl4.s 			page 44


 755 0052 03EB4303 		add	r3, r3, r3, lsl #1
 756 0056 0193     		str	r3, [sp, #4]
 458:Drivers/STM32F4xx_HAL_Driver/Src/stm32f4xx_hal_adc.c ****     {
 757              		.loc 1 458 0
 758 0058 0EE0     		b	.L67
 759              	.LVL38:
 760              	.L79:
 441:Drivers/STM32F4xx_HAL_Driver/Src/stm32f4xx_hal_adc.c ****   assert_param(IS_ADC_EXT_TRIG_EDGE(hadc->Init.ExternalTrigConvEdge)); 
 761              		.loc 1 441 0 discriminator 1
 762 005a 40F2B911 		movw	r1, #441
 763 005e 3248     		ldr	r0, .L82+8
 764              	.LVL39:
 765 0060 FFF7FEFF 		bl	assert_failed
 766              	.LVL40:
 767 0064 D4E7     		b	.L63
 768              	.L80:
 442:Drivers/STM32F4xx_HAL_Driver/Src/stm32f4xx_hal_adc.c ****   
 769              		.loc 1 442 0 discriminator 4
 770 0066 4FF4DD71 		mov	r1, #442
 771 006a 2F48     		ldr	r0, .L82+8
 772 006c FFF7FEFF 		bl	assert_failed
 773              	.LVL41:
 774 0070 D9E7     		b	.L64
 775              	.L68:
 460:Drivers/STM32F4xx_HAL_Driver/Src/stm32f4xx_hal_adc.c ****     }
 776              		.loc 1 460 0
 777 0072 019B     		ldr	r3, [sp, #4]
 778 0074 013B     		subs	r3, r3, #1
 779 0076 0193     		str	r3, [sp, #4]
 780              	.L67:
 458:Drivers/STM32F4xx_HAL_Driver/Src/stm32f4xx_hal_adc.c ****     {
 781              		.loc 1 458 0
 782 0078 019B     		ldr	r3, [sp, #4]
 783 007a 002B     		cmp	r3, #0
 784 007c F9D1     		bne	.L68
 785              	.L66:
 465:Drivers/STM32F4xx_HAL_Driver/Src/stm32f4xx_hal_adc.c ****   {
 786              		.loc 1 465 0
 787 007e 2268     		ldr	r2, [r4]
 788 0080 9368     		ldr	r3, [r2, #8]
 789 0082 13F0010F 		tst	r3, #1
 790 0086 44D0     		beq	.L74
 470:Drivers/STM32F4xx_HAL_Driver/Src/stm32f4xx_hal_adc.c ****                       HAL_ADC_STATE_READY | HAL_ADC_STATE_REG_EOC | HAL_ADC_STATE_REG_OVR,
 791              		.loc 1 470 0
 792 0088 236C     		ldr	r3, [r4, #64]
 793 008a 23F4E063 		bic	r3, r3, #1792
 794 008e 23F00103 		bic	r3, r3, #1
 795 0092 43F48073 		orr	r3, r3, #256
 796 0096 2364     		str	r3, [r4, #64]
 476:Drivers/STM32F4xx_HAL_Driver/Src/stm32f4xx_hal_adc.c ****     {
 797              		.loc 1 476 0
 798 0098 5368     		ldr	r3, [r2, #4]
 799 009a 13F4806F 		tst	r3, #1024
 800 009e 05D0     		beq	.L69
 478:Drivers/STM32F4xx_HAL_Driver/Src/stm32f4xx_hal_adc.c ****     }
 801              		.loc 1 478 0
 802 00a0 236C     		ldr	r3, [r4, #64]
ARM GAS  C:\Users\n-is\AppData\Local\Temp\cc3jxhl4.s 			page 45


 803 00a2 23F44053 		bic	r3, r3, #12288
 804 00a6 43F48053 		orr	r3, r3, #4096
 805 00aa 2364     		str	r3, [r4, #64]
 806              	.L69:
 482:Drivers/STM32F4xx_HAL_Driver/Src/stm32f4xx_hal_adc.c ****     {
 807              		.loc 1 482 0
 808 00ac 236C     		ldr	r3, [r4, #64]
 809 00ae 13F4805F 		tst	r3, #4096
 810 00b2 19D0     		beq	.L70
 485:Drivers/STM32F4xx_HAL_Driver/Src/stm32f4xx_hal_adc.c ****     }
 811              		.loc 1 485 0
 812 00b4 636C     		ldr	r3, [r4, #68]
 813 00b6 23F00603 		bic	r3, r3, #6
 814 00ba 6364     		str	r3, [r4, #68]
 815              	.L71:
 496:Drivers/STM32F4xx_HAL_Driver/Src/stm32f4xx_hal_adc.c **** 
 816              		.loc 1 496 0
 817 00bc 0023     		movs	r3, #0
 818 00be 84F83C30 		strb	r3, [r4, #60]
 819              	.LVL42:
 505:Drivers/STM32F4xx_HAL_Driver/Src/stm32f4xx_hal_adc.c ****     
 820              		.loc 1 505 0
 821 00c2 6FF02203 		mvn	r3, #34
 822 00c6 1360     		str	r3, [r2]
 508:Drivers/STM32F4xx_HAL_Driver/Src/stm32f4xx_hal_adc.c ****     {
 823              		.loc 1 508 0
 824 00c8 184B     		ldr	r3, .L82+12
 825 00ca 5B68     		ldr	r3, [r3, #4]
 826 00cc 13F01F0F 		tst	r3, #31
 827 00d0 0DD1     		bne	.L72
 511:Drivers/STM32F4xx_HAL_Driver/Src/stm32f4xx_hal_adc.c ****       {
 828              		.loc 1 511 0
 829 00d2 2368     		ldr	r3, [r4]
 830 00d4 9A68     		ldr	r2, [r3, #8]
 831 00d6 12F0405F 		tst	r2, #805306368
 832 00da 1DD1     		bne	.L75
 514:Drivers/STM32F4xx_HAL_Driver/Src/stm32f4xx_hal_adc.c ****       }
 833              		.loc 1 514 0
 834 00dc 9A68     		ldr	r2, [r3, #8]
 835 00de 42F08042 		orr	r2, r2, #1073741824
 836 00e2 9A60     		str	r2, [r3, #8]
 529:Drivers/STM32F4xx_HAL_Driver/Src/stm32f4xx_hal_adc.c **** }
 837              		.loc 1 529 0
 838 00e4 0020     		movs	r0, #0
 839 00e6 15E0     		b	.L65
 840              	.LVL43:
 841              	.L70:
 490:Drivers/STM32F4xx_HAL_Driver/Src/stm32f4xx_hal_adc.c ****     } 
 842              		.loc 1 490 0
 843 00e8 0023     		movs	r3, #0
 844 00ea 6364     		str	r3, [r4, #68]
 845 00ec E6E7     		b	.L71
 846              	.LVL44:
 847              	.L72:
 520:Drivers/STM32F4xx_HAL_Driver/Src/stm32f4xx_hal_adc.c ****       {
 848              		.loc 1 520 0
 849 00ee 2368     		ldr	r3, [r4]
ARM GAS  C:\Users\n-is\AppData\Local\Temp\cc3jxhl4.s 			page 46


 850 00f0 0F4A     		ldr	r2, .L82+16
 851 00f2 9342     		cmp	r3, r2
 852 00f4 01D0     		beq	.L81
 529:Drivers/STM32F4xx_HAL_Driver/Src/stm32f4xx_hal_adc.c **** }
 853              		.loc 1 529 0
 854 00f6 0020     		movs	r0, #0
 855 00f8 0CE0     		b	.L65
 856              	.L81:
 520:Drivers/STM32F4xx_HAL_Driver/Src/stm32f4xx_hal_adc.c ****       {
 857              		.loc 1 520 0 discriminator 1
 858 00fa 9A68     		ldr	r2, [r3, #8]
 859 00fc 12F0405F 		tst	r2, #805306368
 860 0100 0CD1     		bne	.L77
 523:Drivers/STM32F4xx_HAL_Driver/Src/stm32f4xx_hal_adc.c ****       }
 861              		.loc 1 523 0
 862 0102 9A68     		ldr	r2, [r3, #8]
 863 0104 42F08042 		orr	r2, r2, #1073741824
 864 0108 9A60     		str	r2, [r3, #8]
 529:Drivers/STM32F4xx_HAL_Driver/Src/stm32f4xx_hal_adc.c **** }
 865              		.loc 1 529 0
 866 010a 0020     		movs	r0, #0
 867 010c 02E0     		b	.L65
 868              	.LVL45:
 869              	.L73:
 445:Drivers/STM32F4xx_HAL_Driver/Src/stm32f4xx_hal_adc.c ****   
 870              		.loc 1 445 0
 871 010e 0220     		movs	r0, #2
 872 0110 00E0     		b	.L65
 873              	.L74:
 529:Drivers/STM32F4xx_HAL_Driver/Src/stm32f4xx_hal_adc.c **** }
 874              		.loc 1 529 0
 875 0112 0020     		movs	r0, #0
 876              	.L65:
 530:Drivers/STM32F4xx_HAL_Driver/Src/stm32f4xx_hal_adc.c **** 
 877              		.loc 1 530 0
 878 0114 02B0     		add	sp, sp, #8
 879              	.LCFI7:
 880              		.cfi_remember_state
 881              		.cfi_def_cfa_offset 8
 882              		@ sp needed
 883 0116 10BD     		pop	{r4, pc}
 884              	.LVL46:
 885              	.L75:
 886              	.LCFI8:
 887              		.cfi_restore_state
 529:Drivers/STM32F4xx_HAL_Driver/Src/stm32f4xx_hal_adc.c **** }
 888              		.loc 1 529 0
 889 0118 0020     		movs	r0, #0
 890 011a FBE7     		b	.L65
 891              	.L77:
 892 011c 0020     		movs	r0, #0
 893 011e F9E7     		b	.L65
 894              	.L83:
 895              		.align	2
 896              	.L82:
 897 0120 00000000 		.word	SystemCoreClock
 898 0124 83DE1B43 		.word	1125899907
ARM GAS  C:\Users\n-is\AppData\Local\Temp\cc3jxhl4.s 			page 47


 899 0128 00000000 		.word	.LC0
 900 012c 00230140 		.word	1073816320
 901 0130 00200140 		.word	1073815552
 902              		.cfi_endproc
 903              	.LFE130:
 905              		.section	.text.HAL_ADC_Stop,"ax",%progbits
 906              		.align	1
 907              		.global	HAL_ADC_Stop
 908              		.syntax unified
 909              		.thumb
 910              		.thumb_func
 911              		.fpu fpv4-sp-d16
 913              	HAL_ADC_Stop:
 914              	.LFB131:
 543:Drivers/STM32F4xx_HAL_Driver/Src/stm32f4xx_hal_adc.c ****   /* Check the parameters */
 915              		.loc 1 543 0
 916              		.cfi_startproc
 917              		@ args = 0, pretend = 0, frame = 0
 918              		@ frame_needed = 0, uses_anonymous_args = 0
 919              	.LVL47:
 920 0000 10B5     		push	{r4, lr}
 921              	.LCFI9:
 922              		.cfi_def_cfa_offset 8
 923              		.cfi_offset 4, -8
 924              		.cfi_offset 14, -4
 925 0002 0446     		mov	r4, r0
 545:Drivers/STM32F4xx_HAL_Driver/Src/stm32f4xx_hal_adc.c ****   
 926              		.loc 1 545 0
 927 0004 0368     		ldr	r3, [r0]
 928 0006 174A     		ldr	r2, .L90
 929 0008 9342     		cmp	r3, r2
 930 000a 0CD0     		beq	.L85
 545:Drivers/STM32F4xx_HAL_Driver/Src/stm32f4xx_hal_adc.c ****   
 931              		.loc 1 545 0 is_stmt 0 discriminator 1
 932 000c 02F58072 		add	r2, r2, #256
 933 0010 9342     		cmp	r3, r2
 934 0012 08D0     		beq	.L85
 545:Drivers/STM32F4xx_HAL_Driver/Src/stm32f4xx_hal_adc.c ****   
 935              		.loc 1 545 0 discriminator 2
 936 0014 02F58072 		add	r2, r2, #256
 937 0018 9342     		cmp	r3, r2
 938 001a 04D0     		beq	.L85
 545:Drivers/STM32F4xx_HAL_Driver/Src/stm32f4xx_hal_adc.c ****   
 939              		.loc 1 545 0 discriminator 3
 940 001c 40F22121 		movw	r1, #545
 941 0020 1148     		ldr	r0, .L90+4
 942              	.LVL48:
 943 0022 FFF7FEFF 		bl	assert_failed
 944              	.LVL49:
 945              	.L85:
 548:Drivers/STM32F4xx_HAL_Driver/Src/stm32f4xx_hal_adc.c ****   
 946              		.loc 1 548 0 is_stmt 1
 947 0026 94F83C30 		ldrb	r3, [r4, #60]	@ zero_extendqisi2
 948 002a 012B     		cmp	r3, #1
 949 002c 18D0     		beq	.L88
 548:Drivers/STM32F4xx_HAL_Driver/Src/stm32f4xx_hal_adc.c ****   
 950              		.loc 1 548 0 is_stmt 0 discriminator 2
ARM GAS  C:\Users\n-is\AppData\Local\Temp\cc3jxhl4.s 			page 48


 951 002e 0123     		movs	r3, #1
 952 0030 84F83C30 		strb	r3, [r4, #60]
 552:Drivers/STM32F4xx_HAL_Driver/Src/stm32f4xx_hal_adc.c ****   
 953              		.loc 1 552 0 is_stmt 1 discriminator 2
 954 0034 2268     		ldr	r2, [r4]
 955 0036 9368     		ldr	r3, [r2, #8]
 956 0038 23F00103 		bic	r3, r3, #1
 957 003c 9360     		str	r3, [r2, #8]
 555:Drivers/STM32F4xx_HAL_Driver/Src/stm32f4xx_hal_adc.c ****   {
 958              		.loc 1 555 0 discriminator 2
 959 003e 2368     		ldr	r3, [r4]
 960 0040 9B68     		ldr	r3, [r3, #8]
 961 0042 13F0010F 		tst	r3, #1
 962 0046 07D1     		bne	.L87
 558:Drivers/STM32F4xx_HAL_Driver/Src/stm32f4xx_hal_adc.c ****                       HAL_ADC_STATE_REG_BUSY | HAL_ADC_STATE_INJ_BUSY,
 963              		.loc 1 558 0
 964 0048 236C     		ldr	r3, [r4, #64]
 965 004a 23F48853 		bic	r3, r3, #4352
 966 004e 23F00103 		bic	r3, r3, #1
 967 0052 43F00103 		orr	r3, r3, #1
 968 0056 2364     		str	r3, [r4, #64]
 969              	.L87:
 564:Drivers/STM32F4xx_HAL_Driver/Src/stm32f4xx_hal_adc.c ****   
 970              		.loc 1 564 0
 971 0058 0020     		movs	r0, #0
 972 005a 84F83C00 		strb	r0, [r4, #60]
 973              	.L86:
 568:Drivers/STM32F4xx_HAL_Driver/Src/stm32f4xx_hal_adc.c **** 
 974              		.loc 1 568 0
 975 005e 10BD     		pop	{r4, pc}
 976              	.LVL50:
 977              	.L88:
 548:Drivers/STM32F4xx_HAL_Driver/Src/stm32f4xx_hal_adc.c ****   
 978              		.loc 1 548 0
 979 0060 0220     		movs	r0, #2
 980 0062 FCE7     		b	.L86
 981              	.L91:
 982              		.align	2
 983              	.L90:
 984 0064 00200140 		.word	1073815552
 985 0068 00000000 		.word	.LC0
 986              		.cfi_endproc
 987              	.LFE131:
 989              		.section	.text.HAL_ADC_PollForConversion,"ax",%progbits
 990              		.align	1
 991              		.global	HAL_ADC_PollForConversion
 992              		.syntax unified
 993              		.thumb
 994              		.thumb_func
 995              		.fpu fpv4-sp-d16
 997              	HAL_ADC_PollForConversion:
 998              	.LFB132:
 586:Drivers/STM32F4xx_HAL_Driver/Src/stm32f4xx_hal_adc.c ****   uint32_t tickstart = 0U;
 999              		.loc 1 586 0
 1000              		.cfi_startproc
 1001              		@ args = 0, pretend = 0, frame = 0
 1002              		@ frame_needed = 0, uses_anonymous_args = 0
ARM GAS  C:\Users\n-is\AppData\Local\Temp\cc3jxhl4.s 			page 49


 1003              	.LVL51:
 595:Drivers/STM32F4xx_HAL_Driver/Src/stm32f4xx_hal_adc.c ****       HAL_IS_BIT_SET(hadc->Instance->CR2, ADC_CR2_DMA)    )
 1004              		.loc 1 595 0
 1005 0000 0368     		ldr	r3, [r0]
 1006 0002 9A68     		ldr	r2, [r3, #8]
 1007 0004 12F4806F 		tst	r2, #1024
 1008 0008 03D0     		beq	.L93
 596:Drivers/STM32F4xx_HAL_Driver/Src/stm32f4xx_hal_adc.c ****   {
 1009              		.loc 1 596 0 discriminator 1
 1010 000a 9B68     		ldr	r3, [r3, #8]
 595:Drivers/STM32F4xx_HAL_Driver/Src/stm32f4xx_hal_adc.c ****       HAL_IS_BIT_SET(hadc->Instance->CR2, ADC_CR2_DMA)    )
 1011              		.loc 1 595 0 discriminator 1
 1012 000c 13F4807F 		tst	r3, #256
 1013 0010 1CD1     		bne	.L107
 1014              	.L93:
 586:Drivers/STM32F4xx_HAL_Driver/Src/stm32f4xx_hal_adc.c ****   uint32_t tickstart = 0U;
 1015              		.loc 1 586 0
 1016 0012 70B5     		push	{r4, r5, r6, lr}
 1017              	.LCFI10:
 1018              		.cfi_def_cfa_offset 16
 1019              		.cfi_offset 4, -16
 1020              		.cfi_offset 5, -12
 1021              		.cfi_offset 6, -8
 1022              		.cfi_offset 14, -4
 1023 0014 0D46     		mov	r5, r1
 1024 0016 0446     		mov	r4, r0
 608:Drivers/STM32F4xx_HAL_Driver/Src/stm32f4xx_hal_adc.c **** 
 1025              		.loc 1 608 0
 1026 0018 FFF7FEFF 		bl	HAL_GetTick
 1027              	.LVL52:
 1028 001c 0646     		mov	r6, r0
 1029              	.LVL53:
 1030              	.L96:
 611:Drivers/STM32F4xx_HAL_Driver/Src/stm32f4xx_hal_adc.c ****   {
 1031              		.loc 1 611 0
 1032 001e 2368     		ldr	r3, [r4]
 1033 0020 1A68     		ldr	r2, [r3]
 1034 0022 12F0020F 		tst	r2, #2
 1035 0026 1AD1     		bne	.L108
 614:Drivers/STM32F4xx_HAL_Driver/Src/stm32f4xx_hal_adc.c ****     {
 1036              		.loc 1 614 0
 1037 0028 B5F1FF3F 		cmp	r5, #-1
 1038 002c F7D0     		beq	.L96
 616:Drivers/STM32F4xx_HAL_Driver/Src/stm32f4xx_hal_adc.c ****       {
 1039              		.loc 1 616 0
 1040 002e 25B1     		cbz	r5, .L97
 616:Drivers/STM32F4xx_HAL_Driver/Src/stm32f4xx_hal_adc.c ****       {
 1041              		.loc 1 616 0 is_stmt 0 discriminator 1
 1042 0030 FFF7FEFF 		bl	HAL_GetTick
 1043              	.LVL54:
 1044 0034 801B     		subs	r0, r0, r6
 1045 0036 A842     		cmp	r0, r5
 1046 0038 F1D9     		bls	.L96
 1047              	.L97:
 619:Drivers/STM32F4xx_HAL_Driver/Src/stm32f4xx_hal_adc.c ****         
 1048              		.loc 1 619 0 is_stmt 1
 1049 003a 236C     		ldr	r3, [r4, #64]
ARM GAS  C:\Users\n-is\AppData\Local\Temp\cc3jxhl4.s 			page 50


 1050 003c 43F00403 		orr	r3, r3, #4
 1051 0040 2364     		str	r3, [r4, #64]
 622:Drivers/STM32F4xx_HAL_Driver/Src/stm32f4xx_hal_adc.c ****         
 1052              		.loc 1 622 0
 1053 0042 0023     		movs	r3, #0
 1054 0044 84F83C30 		strb	r3, [r4, #60]
 624:Drivers/STM32F4xx_HAL_Driver/Src/stm32f4xx_hal_adc.c ****       }
 1055              		.loc 1 624 0
 1056 0048 0320     		movs	r0, #3
 1057 004a 2DE0     		b	.L94
 1058              	.LVL55:
 1059              	.L107:
 1060              	.LCFI11:
 1061              		.cfi_def_cfa_offset 0
 1062              		.cfi_restore 4
 1063              		.cfi_restore 5
 1064              		.cfi_restore 6
 1065              		.cfi_restore 14
 599:Drivers/STM32F4xx_HAL_Driver/Src/stm32f4xx_hal_adc.c ****     
 1066              		.loc 1 599 0
 1067 004c 036C     		ldr	r3, [r0, #64]
 1068 004e 43F02003 		orr	r3, r3, #32
 1069 0052 0364     		str	r3, [r0, #64]
 602:Drivers/STM32F4xx_HAL_Driver/Src/stm32f4xx_hal_adc.c ****     
 1070              		.loc 1 602 0
 1071 0054 0023     		movs	r3, #0
 1072 0056 80F83C30 		strb	r3, [r0, #60]
 604:Drivers/STM32F4xx_HAL_Driver/Src/stm32f4xx_hal_adc.c ****   }
 1073              		.loc 1 604 0
 1074 005a 0120     		movs	r0, #1
 1075              	.LVL56:
 657:Drivers/STM32F4xx_HAL_Driver/Src/stm32f4xx_hal_adc.c **** 
 1076              		.loc 1 657 0
 1077 005c 7047     		bx	lr
 1078              	.LVL57:
 1079              	.L108:
 1080              	.LCFI12:
 1081              		.cfi_def_cfa_offset 16
 1082              		.cfi_offset 4, -16
 1083              		.cfi_offset 5, -12
 1084              		.cfi_offset 6, -8
 1085              		.cfi_offset 14, -4
 630:Drivers/STM32F4xx_HAL_Driver/Src/stm32f4xx_hal_adc.c ****   
 1086              		.loc 1 630 0
 1087 005e 6FF01202 		mvn	r2, #18
 1088 0062 1A60     		str	r2, [r3]
 633:Drivers/STM32F4xx_HAL_Driver/Src/stm32f4xx_hal_adc.c ****   
 1089              		.loc 1 633 0
 1090 0064 236C     		ldr	r3, [r4, #64]
 1091 0066 43F40073 		orr	r3, r3, #512
 1092 006a 2364     		str	r3, [r4, #64]
 641:Drivers/STM32F4xx_HAL_Driver/Src/stm32f4xx_hal_adc.c ****      (hadc->Init.ContinuousConvMode == DISABLE)            &&
 1093              		.loc 1 641 0
 1094 006c 2368     		ldr	r3, [r4]
 1095 006e 9A68     		ldr	r2, [r3, #8]
 1096 0070 12F0405F 		tst	r2, #805306368
 1097 0074 17D1     		bne	.L100
ARM GAS  C:\Users\n-is\AppData\Local\Temp\cc3jxhl4.s 			page 51


 642:Drivers/STM32F4xx_HAL_Driver/Src/stm32f4xx_hal_adc.c ****      (HAL_IS_BIT_CLR(hadc->Instance->SQR1, ADC_SQR1_L) ||
 1098              		.loc 1 642 0 discriminator 1
 1099 0076 A269     		ldr	r2, [r4, #24]
 641:Drivers/STM32F4xx_HAL_Driver/Src/stm32f4xx_hal_adc.c ****      (hadc->Init.ContinuousConvMode == DISABLE)            &&
 1100              		.loc 1 641 0 discriminator 1
 1101 0078 BAB9     		cbnz	r2, .L101
 643:Drivers/STM32F4xx_HAL_Driver/Src/stm32f4xx_hal_adc.c ****       HAL_IS_BIT_CLR(hadc->Instance->CR2, ADC_CR2_EOCS)  )   )
 1102              		.loc 1 643 0
 1103 007a DA6A     		ldr	r2, [r3, #44]
 642:Drivers/STM32F4xx_HAL_Driver/Src/stm32f4xx_hal_adc.c ****      (HAL_IS_BIT_CLR(hadc->Instance->SQR1, ADC_SQR1_L) ||
 1104              		.loc 1 642 0
 1105 007c 12F4700F 		tst	r2, #15728640
 1106 0080 03D0     		beq	.L99
 644:Drivers/STM32F4xx_HAL_Driver/Src/stm32f4xx_hal_adc.c ****   {
 1107              		.loc 1 644 0
 1108 0082 9B68     		ldr	r3, [r3, #8]
 643:Drivers/STM32F4xx_HAL_Driver/Src/stm32f4xx_hal_adc.c ****       HAL_IS_BIT_CLR(hadc->Instance->CR2, ADC_CR2_EOCS)  )   )
 1109              		.loc 1 643 0
 1110 0084 13F4806F 		tst	r3, #1024
 1111 0088 11D1     		bne	.L102
 1112              	.L99:
 647:Drivers/STM32F4xx_HAL_Driver/Src/stm32f4xx_hal_adc.c ****     
 1113              		.loc 1 647 0
 1114 008a 236C     		ldr	r3, [r4, #64]
 1115 008c 23F48073 		bic	r3, r3, #256
 1116 0090 2364     		str	r3, [r4, #64]
 649:Drivers/STM32F4xx_HAL_Driver/Src/stm32f4xx_hal_adc.c ****     { 
 1117              		.loc 1 649 0
 1118 0092 236C     		ldr	r3, [r4, #64]
 1119 0094 13F4805F 		tst	r3, #4096
 1120 0098 0BD1     		bne	.L103
 651:Drivers/STM32F4xx_HAL_Driver/Src/stm32f4xx_hal_adc.c ****     }
 1121              		.loc 1 651 0
 1122 009a 236C     		ldr	r3, [r4, #64]
 1123 009c 43F00103 		orr	r3, r3, #1
 1124 00a0 2364     		str	r3, [r4, #64]
 656:Drivers/STM32F4xx_HAL_Driver/Src/stm32f4xx_hal_adc.c **** }
 1125              		.loc 1 656 0
 1126 00a2 0020     		movs	r0, #0
 1127 00a4 00E0     		b	.L94
 1128              	.L100:
 1129 00a6 0020     		movs	r0, #0
 1130              	.L94:
 657:Drivers/STM32F4xx_HAL_Driver/Src/stm32f4xx_hal_adc.c **** 
 1131              		.loc 1 657 0
 1132 00a8 70BD     		pop	{r4, r5, r6, pc}
 1133              	.LVL58:
 1134              	.L101:
 656:Drivers/STM32F4xx_HAL_Driver/Src/stm32f4xx_hal_adc.c **** }
 1135              		.loc 1 656 0
 1136 00aa 0020     		movs	r0, #0
 1137 00ac FCE7     		b	.L94
 1138              	.L102:
 1139 00ae 0020     		movs	r0, #0
 1140 00b0 FAE7     		b	.L94
 1141              	.L103:
 1142 00b2 0020     		movs	r0, #0
ARM GAS  C:\Users\n-is\AppData\Local\Temp\cc3jxhl4.s 			page 52


 1143 00b4 F8E7     		b	.L94
 1144              		.cfi_endproc
 1145              	.LFE132:
 1147              		.section	.text.HAL_ADC_PollForEvent,"ax",%progbits
 1148              		.align	1
 1149              		.global	HAL_ADC_PollForEvent
 1150              		.syntax unified
 1151              		.thumb
 1152              		.thumb_func
 1153              		.fpu fpv4-sp-d16
 1155              	HAL_ADC_PollForEvent:
 1156              	.LFB133:
 671:Drivers/STM32F4xx_HAL_Driver/Src/stm32f4xx_hal_adc.c ****   uint32_t tickstart = 0U;
 1157              		.loc 1 671 0
 1158              		.cfi_startproc
 1159              		@ args = 0, pretend = 0, frame = 0
 1160              		@ frame_needed = 0, uses_anonymous_args = 0
 1161              	.LVL59:
 1162 0000 F8B5     		push	{r3, r4, r5, r6, r7, lr}
 1163              	.LCFI13:
 1164              		.cfi_def_cfa_offset 24
 1165              		.cfi_offset 3, -24
 1166              		.cfi_offset 4, -20
 1167              		.cfi_offset 5, -16
 1168              		.cfi_offset 6, -12
 1169              		.cfi_offset 7, -8
 1170              		.cfi_offset 14, -4
 1171 0002 0446     		mov	r4, r0
 1172 0004 0D46     		mov	r5, r1
 1173 0006 1646     		mov	r6, r2
 1174              	.LVL60:
 675:Drivers/STM32F4xx_HAL_Driver/Src/stm32f4xx_hal_adc.c ****   assert_param(IS_ADC_EVENT_TYPE(EventType));
 1175              		.loc 1 675 0
 1176 0008 0368     		ldr	r3, [r0]
 1177 000a 264A     		ldr	r2, .L122
 1178              	.LVL61:
 1179 000c 9342     		cmp	r3, r2
 1180 000e 0CD0     		beq	.L110
 675:Drivers/STM32F4xx_HAL_Driver/Src/stm32f4xx_hal_adc.c ****   assert_param(IS_ADC_EVENT_TYPE(EventType));
 1181              		.loc 1 675 0 is_stmt 0 discriminator 1
 1182 0010 02F58072 		add	r2, r2, #256
 1183 0014 9342     		cmp	r3, r2
 1184 0016 08D0     		beq	.L110
 675:Drivers/STM32F4xx_HAL_Driver/Src/stm32f4xx_hal_adc.c ****   assert_param(IS_ADC_EVENT_TYPE(EventType));
 1185              		.loc 1 675 0 discriminator 2
 1186 0018 02F58072 		add	r2, r2, #256
 1187 001c 9342     		cmp	r3, r2
 1188 001e 04D0     		beq	.L110
 675:Drivers/STM32F4xx_HAL_Driver/Src/stm32f4xx_hal_adc.c ****   assert_param(IS_ADC_EVENT_TYPE(EventType));
 1189              		.loc 1 675 0 discriminator 3
 1190 0020 40F2A321 		movw	r1, #675
 1191              	.LVL62:
 1192 0024 2048     		ldr	r0, .L122+4
 1193              	.LVL63:
 1194 0026 FFF7FEFF 		bl	assert_failed
 1195              	.LVL64:
 1196              	.L110:
ARM GAS  C:\Users\n-is\AppData\Local\Temp\cc3jxhl4.s 			page 53


 676:Drivers/STM32F4xx_HAL_Driver/Src/stm32f4xx_hal_adc.c **** 
 1197              		.loc 1 676 0 is_stmt 1
 1198 002a 012D     		cmp	r5, #1
 1199 002c 01D0     		beq	.L111
 676:Drivers/STM32F4xx_HAL_Driver/Src/stm32f4xx_hal_adc.c **** 
 1200              		.loc 1 676 0 is_stmt 0 discriminator 1
 1201 002e 202D     		cmp	r5, #32
 1202 0030 19D1     		bne	.L119
 1203              	.L111:
 679:Drivers/STM32F4xx_HAL_Driver/Src/stm32f4xx_hal_adc.c **** 
 1204              		.loc 1 679 0 is_stmt 1
 1205 0032 FFF7FEFF 		bl	HAL_GetTick
 1206              	.LVL65:
 1207 0036 0746     		mov	r7, r0
 1208              	.LVL66:
 1209              	.L113:
 682:Drivers/STM32F4xx_HAL_Driver/Src/stm32f4xx_hal_adc.c ****   {
 1210              		.loc 1 682 0
 1211 0038 2368     		ldr	r3, [r4]
 1212 003a 1A68     		ldr	r2, [r3]
 1213 003c 35EA0202 		bics	r2, r5, r2
 1214 0040 17D0     		beq	.L120
 685:Drivers/STM32F4xx_HAL_Driver/Src/stm32f4xx_hal_adc.c ****     {
 1215              		.loc 1 685 0
 1216 0042 B6F1FF3F 		cmp	r6, #-1
 1217 0046 F7D0     		beq	.L113
 687:Drivers/STM32F4xx_HAL_Driver/Src/stm32f4xx_hal_adc.c ****       {
 1218              		.loc 1 687 0
 1219 0048 26B1     		cbz	r6, .L114
 687:Drivers/STM32F4xx_HAL_Driver/Src/stm32f4xx_hal_adc.c ****       {
 1220              		.loc 1 687 0 is_stmt 0 discriminator 1
 1221 004a FFF7FEFF 		bl	HAL_GetTick
 1222              	.LVL67:
 1223 004e C01B     		subs	r0, r0, r7
 1224 0050 B042     		cmp	r0, r6
 1225 0052 F1D9     		bls	.L113
 1226              	.L114:
 690:Drivers/STM32F4xx_HAL_Driver/Src/stm32f4xx_hal_adc.c ****         
 1227              		.loc 1 690 0 is_stmt 1
 1228 0054 236C     		ldr	r3, [r4, #64]
 1229 0056 43F00403 		orr	r3, r3, #4
 1230 005a 2364     		str	r3, [r4, #64]
 693:Drivers/STM32F4xx_HAL_Driver/Src/stm32f4xx_hal_adc.c ****         
 1231              		.loc 1 693 0
 1232 005c 0023     		movs	r3, #0
 1233 005e 84F83C30 		strb	r3, [r4, #60]
 695:Drivers/STM32F4xx_HAL_Driver/Src/stm32f4xx_hal_adc.c ****       }
 1234              		.loc 1 695 0
 1235 0062 0320     		movs	r0, #3
 1236 0064 13E0     		b	.L115
 1237              	.LVL68:
 1238              	.L119:
 676:Drivers/STM32F4xx_HAL_Driver/Src/stm32f4xx_hal_adc.c **** 
 1239              		.loc 1 676 0 discriminator 2
 1240 0066 4FF42971 		mov	r1, #676
 1241 006a 0F48     		ldr	r0, .L122+4
 1242 006c FFF7FEFF 		bl	assert_failed
ARM GAS  C:\Users\n-is\AppData\Local\Temp\cc3jxhl4.s 			page 54


 1243              	.LVL69:
 1244 0070 DFE7     		b	.L111
 1245              	.LVL70:
 1246              	.L120:
 701:Drivers/STM32F4xx_HAL_Driver/Src/stm32f4xx_hal_adc.c ****   {
 1247              		.loc 1 701 0
 1248 0072 012D     		cmp	r5, #1
 1249 0074 0CD0     		beq	.L121
 713:Drivers/STM32F4xx_HAL_Driver/Src/stm32f4xx_hal_adc.c ****     /* Set ADC error code to overrun */
 1250              		.loc 1 713 0
 1251 0076 226C     		ldr	r2, [r4, #64]
 1252 0078 42F48062 		orr	r2, r2, #1024
 1253 007c 2264     		str	r2, [r4, #64]
 715:Drivers/STM32F4xx_HAL_Driver/Src/stm32f4xx_hal_adc.c ****     
 1254              		.loc 1 715 0
 1255 007e 626C     		ldr	r2, [r4, #68]
 1256 0080 42F00202 		orr	r2, r2, #2
 1257 0084 6264     		str	r2, [r4, #68]
 718:Drivers/STM32F4xx_HAL_Driver/Src/stm32f4xx_hal_adc.c ****   }
 1258              		.loc 1 718 0
 1259 0086 6FF02002 		mvn	r2, #32
 1260 008a 1A60     		str	r2, [r3]
 722:Drivers/STM32F4xx_HAL_Driver/Src/stm32f4xx_hal_adc.c **** }
 1261              		.loc 1 722 0
 1262 008c 0020     		movs	r0, #0
 1263              	.L115:
 723:Drivers/STM32F4xx_HAL_Driver/Src/stm32f4xx_hal_adc.c **** 
 1264              		.loc 1 723 0
 1265 008e F8BD     		pop	{r3, r4, r5, r6, r7, pc}
 1266              	.LVL71:
 1267              	.L121:
 704:Drivers/STM32F4xx_HAL_Driver/Src/stm32f4xx_hal_adc.c ****       
 1268              		.loc 1 704 0
 1269 0090 226C     		ldr	r2, [r4, #64]
 1270 0092 42F48032 		orr	r2, r2, #65536
 1271 0096 2264     		str	r2, [r4, #64]
 707:Drivers/STM32F4xx_HAL_Driver/Src/stm32f4xx_hal_adc.c ****   }
 1272              		.loc 1 707 0
 1273 0098 6FF00102 		mvn	r2, #1
 1274 009c 1A60     		str	r2, [r3]
 722:Drivers/STM32F4xx_HAL_Driver/Src/stm32f4xx_hal_adc.c **** }
 1275              		.loc 1 722 0
 1276 009e 0020     		movs	r0, #0
 1277 00a0 F5E7     		b	.L115
 1278              	.L123:
 1279 00a2 00BF     		.align	2
 1280              	.L122:
 1281 00a4 00200140 		.word	1073815552
 1282 00a8 00000000 		.word	.LC0
 1283              		.cfi_endproc
 1284              	.LFE133:
 1286              		.section	.text.HAL_ADC_Start_IT,"ax",%progbits
 1287              		.align	1
 1288              		.global	HAL_ADC_Start_IT
 1289              		.syntax unified
 1290              		.thumb
 1291              		.thumb_func
ARM GAS  C:\Users\n-is\AppData\Local\Temp\cc3jxhl4.s 			page 55


 1292              		.fpu fpv4-sp-d16
 1294              	HAL_ADC_Start_IT:
 1295              	.LFB134:
 733:Drivers/STM32F4xx_HAL_Driver/Src/stm32f4xx_hal_adc.c ****   __IO uint32_t counter = 0U;
 1296              		.loc 1 733 0
 1297              		.cfi_startproc
 1298              		@ args = 0, pretend = 0, frame = 8
 1299              		@ frame_needed = 0, uses_anonymous_args = 0
 1300              	.LVL72:
 1301 0000 10B5     		push	{r4, lr}
 1302              	.LCFI14:
 1303              		.cfi_def_cfa_offset 8
 1304              		.cfi_offset 4, -8
 1305              		.cfi_offset 14, -4
 1306 0002 82B0     		sub	sp, sp, #8
 1307              	.LCFI15:
 1308              		.cfi_def_cfa_offset 16
 1309 0004 0446     		mov	r4, r0
 734:Drivers/STM32F4xx_HAL_Driver/Src/stm32f4xx_hal_adc.c ****   ADC_Common_TypeDef *tmpADC_Common;
 1310              		.loc 1 734 0
 1311 0006 0023     		movs	r3, #0
 1312 0008 0193     		str	r3, [sp, #4]
 738:Drivers/STM32F4xx_HAL_Driver/Src/stm32f4xx_hal_adc.c ****   assert_param(IS_ADC_EXT_TRIG_EDGE(hadc->Init.ExternalTrigConvEdge)); 
 1313              		.loc 1 738 0
 1314 000a 8369     		ldr	r3, [r0, #24]
 1315 000c 012B     		cmp	r3, #1
 1316 000e 24D8     		bhi	.L141
 1317              	.LVL73:
 1318              	.L125:
 739:Drivers/STM32F4xx_HAL_Driver/Src/stm32f4xx_hal_adc.c ****   
 1319              		.loc 1 739 0
 1320 0010 E36A     		ldr	r3, [r4, #44]
 1321 0012 43B1     		cbz	r3, .L126
 739:Drivers/STM32F4xx_HAL_Driver/Src/stm32f4xx_hal_adc.c ****   
 1322              		.loc 1 739 0 is_stmt 0 discriminator 1
 1323 0014 B3F1805F 		cmp	r3, #268435456
 1324 0018 05D0     		beq	.L126
 739:Drivers/STM32F4xx_HAL_Driver/Src/stm32f4xx_hal_adc.c ****   
 1325              		.loc 1 739 0 discriminator 2
 1326 001a B3F1005F 		cmp	r3, #536870912
 1327 001e 02D0     		beq	.L126
 739:Drivers/STM32F4xx_HAL_Driver/Src/stm32f4xx_hal_adc.c ****   
 1328              		.loc 1 739 0 discriminator 3
 1329 0020 B3F1405F 		cmp	r3, #805306368
 1330 0024 1FD1     		bne	.L142
 1331              	.L126:
 742:Drivers/STM32F4xx_HAL_Driver/Src/stm32f4xx_hal_adc.c ****   
 1332              		.loc 1 742 0 is_stmt 1
 1333 0026 94F83C30 		ldrb	r3, [r4, #60]	@ zero_extendqisi2
 1334 002a 012B     		cmp	r3, #1
 1335 002c 76D0     		beq	.L135
 742:Drivers/STM32F4xx_HAL_Driver/Src/stm32f4xx_hal_adc.c ****   
 1336              		.loc 1 742 0 is_stmt 0 discriminator 2
 1337 002e 0123     		movs	r3, #1
 1338 0030 84F83C30 		strb	r3, [r4, #60]
 747:Drivers/STM32F4xx_HAL_Driver/Src/stm32f4xx_hal_adc.c ****   {  
 1339              		.loc 1 747 0 is_stmt 1 discriminator 2
ARM GAS  C:\Users\n-is\AppData\Local\Temp\cc3jxhl4.s 			page 56


 1340 0034 2368     		ldr	r3, [r4]
 1341 0036 9A68     		ldr	r2, [r3, #8]
 1342 0038 12F0010F 		tst	r2, #1
 1343 003c 1FD1     		bne	.L128
 750:Drivers/STM32F4xx_HAL_Driver/Src/stm32f4xx_hal_adc.c ****     
 1344              		.loc 1 750 0
 1345 003e 9A68     		ldr	r2, [r3, #8]
 1346 0040 42F00102 		orr	r2, r2, #1
 1347 0044 9A60     		str	r2, [r3, #8]
 754:Drivers/STM32F4xx_HAL_Driver/Src/stm32f4xx_hal_adc.c ****     while(counter != 0U)
 1348              		.loc 1 754 0
 1349 0046 3A4B     		ldr	r3, .L144
 1350 0048 1B68     		ldr	r3, [r3]
 1351 004a 3A4A     		ldr	r2, .L144+4
 1352 004c A2FB0323 		umull	r2, r3, r2, r3
 1353 0050 9B0C     		lsrs	r3, r3, #18
 1354 0052 03EB4303 		add	r3, r3, r3, lsl #1
 1355 0056 0193     		str	r3, [sp, #4]
 755:Drivers/STM32F4xx_HAL_Driver/Src/stm32f4xx_hal_adc.c ****     {
 1356              		.loc 1 755 0
 1357 0058 0EE0     		b	.L129
 1358              	.LVL74:
 1359              	.L141:
 738:Drivers/STM32F4xx_HAL_Driver/Src/stm32f4xx_hal_adc.c ****   assert_param(IS_ADC_EXT_TRIG_EDGE(hadc->Init.ExternalTrigConvEdge)); 
 1360              		.loc 1 738 0 discriminator 1
 1361 005a 40F2E221 		movw	r1, #738
 1362 005e 3648     		ldr	r0, .L144+8
 1363              	.LVL75:
 1364 0060 FFF7FEFF 		bl	assert_failed
 1365              	.LVL76:
 1366 0064 D4E7     		b	.L125
 1367              	.L142:
 739:Drivers/STM32F4xx_HAL_Driver/Src/stm32f4xx_hal_adc.c ****   
 1368              		.loc 1 739 0 discriminator 4
 1369 0066 40F2E321 		movw	r1, #739
 1370 006a 3348     		ldr	r0, .L144+8
 1371 006c FFF7FEFF 		bl	assert_failed
 1372              	.LVL77:
 1373 0070 D9E7     		b	.L126
 1374              	.L130:
 757:Drivers/STM32F4xx_HAL_Driver/Src/stm32f4xx_hal_adc.c ****     }
 1375              		.loc 1 757 0
 1376 0072 019B     		ldr	r3, [sp, #4]
 1377 0074 013B     		subs	r3, r3, #1
 1378 0076 0193     		str	r3, [sp, #4]
 1379              	.L129:
 755:Drivers/STM32F4xx_HAL_Driver/Src/stm32f4xx_hal_adc.c ****     {
 1380              		.loc 1 755 0
 1381 0078 019B     		ldr	r3, [sp, #4]
 1382 007a 002B     		cmp	r3, #0
 1383 007c F9D1     		bne	.L130
 1384              	.L128:
 762:Drivers/STM32F4xx_HAL_Driver/Src/stm32f4xx_hal_adc.c ****   {
 1385              		.loc 1 762 0
 1386 007e 2268     		ldr	r2, [r4]
 1387 0080 9368     		ldr	r3, [r2, #8]
 1388 0082 13F0010F 		tst	r3, #1
ARM GAS  C:\Users\n-is\AppData\Local\Temp\cc3jxhl4.s 			page 57


 1389 0086 4BD0     		beq	.L136
 767:Drivers/STM32F4xx_HAL_Driver/Src/stm32f4xx_hal_adc.c ****                       HAL_ADC_STATE_READY | HAL_ADC_STATE_REG_EOC | HAL_ADC_STATE_REG_OVR,
 1390              		.loc 1 767 0
 1391 0088 236C     		ldr	r3, [r4, #64]
 1392 008a 23F4E063 		bic	r3, r3, #1792
 1393 008e 23F00103 		bic	r3, r3, #1
 1394 0092 43F48073 		orr	r3, r3, #256
 1395 0096 2364     		str	r3, [r4, #64]
 773:Drivers/STM32F4xx_HAL_Driver/Src/stm32f4xx_hal_adc.c ****     {
 1396              		.loc 1 773 0
 1397 0098 5368     		ldr	r3, [r2, #4]
 1398 009a 13F4806F 		tst	r3, #1024
 1399 009e 05D0     		beq	.L131
 775:Drivers/STM32F4xx_HAL_Driver/Src/stm32f4xx_hal_adc.c ****     }
 1400              		.loc 1 775 0
 1401 00a0 236C     		ldr	r3, [r4, #64]
 1402 00a2 23F44053 		bic	r3, r3, #12288
 1403 00a6 43F48053 		orr	r3, r3, #4096
 1404 00aa 2364     		str	r3, [r4, #64]
 1405              	.L131:
 779:Drivers/STM32F4xx_HAL_Driver/Src/stm32f4xx_hal_adc.c ****     {
 1406              		.loc 1 779 0
 1407 00ac 236C     		ldr	r3, [r4, #64]
 1408 00ae 13F4805F 		tst	r3, #4096
 1409 00b2 20D0     		beq	.L132
 782:Drivers/STM32F4xx_HAL_Driver/Src/stm32f4xx_hal_adc.c ****     }
 1410              		.loc 1 782 0
 1411 00b4 636C     		ldr	r3, [r4, #68]
 1412 00b6 23F00603 		bic	r3, r3, #6
 1413 00ba 6364     		str	r3, [r4, #68]
 1414              	.L133:
 793:Drivers/STM32F4xx_HAL_Driver/Src/stm32f4xx_hal_adc.c **** 
 1415              		.loc 1 793 0
 1416 00bc 0023     		movs	r3, #0
 1417 00be 84F83C30 		strb	r3, [r4, #60]
 1418              	.LVL78:
 802:Drivers/STM32F4xx_HAL_Driver/Src/stm32f4xx_hal_adc.c ****     
 1419              		.loc 1 802 0
 1420 00c2 6FF02203 		mvn	r3, #34
 1421 00c6 1360     		str	r3, [r2]
 805:Drivers/STM32F4xx_HAL_Driver/Src/stm32f4xx_hal_adc.c ****     
 1422              		.loc 1 805 0
 1423 00c8 2268     		ldr	r2, [r4]
 1424 00ca 5368     		ldr	r3, [r2, #4]
 1425 00cc 43F08063 		orr	r3, r3, #67108864
 1426 00d0 43F02003 		orr	r3, r3, #32
 1427 00d4 5360     		str	r3, [r2, #4]
 808:Drivers/STM32F4xx_HAL_Driver/Src/stm32f4xx_hal_adc.c ****     {
 1428              		.loc 1 808 0
 1429 00d6 194B     		ldr	r3, .L144+12
 1430 00d8 5B68     		ldr	r3, [r3, #4]
 1431 00da 13F01F0F 		tst	r3, #31
 1432 00de 0DD1     		bne	.L134
 811:Drivers/STM32F4xx_HAL_Driver/Src/stm32f4xx_hal_adc.c ****       {
 1433              		.loc 1 811 0
 1434 00e0 2368     		ldr	r3, [r4]
 1435 00e2 9A68     		ldr	r2, [r3, #8]
ARM GAS  C:\Users\n-is\AppData\Local\Temp\cc3jxhl4.s 			page 58


 1436 00e4 12F0405F 		tst	r2, #805306368
 1437 00e8 1DD1     		bne	.L137
 814:Drivers/STM32F4xx_HAL_Driver/Src/stm32f4xx_hal_adc.c ****       }
 1438              		.loc 1 814 0
 1439 00ea 9A68     		ldr	r2, [r3, #8]
 1440 00ec 42F08042 		orr	r2, r2, #1073741824
 1441 00f0 9A60     		str	r2, [r3, #8]
 829:Drivers/STM32F4xx_HAL_Driver/Src/stm32f4xx_hal_adc.c **** }
 1442              		.loc 1 829 0
 1443 00f2 0020     		movs	r0, #0
 1444 00f4 15E0     		b	.L127
 1445              	.LVL79:
 1446              	.L132:
 787:Drivers/STM32F4xx_HAL_Driver/Src/stm32f4xx_hal_adc.c ****     }
 1447              		.loc 1 787 0
 1448 00f6 0023     		movs	r3, #0
 1449 00f8 6364     		str	r3, [r4, #68]
 1450 00fa DFE7     		b	.L133
 1451              	.LVL80:
 1452              	.L134:
 820:Drivers/STM32F4xx_HAL_Driver/Src/stm32f4xx_hal_adc.c ****       {
 1453              		.loc 1 820 0
 1454 00fc 2368     		ldr	r3, [r4]
 1455 00fe 104A     		ldr	r2, .L144+16
 1456 0100 9342     		cmp	r3, r2
 1457 0102 01D0     		beq	.L143
 829:Drivers/STM32F4xx_HAL_Driver/Src/stm32f4xx_hal_adc.c **** }
 1458              		.loc 1 829 0
 1459 0104 0020     		movs	r0, #0
 1460 0106 0CE0     		b	.L127
 1461              	.L143:
 820:Drivers/STM32F4xx_HAL_Driver/Src/stm32f4xx_hal_adc.c ****       {
 1462              		.loc 1 820 0 discriminator 1
 1463 0108 9A68     		ldr	r2, [r3, #8]
 1464 010a 12F0405F 		tst	r2, #805306368
 1465 010e 0CD1     		bne	.L139
 823:Drivers/STM32F4xx_HAL_Driver/Src/stm32f4xx_hal_adc.c ****       }
 1466              		.loc 1 823 0
 1467 0110 9A68     		ldr	r2, [r3, #8]
 1468 0112 42F08042 		orr	r2, r2, #1073741824
 1469 0116 9A60     		str	r2, [r3, #8]
 829:Drivers/STM32F4xx_HAL_Driver/Src/stm32f4xx_hal_adc.c **** }
 1470              		.loc 1 829 0
 1471 0118 0020     		movs	r0, #0
 1472 011a 02E0     		b	.L127
 1473              	.LVL81:
 1474              	.L135:
 742:Drivers/STM32F4xx_HAL_Driver/Src/stm32f4xx_hal_adc.c ****   
 1475              		.loc 1 742 0
 1476 011c 0220     		movs	r0, #2
 1477 011e 00E0     		b	.L127
 1478              	.L136:
 829:Drivers/STM32F4xx_HAL_Driver/Src/stm32f4xx_hal_adc.c **** }
 1479              		.loc 1 829 0
 1480 0120 0020     		movs	r0, #0
 1481              	.L127:
 830:Drivers/STM32F4xx_HAL_Driver/Src/stm32f4xx_hal_adc.c **** 
ARM GAS  C:\Users\n-is\AppData\Local\Temp\cc3jxhl4.s 			page 59


 1482              		.loc 1 830 0
 1483 0122 02B0     		add	sp, sp, #8
 1484              	.LCFI16:
 1485              		.cfi_remember_state
 1486              		.cfi_def_cfa_offset 8
 1487              		@ sp needed
 1488 0124 10BD     		pop	{r4, pc}
 1489              	.LVL82:
 1490              	.L137:
 1491              	.LCFI17:
 1492              		.cfi_restore_state
 829:Drivers/STM32F4xx_HAL_Driver/Src/stm32f4xx_hal_adc.c **** }
 1493              		.loc 1 829 0
 1494 0126 0020     		movs	r0, #0
 1495 0128 FBE7     		b	.L127
 1496              	.L139:
 1497 012a 0020     		movs	r0, #0
 1498 012c F9E7     		b	.L127
 1499              	.L145:
 1500 012e 00BF     		.align	2
 1501              	.L144:
 1502 0130 00000000 		.word	SystemCoreClock
 1503 0134 83DE1B43 		.word	1125899907
 1504 0138 00000000 		.word	.LC0
 1505 013c 00230140 		.word	1073816320
 1506 0140 00200140 		.word	1073815552
 1507              		.cfi_endproc
 1508              	.LFE134:
 1510              		.section	.text.HAL_ADC_Stop_IT,"ax",%progbits
 1511              		.align	1
 1512              		.global	HAL_ADC_Stop_IT
 1513              		.syntax unified
 1514              		.thumb
 1515              		.thumb_func
 1516              		.fpu fpv4-sp-d16
 1518              	HAL_ADC_Stop_IT:
 1519              	.LFB135:
 842:Drivers/STM32F4xx_HAL_Driver/Src/stm32f4xx_hal_adc.c ****   /* Check the parameters */
 1520              		.loc 1 842 0
 1521              		.cfi_startproc
 1522              		@ args = 0, pretend = 0, frame = 0
 1523              		@ frame_needed = 0, uses_anonymous_args = 0
 1524              	.LVL83:
 1525 0000 10B5     		push	{r4, lr}
 1526              	.LCFI18:
 1527              		.cfi_def_cfa_offset 8
 1528              		.cfi_offset 4, -8
 1529              		.cfi_offset 14, -4
 1530 0002 0446     		mov	r4, r0
 844:Drivers/STM32F4xx_HAL_Driver/Src/stm32f4xx_hal_adc.c ****   
 1531              		.loc 1 844 0
 1532 0004 0368     		ldr	r3, [r0]
 1533 0006 1A4A     		ldr	r2, .L152
 1534 0008 9342     		cmp	r3, r2
 1535 000a 0CD0     		beq	.L147
 844:Drivers/STM32F4xx_HAL_Driver/Src/stm32f4xx_hal_adc.c ****   
 1536              		.loc 1 844 0 is_stmt 0 discriminator 1
ARM GAS  C:\Users\n-is\AppData\Local\Temp\cc3jxhl4.s 			page 60


 1537 000c 02F58072 		add	r2, r2, #256
 1538 0010 9342     		cmp	r3, r2
 1539 0012 08D0     		beq	.L147
 844:Drivers/STM32F4xx_HAL_Driver/Src/stm32f4xx_hal_adc.c ****   
 1540              		.loc 1 844 0 discriminator 2
 1541 0014 02F58072 		add	r2, r2, #256
 1542 0018 9342     		cmp	r3, r2
 1543 001a 04D0     		beq	.L147
 844:Drivers/STM32F4xx_HAL_Driver/Src/stm32f4xx_hal_adc.c ****   
 1544              		.loc 1 844 0 discriminator 3
 1545 001c 4FF45371 		mov	r1, #844
 1546 0020 1448     		ldr	r0, .L152+4
 1547              	.LVL84:
 1548 0022 FFF7FEFF 		bl	assert_failed
 1549              	.LVL85:
 1550              	.L147:
 847:Drivers/STM32F4xx_HAL_Driver/Src/stm32f4xx_hal_adc.c ****   
 1551              		.loc 1 847 0 is_stmt 1
 1552 0026 94F83C30 		ldrb	r3, [r4, #60]	@ zero_extendqisi2
 1553 002a 012B     		cmp	r3, #1
 1554 002c 1ED0     		beq	.L150
 847:Drivers/STM32F4xx_HAL_Driver/Src/stm32f4xx_hal_adc.c ****   
 1555              		.loc 1 847 0 is_stmt 0 discriminator 2
 1556 002e 0123     		movs	r3, #1
 1557 0030 84F83C30 		strb	r3, [r4, #60]
 851:Drivers/STM32F4xx_HAL_Driver/Src/stm32f4xx_hal_adc.c ****   
 1558              		.loc 1 851 0 is_stmt 1 discriminator 2
 1559 0034 2268     		ldr	r2, [r4]
 1560 0036 9368     		ldr	r3, [r2, #8]
 1561 0038 23F00103 		bic	r3, r3, #1
 1562 003c 9360     		str	r3, [r2, #8]
 854:Drivers/STM32F4xx_HAL_Driver/Src/stm32f4xx_hal_adc.c ****   {
 1563              		.loc 1 854 0 discriminator 2
 1564 003e 2368     		ldr	r3, [r4]
 1565 0040 9A68     		ldr	r2, [r3, #8]
 1566 0042 12F0010F 		tst	r2, #1
 1567 0046 0DD1     		bne	.L149
 857:Drivers/STM32F4xx_HAL_Driver/Src/stm32f4xx_hal_adc.c **** 
 1568              		.loc 1 857 0
 1569 0048 5A68     		ldr	r2, [r3, #4]
 1570 004a 22F08062 		bic	r2, r2, #67108864
 1571 004e 22F02002 		bic	r2, r2, #32
 1572 0052 5A60     		str	r2, [r3, #4]
 860:Drivers/STM32F4xx_HAL_Driver/Src/stm32f4xx_hal_adc.c ****                       HAL_ADC_STATE_REG_BUSY | HAL_ADC_STATE_INJ_BUSY,
 1573              		.loc 1 860 0
 1574 0054 236C     		ldr	r3, [r4, #64]
 1575 0056 23F48853 		bic	r3, r3, #4352
 1576 005a 23F00103 		bic	r3, r3, #1
 1577 005e 43F00103 		orr	r3, r3, #1
 1578 0062 2364     		str	r3, [r4, #64]
 1579              	.L149:
 866:Drivers/STM32F4xx_HAL_Driver/Src/stm32f4xx_hal_adc.c ****   
 1580              		.loc 1 866 0
 1581 0064 0020     		movs	r0, #0
 1582 0066 84F83C00 		strb	r0, [r4, #60]
 1583              	.L148:
 870:Drivers/STM32F4xx_HAL_Driver/Src/stm32f4xx_hal_adc.c **** 
ARM GAS  C:\Users\n-is\AppData\Local\Temp\cc3jxhl4.s 			page 61


 1584              		.loc 1 870 0
 1585 006a 10BD     		pop	{r4, pc}
 1586              	.LVL86:
 1587              	.L150:
 847:Drivers/STM32F4xx_HAL_Driver/Src/stm32f4xx_hal_adc.c ****   
 1588              		.loc 1 847 0
 1589 006c 0220     		movs	r0, #2
 1590 006e FCE7     		b	.L148
 1591              	.L153:
 1592              		.align	2
 1593              	.L152:
 1594 0070 00200140 		.word	1073815552
 1595 0074 00000000 		.word	.LC0
 1596              		.cfi_endproc
 1597              	.LFE135:
 1599              		.section	.text.HAL_ADC_Start_DMA,"ax",%progbits
 1600              		.align	1
 1601              		.global	HAL_ADC_Start_DMA
 1602              		.syntax unified
 1603              		.thumb
 1604              		.thumb_func
 1605              		.fpu fpv4-sp-d16
 1607              	HAL_ADC_Start_DMA:
 1608              	.LFB137:
1024:Drivers/STM32F4xx_HAL_Driver/Src/stm32f4xx_hal_adc.c ****   __IO uint32_t counter = 0U;
 1609              		.loc 1 1024 0
 1610              		.cfi_startproc
 1611              		@ args = 0, pretend = 0, frame = 8
 1612              		@ frame_needed = 0, uses_anonymous_args = 0
 1613              	.LVL87:
 1614 0000 70B5     		push	{r4, r5, r6, lr}
 1615              	.LCFI19:
 1616              		.cfi_def_cfa_offset 16
 1617              		.cfi_offset 4, -16
 1618              		.cfi_offset 5, -12
 1619              		.cfi_offset 6, -8
 1620              		.cfi_offset 14, -4
 1621 0002 82B0     		sub	sp, sp, #8
 1622              	.LCFI20:
 1623              		.cfi_def_cfa_offset 24
 1624 0004 0446     		mov	r4, r0
 1625 0006 0D46     		mov	r5, r1
 1626 0008 1646     		mov	r6, r2
1025:Drivers/STM32F4xx_HAL_Driver/Src/stm32f4xx_hal_adc.c ****   ADC_Common_TypeDef *tmpADC_Common;
 1627              		.loc 1 1025 0
 1628 000a 0023     		movs	r3, #0
 1629 000c 0193     		str	r3, [sp, #4]
1029:Drivers/STM32F4xx_HAL_Driver/Src/stm32f4xx_hal_adc.c ****   assert_param(IS_ADC_EXT_TRIG_EDGE(hadc->Init.ExternalTrigConvEdge)); 
 1630              		.loc 1 1029 0
 1631 000e 8369     		ldr	r3, [r0, #24]
 1632 0010 012B     		cmp	r3, #1
 1633 0012 25D8     		bhi	.L171
 1634              	.LVL88:
 1635              	.L155:
1030:Drivers/STM32F4xx_HAL_Driver/Src/stm32f4xx_hal_adc.c ****   
 1636              		.loc 1 1030 0
 1637 0014 E36A     		ldr	r3, [r4, #44]
ARM GAS  C:\Users\n-is\AppData\Local\Temp\cc3jxhl4.s 			page 62


 1638 0016 43B1     		cbz	r3, .L156
1030:Drivers/STM32F4xx_HAL_Driver/Src/stm32f4xx_hal_adc.c ****   
 1639              		.loc 1 1030 0 is_stmt 0 discriminator 1
 1640 0018 B3F1805F 		cmp	r3, #268435456
 1641 001c 05D0     		beq	.L156
1030:Drivers/STM32F4xx_HAL_Driver/Src/stm32f4xx_hal_adc.c ****   
 1642              		.loc 1 1030 0 discriminator 2
 1643 001e B3F1005F 		cmp	r3, #536870912
 1644 0022 02D0     		beq	.L156
1030:Drivers/STM32F4xx_HAL_Driver/Src/stm32f4xx_hal_adc.c ****   
 1645              		.loc 1 1030 0 discriminator 3
 1646 0024 B3F1405F 		cmp	r3, #805306368
 1647 0028 20D1     		bne	.L172
 1648              	.L156:
1033:Drivers/STM32F4xx_HAL_Driver/Src/stm32f4xx_hal_adc.c ****   
 1649              		.loc 1 1033 0 is_stmt 1
 1650 002a 94F83C30 		ldrb	r3, [r4, #60]	@ zero_extendqisi2
 1651 002e 012B     		cmp	r3, #1
 1652 0030 00F08B80 		beq	.L165
1033:Drivers/STM32F4xx_HAL_Driver/Src/stm32f4xx_hal_adc.c ****   
 1653              		.loc 1 1033 0 is_stmt 0 discriminator 2
 1654 0034 0123     		movs	r3, #1
 1655 0036 84F83C30 		strb	r3, [r4, #60]
1038:Drivers/STM32F4xx_HAL_Driver/Src/stm32f4xx_hal_adc.c ****   {  
 1656              		.loc 1 1038 0 is_stmt 1 discriminator 2
 1657 003a 2368     		ldr	r3, [r4]
 1658 003c 9A68     		ldr	r2, [r3, #8]
 1659 003e 12F0010F 		tst	r2, #1
 1660 0042 1FD1     		bne	.L158
1041:Drivers/STM32F4xx_HAL_Driver/Src/stm32f4xx_hal_adc.c ****     
 1661              		.loc 1 1041 0
 1662 0044 9A68     		ldr	r2, [r3, #8]
 1663 0046 42F00102 		orr	r2, r2, #1
 1664 004a 9A60     		str	r2, [r3, #8]
1045:Drivers/STM32F4xx_HAL_Driver/Src/stm32f4xx_hal_adc.c ****     while(counter != 0U)
 1665              		.loc 1 1045 0
 1666 004c 434B     		ldr	r3, .L174
 1667 004e 1B68     		ldr	r3, [r3]
 1668 0050 434A     		ldr	r2, .L174+4
 1669 0052 A2FB0323 		umull	r2, r3, r2, r3
 1670 0056 9B0C     		lsrs	r3, r3, #18
 1671 0058 03EB4303 		add	r3, r3, r3, lsl #1
 1672 005c 0193     		str	r3, [sp, #4]
1046:Drivers/STM32F4xx_HAL_Driver/Src/stm32f4xx_hal_adc.c ****     {
 1673              		.loc 1 1046 0
 1674 005e 0EE0     		b	.L159
 1675              	.LVL89:
 1676              	.L171:
1029:Drivers/STM32F4xx_HAL_Driver/Src/stm32f4xx_hal_adc.c ****   assert_param(IS_ADC_EXT_TRIG_EDGE(hadc->Init.ExternalTrigConvEdge)); 
 1677              		.loc 1 1029 0 discriminator 1
 1678 0060 40F20541 		movw	r1, #1029
 1679              	.LVL90:
 1680 0064 3F48     		ldr	r0, .L174+8
 1681              	.LVL91:
 1682 0066 FFF7FEFF 		bl	assert_failed
 1683              	.LVL92:
 1684 006a D3E7     		b	.L155
ARM GAS  C:\Users\n-is\AppData\Local\Temp\cc3jxhl4.s 			page 63


 1685              	.L172:
1030:Drivers/STM32F4xx_HAL_Driver/Src/stm32f4xx_hal_adc.c ****   
 1686              		.loc 1 1030 0 discriminator 4
 1687 006c 40F20641 		movw	r1, #1030
 1688 0070 3C48     		ldr	r0, .L174+8
 1689 0072 FFF7FEFF 		bl	assert_failed
 1690              	.LVL93:
 1691 0076 D8E7     		b	.L156
 1692              	.L160:
1048:Drivers/STM32F4xx_HAL_Driver/Src/stm32f4xx_hal_adc.c ****     }
 1693              		.loc 1 1048 0
 1694 0078 019B     		ldr	r3, [sp, #4]
 1695 007a 013B     		subs	r3, r3, #1
 1696 007c 0193     		str	r3, [sp, #4]
 1697              	.L159:
1046:Drivers/STM32F4xx_HAL_Driver/Src/stm32f4xx_hal_adc.c ****     {
 1698              		.loc 1 1046 0
 1699 007e 019B     		ldr	r3, [sp, #4]
 1700 0080 002B     		cmp	r3, #0
 1701 0082 F9D1     		bne	.L160
 1702              	.L158:
1053:Drivers/STM32F4xx_HAL_Driver/Src/stm32f4xx_hal_adc.c ****   {
 1703              		.loc 1 1053 0
 1704 0084 2268     		ldr	r2, [r4]
 1705 0086 9368     		ldr	r3, [r2, #8]
 1706 0088 13F0010F 		tst	r3, #1
 1707 008c 5FD0     		beq	.L166
1058:Drivers/STM32F4xx_HAL_Driver/Src/stm32f4xx_hal_adc.c ****                       HAL_ADC_STATE_READY | HAL_ADC_STATE_REG_EOC | HAL_ADC_STATE_REG_OVR,
 1708              		.loc 1 1058 0
 1709 008e 236C     		ldr	r3, [r4, #64]
 1710 0090 23F4E063 		bic	r3, r3, #1792
 1711 0094 23F00103 		bic	r3, r3, #1
 1712 0098 43F48073 		orr	r3, r3, #256
 1713 009c 2364     		str	r3, [r4, #64]
1064:Drivers/STM32F4xx_HAL_Driver/Src/stm32f4xx_hal_adc.c ****     {
 1714              		.loc 1 1064 0
 1715 009e 5368     		ldr	r3, [r2, #4]
 1716 00a0 13F4806F 		tst	r3, #1024
 1717 00a4 05D0     		beq	.L161
1066:Drivers/STM32F4xx_HAL_Driver/Src/stm32f4xx_hal_adc.c ****     }
 1718              		.loc 1 1066 0
 1719 00a6 236C     		ldr	r3, [r4, #64]
 1720 00a8 23F44053 		bic	r3, r3, #12288
 1721 00ac 43F48053 		orr	r3, r3, #4096
 1722 00b0 2364     		str	r3, [r4, #64]
 1723              	.L161:
1070:Drivers/STM32F4xx_HAL_Driver/Src/stm32f4xx_hal_adc.c ****     {
 1724              		.loc 1 1070 0
 1725 00b2 236C     		ldr	r3, [r4, #64]
 1726 00b4 13F4805F 		tst	r3, #4096
 1727 00b8 34D0     		beq	.L162
1073:Drivers/STM32F4xx_HAL_Driver/Src/stm32f4xx_hal_adc.c ****     }
 1728              		.loc 1 1073 0
 1729 00ba 636C     		ldr	r3, [r4, #68]
 1730 00bc 23F00603 		bic	r3, r3, #6
 1731 00c0 6364     		str	r3, [r4, #68]
 1732              	.L163:
ARM GAS  C:\Users\n-is\AppData\Local\Temp\cc3jxhl4.s 			page 64


1084:Drivers/STM32F4xx_HAL_Driver/Src/stm32f4xx_hal_adc.c **** 
 1733              		.loc 1 1084 0
 1734 00c2 0023     		movs	r3, #0
 1735 00c4 84F83C30 		strb	r3, [r4, #60]
 1736              	.LVL94:
1092:Drivers/STM32F4xx_HAL_Driver/Src/stm32f4xx_hal_adc.c **** 
 1737              		.loc 1 1092 0
 1738 00c8 A36B     		ldr	r3, [r4, #56]
 1739 00ca 274A     		ldr	r2, .L174+12
 1740 00cc DA63     		str	r2, [r3, #60]
1095:Drivers/STM32F4xx_HAL_Driver/Src/stm32f4xx_hal_adc.c ****     
 1741              		.loc 1 1095 0
 1742 00ce A36B     		ldr	r3, [r4, #56]
 1743 00d0 264A     		ldr	r2, .L174+16
 1744 00d2 1A64     		str	r2, [r3, #64]
1098:Drivers/STM32F4xx_HAL_Driver/Src/stm32f4xx_hal_adc.c **** 
 1745              		.loc 1 1098 0
 1746 00d4 A36B     		ldr	r3, [r4, #56]
 1747 00d6 264A     		ldr	r2, .L174+20
 1748 00d8 DA64     		str	r2, [r3, #76]
1106:Drivers/STM32F4xx_HAL_Driver/Src/stm32f4xx_hal_adc.c **** 
 1749              		.loc 1 1106 0
 1750 00da 2368     		ldr	r3, [r4]
 1751 00dc 6FF02202 		mvn	r2, #34
 1752 00e0 1A60     		str	r2, [r3]
1109:Drivers/STM32F4xx_HAL_Driver/Src/stm32f4xx_hal_adc.c ****     
 1753              		.loc 1 1109 0
 1754 00e2 2268     		ldr	r2, [r4]
 1755 00e4 5368     		ldr	r3, [r2, #4]
 1756 00e6 43F08063 		orr	r3, r3, #67108864
 1757 00ea 5360     		str	r3, [r2, #4]
1112:Drivers/STM32F4xx_HAL_Driver/Src/stm32f4xx_hal_adc.c ****     
 1758              		.loc 1 1112 0
 1759 00ec 2268     		ldr	r2, [r4]
 1760 00ee 9368     		ldr	r3, [r2, #8]
 1761 00f0 43F48073 		orr	r3, r3, #256
 1762 00f4 9360     		str	r3, [r2, #8]
1115:Drivers/STM32F4xx_HAL_Driver/Src/stm32f4xx_hal_adc.c ****     
 1763              		.loc 1 1115 0
 1764 00f6 2168     		ldr	r1, [r4]
 1765 00f8 3346     		mov	r3, r6
 1766 00fa 2A46     		mov	r2, r5
 1767 00fc 4C31     		adds	r1, r1, #76
 1768 00fe A06B     		ldr	r0, [r4, #56]
 1769 0100 FFF7FEFF 		bl	HAL_DMA_Start_IT
 1770              	.LVL95:
1118:Drivers/STM32F4xx_HAL_Driver/Src/stm32f4xx_hal_adc.c ****     {
 1771              		.loc 1 1118 0
 1772 0104 1B4B     		ldr	r3, .L174+24
 1773 0106 5B68     		ldr	r3, [r3, #4]
 1774 0108 13F01F0F 		tst	r3, #31
 1775 010c 0DD1     		bne	.L164
1121:Drivers/STM32F4xx_HAL_Driver/Src/stm32f4xx_hal_adc.c ****       {
 1776              		.loc 1 1121 0
 1777 010e 2368     		ldr	r3, [r4]
 1778 0110 9A68     		ldr	r2, [r3, #8]
 1779 0112 12F0405F 		tst	r2, #805306368
ARM GAS  C:\Users\n-is\AppData\Local\Temp\cc3jxhl4.s 			page 65


 1780 0116 1DD1     		bne	.L167
1124:Drivers/STM32F4xx_HAL_Driver/Src/stm32f4xx_hal_adc.c ****       }
 1781              		.loc 1 1124 0
 1782 0118 9A68     		ldr	r2, [r3, #8]
 1783 011a 42F08042 		orr	r2, r2, #1073741824
 1784 011e 9A60     		str	r2, [r3, #8]
1139:Drivers/STM32F4xx_HAL_Driver/Src/stm32f4xx_hal_adc.c **** }
 1785              		.loc 1 1139 0
 1786 0120 0020     		movs	r0, #0
 1787 0122 15E0     		b	.L157
 1788              	.LVL96:
 1789              	.L162:
1078:Drivers/STM32F4xx_HAL_Driver/Src/stm32f4xx_hal_adc.c ****     }
 1790              		.loc 1 1078 0
 1791 0124 0023     		movs	r3, #0
 1792 0126 6364     		str	r3, [r4, #68]
 1793 0128 CBE7     		b	.L163
 1794              	.LVL97:
 1795              	.L164:
1130:Drivers/STM32F4xx_HAL_Driver/Src/stm32f4xx_hal_adc.c ****       {
 1796              		.loc 1 1130 0
 1797 012a 2368     		ldr	r3, [r4]
 1798 012c 124A     		ldr	r2, .L174+28
 1799 012e 9342     		cmp	r3, r2
 1800 0130 01D0     		beq	.L173
1139:Drivers/STM32F4xx_HAL_Driver/Src/stm32f4xx_hal_adc.c **** }
 1801              		.loc 1 1139 0
 1802 0132 0020     		movs	r0, #0
 1803 0134 0CE0     		b	.L157
 1804              	.L173:
1130:Drivers/STM32F4xx_HAL_Driver/Src/stm32f4xx_hal_adc.c ****       {
 1805              		.loc 1 1130 0 discriminator 1
 1806 0136 9A68     		ldr	r2, [r3, #8]
 1807 0138 12F0405F 		tst	r2, #805306368
 1808 013c 0CD1     		bne	.L169
1133:Drivers/STM32F4xx_HAL_Driver/Src/stm32f4xx_hal_adc.c ****       }
 1809              		.loc 1 1133 0
 1810 013e 9A68     		ldr	r2, [r3, #8]
 1811 0140 42F08042 		orr	r2, r2, #1073741824
 1812 0144 9A60     		str	r2, [r3, #8]
1139:Drivers/STM32F4xx_HAL_Driver/Src/stm32f4xx_hal_adc.c **** }
 1813              		.loc 1 1139 0
 1814 0146 0020     		movs	r0, #0
 1815 0148 02E0     		b	.L157
 1816              	.LVL98:
 1817              	.L165:
1033:Drivers/STM32F4xx_HAL_Driver/Src/stm32f4xx_hal_adc.c ****   
 1818              		.loc 1 1033 0
 1819 014a 0220     		movs	r0, #2
 1820 014c 00E0     		b	.L157
 1821              	.L166:
1139:Drivers/STM32F4xx_HAL_Driver/Src/stm32f4xx_hal_adc.c **** }
 1822              		.loc 1 1139 0
 1823 014e 0020     		movs	r0, #0
 1824              	.L157:
1140:Drivers/STM32F4xx_HAL_Driver/Src/stm32f4xx_hal_adc.c **** 
 1825              		.loc 1 1140 0
ARM GAS  C:\Users\n-is\AppData\Local\Temp\cc3jxhl4.s 			page 66


 1826 0150 02B0     		add	sp, sp, #8
 1827              	.LCFI21:
 1828              		.cfi_remember_state
 1829              		.cfi_def_cfa_offset 16
 1830              		@ sp needed
 1831 0152 70BD     		pop	{r4, r5, r6, pc}
 1832              	.LVL99:
 1833              	.L167:
 1834              	.LCFI22:
 1835              		.cfi_restore_state
1139:Drivers/STM32F4xx_HAL_Driver/Src/stm32f4xx_hal_adc.c **** }
 1836              		.loc 1 1139 0
 1837 0154 0020     		movs	r0, #0
 1838 0156 FBE7     		b	.L157
 1839              	.L169:
 1840 0158 0020     		movs	r0, #0
 1841 015a F9E7     		b	.L157
 1842              	.L175:
 1843              		.align	2
 1844              	.L174:
 1845 015c 00000000 		.word	SystemCoreClock
 1846 0160 83DE1B43 		.word	1125899907
 1847 0164 00000000 		.word	.LC0
 1848 0168 00000000 		.word	ADC_DMAConvCplt
 1849 016c 00000000 		.word	ADC_DMAHalfConvCplt
 1850 0170 00000000 		.word	ADC_DMAError
 1851 0174 00230140 		.word	1073816320
 1852 0178 00200140 		.word	1073815552
 1853              		.cfi_endproc
 1854              	.LFE137:
 1856              		.section	.text.HAL_ADC_Stop_DMA,"ax",%progbits
 1857              		.align	1
 1858              		.global	HAL_ADC_Stop_DMA
 1859              		.syntax unified
 1860              		.thumb
 1861              		.thumb_func
 1862              		.fpu fpv4-sp-d16
 1864              	HAL_ADC_Stop_DMA:
 1865              	.LFB138:
1149:Drivers/STM32F4xx_HAL_Driver/Src/stm32f4xx_hal_adc.c ****   HAL_StatusTypeDef tmp_hal_status = HAL_OK;
 1866              		.loc 1 1149 0
 1867              		.cfi_startproc
 1868              		@ args = 0, pretend = 0, frame = 0
 1869              		@ frame_needed = 0, uses_anonymous_args = 0
 1870              	.LVL100:
 1871 0000 10B5     		push	{r4, lr}
 1872              	.LCFI23:
 1873              		.cfi_def_cfa_offset 8
 1874              		.cfi_offset 4, -8
 1875              		.cfi_offset 14, -4
 1876 0002 0446     		mov	r4, r0
 1877              	.LVL101:
1153:Drivers/STM32F4xx_HAL_Driver/Src/stm32f4xx_hal_adc.c ****   
 1878              		.loc 1 1153 0
 1879 0004 0368     		ldr	r3, [r0]
 1880 0006 1E4A     		ldr	r2, .L184
 1881 0008 9342     		cmp	r3, r2
ARM GAS  C:\Users\n-is\AppData\Local\Temp\cc3jxhl4.s 			page 67


 1882 000a 0CD0     		beq	.L177
1153:Drivers/STM32F4xx_HAL_Driver/Src/stm32f4xx_hal_adc.c ****   
 1883              		.loc 1 1153 0 is_stmt 0 discriminator 1
 1884 000c 02F58072 		add	r2, r2, #256
 1885 0010 9342     		cmp	r3, r2
 1886 0012 08D0     		beq	.L177
1153:Drivers/STM32F4xx_HAL_Driver/Src/stm32f4xx_hal_adc.c ****   
 1887              		.loc 1 1153 0 discriminator 2
 1888 0014 02F58072 		add	r2, r2, #256
 1889 0018 9342     		cmp	r3, r2
 1890 001a 04D0     		beq	.L177
1153:Drivers/STM32F4xx_HAL_Driver/Src/stm32f4xx_hal_adc.c ****   
 1891              		.loc 1 1153 0 discriminator 3
 1892 001c 40F28141 		movw	r1, #1153
 1893 0020 1848     		ldr	r0, .L184+4
 1894              	.LVL102:
 1895 0022 FFF7FEFF 		bl	assert_failed
 1896              	.LVL103:
 1897              	.L177:
1156:Drivers/STM32F4xx_HAL_Driver/Src/stm32f4xx_hal_adc.c ****   
 1898              		.loc 1 1156 0 is_stmt 1
 1899 0026 94F83C30 		ldrb	r3, [r4, #60]	@ zero_extendqisi2
 1900 002a 012B     		cmp	r3, #1
 1901 002c 26D0     		beq	.L180
1156:Drivers/STM32F4xx_HAL_Driver/Src/stm32f4xx_hal_adc.c ****   
 1902              		.loc 1 1156 0 is_stmt 0 discriminator 2
 1903 002e 0123     		movs	r3, #1
 1904 0030 84F83C30 		strb	r3, [r4, #60]
1160:Drivers/STM32F4xx_HAL_Driver/Src/stm32f4xx_hal_adc.c ****   
 1905              		.loc 1 1160 0 is_stmt 1 discriminator 2
 1906 0034 2268     		ldr	r2, [r4]
 1907 0036 9368     		ldr	r3, [r2, #8]
 1908 0038 23F00103 		bic	r3, r3, #1
 1909 003c 9360     		str	r3, [r2, #8]
1163:Drivers/STM32F4xx_HAL_Driver/Src/stm32f4xx_hal_adc.c ****   {
 1910              		.loc 1 1163 0 discriminator 2
 1911 003e 2368     		ldr	r3, [r4]
 1912 0040 9A68     		ldr	r2, [r3, #8]
 1913 0042 12F0010F 		tst	r2, #1
 1914 0046 04D0     		beq	.L183
1150:Drivers/STM32F4xx_HAL_Driver/Src/stm32f4xx_hal_adc.c ****   
 1915              		.loc 1 1150 0
 1916 0048 0020     		movs	r0, #0
 1917              	.LVL104:
 1918              	.L179:
1182:Drivers/STM32F4xx_HAL_Driver/Src/stm32f4xx_hal_adc.c ****   
 1919              		.loc 1 1182 0
 1920 004a 0023     		movs	r3, #0
 1921 004c 84F83C30 		strb	r3, [r4, #60]
 1922              	.LVL105:
 1923              	.L178:
1186:Drivers/STM32F4xx_HAL_Driver/Src/stm32f4xx_hal_adc.c **** 
 1924              		.loc 1 1186 0
 1925 0050 10BD     		pop	{r4, pc}
 1926              	.LVL106:
 1927              	.L183:
1166:Drivers/STM32F4xx_HAL_Driver/Src/stm32f4xx_hal_adc.c ****     
ARM GAS  C:\Users\n-is\AppData\Local\Temp\cc3jxhl4.s 			page 68


 1928              		.loc 1 1166 0
 1929 0052 9A68     		ldr	r2, [r3, #8]
 1930 0054 22F48072 		bic	r2, r2, #256
 1931 0058 9A60     		str	r2, [r3, #8]
1170:Drivers/STM32F4xx_HAL_Driver/Src/stm32f4xx_hal_adc.c ****     
 1932              		.loc 1 1170 0
 1933 005a A06B     		ldr	r0, [r4, #56]
 1934 005c FFF7FEFF 		bl	HAL_DMA_Abort
 1935              	.LVL107:
1173:Drivers/STM32F4xx_HAL_Driver/Src/stm32f4xx_hal_adc.c ****     
 1936              		.loc 1 1173 0
 1937 0060 2268     		ldr	r2, [r4]
 1938 0062 5368     		ldr	r3, [r2, #4]
 1939 0064 23F08063 		bic	r3, r3, #67108864
 1940 0068 5360     		str	r3, [r2, #4]
1176:Drivers/STM32F4xx_HAL_Driver/Src/stm32f4xx_hal_adc.c ****                       HAL_ADC_STATE_REG_BUSY | HAL_ADC_STATE_INJ_BUSY,
 1941              		.loc 1 1176 0
 1942 006a 236C     		ldr	r3, [r4, #64]
 1943 006c 23F48853 		bic	r3, r3, #4352
 1944 0070 23F00103 		bic	r3, r3, #1
 1945 0074 43F00103 		orr	r3, r3, #1
 1946 0078 2364     		str	r3, [r4, #64]
 1947 007a E6E7     		b	.L179
 1948              	.LVL108:
 1949              	.L180:
1156:Drivers/STM32F4xx_HAL_Driver/Src/stm32f4xx_hal_adc.c ****   
 1950              		.loc 1 1156 0
 1951 007c 0220     		movs	r0, #2
 1952 007e E7E7     		b	.L178
 1953              	.L185:
 1954              		.align	2
 1955              	.L184:
 1956 0080 00200140 		.word	1073815552
 1957 0084 00000000 		.word	.LC0
 1958              		.cfi_endproc
 1959              	.LFE138:
 1961              		.section	.text.HAL_ADC_GetValue,"ax",%progbits
 1962              		.align	1
 1963              		.global	HAL_ADC_GetValue
 1964              		.syntax unified
 1965              		.thumb
 1966              		.thumb_func
 1967              		.fpu fpv4-sp-d16
 1969              	HAL_ADC_GetValue:
 1970              	.LFB139:
1195:Drivers/STM32F4xx_HAL_Driver/Src/stm32f4xx_hal_adc.c ****   /* Return the selected ADC converted value */ 
 1971              		.loc 1 1195 0
 1972              		.cfi_startproc
 1973              		@ args = 0, pretend = 0, frame = 0
 1974              		@ frame_needed = 0, uses_anonymous_args = 0
 1975              		@ link register save eliminated.
 1976              	.LVL109:
1197:Drivers/STM32F4xx_HAL_Driver/Src/stm32f4xx_hal_adc.c **** }
 1977              		.loc 1 1197 0
 1978 0000 0368     		ldr	r3, [r0]
 1979 0002 D86C     		ldr	r0, [r3, #76]
 1980              	.LVL110:
ARM GAS  C:\Users\n-is\AppData\Local\Temp\cc3jxhl4.s 			page 69


1198:Drivers/STM32F4xx_HAL_Driver/Src/stm32f4xx_hal_adc.c **** 
 1981              		.loc 1 1198 0
 1982 0004 7047     		bx	lr
 1983              		.cfi_endproc
 1984              	.LFE139:
 1986              		.section	.text.HAL_ADC_ConvCpltCallback,"ax",%progbits
 1987              		.align	1
 1988              		.weak	HAL_ADC_ConvCpltCallback
 1989              		.syntax unified
 1990              		.thumb
 1991              		.thumb_func
 1992              		.fpu fpv4-sp-d16
 1994              	HAL_ADC_ConvCpltCallback:
 1995              	.LFB140:
1207:Drivers/STM32F4xx_HAL_Driver/Src/stm32f4xx_hal_adc.c ****   /* Prevent unused argument(s) compilation warning */
 1996              		.loc 1 1207 0
 1997              		.cfi_startproc
 1998              		@ args = 0, pretend = 0, frame = 0
 1999              		@ frame_needed = 0, uses_anonymous_args = 0
 2000              		@ link register save eliminated.
 2001              	.LVL111:
1213:Drivers/STM32F4xx_HAL_Driver/Src/stm32f4xx_hal_adc.c **** 
 2002              		.loc 1 1213 0
 2003 0000 7047     		bx	lr
 2004              		.cfi_endproc
 2005              	.LFE140:
 2007              		.section	.text.ADC_DMAConvCplt,"ax",%progbits
 2008              		.align	1
 2009              		.syntax unified
 2010              		.thumb
 2011              		.thumb_func
 2012              		.fpu fpv4-sp-d16
 2014              	ADC_DMAConvCplt:
 2015              	.LFB149:
1602:Drivers/STM32F4xx_HAL_Driver/Src/stm32f4xx_hal_adc.c **** 
1603:Drivers/STM32F4xx_HAL_Driver/Src/stm32f4xx_hal_adc.c **** /**
1604:Drivers/STM32F4xx_HAL_Driver/Src/stm32f4xx_hal_adc.c ****   * @brief  DMA transfer complete callback. 
1605:Drivers/STM32F4xx_HAL_Driver/Src/stm32f4xx_hal_adc.c ****   * @param  hdma pointer to a DMA_HandleTypeDef structure that contains
1606:Drivers/STM32F4xx_HAL_Driver/Src/stm32f4xx_hal_adc.c ****   *                the configuration information for the specified DMA module.
1607:Drivers/STM32F4xx_HAL_Driver/Src/stm32f4xx_hal_adc.c ****   * @retval None
1608:Drivers/STM32F4xx_HAL_Driver/Src/stm32f4xx_hal_adc.c ****   */
1609:Drivers/STM32F4xx_HAL_Driver/Src/stm32f4xx_hal_adc.c **** static void ADC_DMAConvCplt(DMA_HandleTypeDef *hdma)   
1610:Drivers/STM32F4xx_HAL_Driver/Src/stm32f4xx_hal_adc.c **** {
 2016              		.loc 1 1610 0
 2017              		.cfi_startproc
 2018              		@ args = 0, pretend = 0, frame = 0
 2019              		@ frame_needed = 0, uses_anonymous_args = 0
 2020              	.LVL112:
 2021 0000 08B5     		push	{r3, lr}
 2022              	.LCFI24:
 2023              		.cfi_def_cfa_offset 8
 2024              		.cfi_offset 3, -8
 2025              		.cfi_offset 14, -4
1611:Drivers/STM32F4xx_HAL_Driver/Src/stm32f4xx_hal_adc.c ****   /* Retrieve ADC handle corresponding to current DMA handle */
1612:Drivers/STM32F4xx_HAL_Driver/Src/stm32f4xx_hal_adc.c ****   ADC_HandleTypeDef* hadc = ( ADC_HandleTypeDef* )((DMA_HandleTypeDef* )hdma)->Parent;
 2026              		.loc 1 1612 0
 2027 0002 836B     		ldr	r3, [r0, #56]
ARM GAS  C:\Users\n-is\AppData\Local\Temp\cc3jxhl4.s 			page 70


 2028              	.LVL113:
1613:Drivers/STM32F4xx_HAL_Driver/Src/stm32f4xx_hal_adc.c ****   
1614:Drivers/STM32F4xx_HAL_Driver/Src/stm32f4xx_hal_adc.c ****   /* Update state machine on conversion status if not in error state */
1615:Drivers/STM32F4xx_HAL_Driver/Src/stm32f4xx_hal_adc.c ****   if (HAL_IS_BIT_CLR(hadc->State, HAL_ADC_STATE_ERROR_INTERNAL | HAL_ADC_STATE_ERROR_DMA))
 2029              		.loc 1 1615 0
 2030 0004 1A6C     		ldr	r2, [r3, #64]
 2031 0006 12F0500F 		tst	r2, #80
 2032 000a 03D0     		beq	.L194
1616:Drivers/STM32F4xx_HAL_Driver/Src/stm32f4xx_hal_adc.c ****   {
1617:Drivers/STM32F4xx_HAL_Driver/Src/stm32f4xx_hal_adc.c ****     /* Update ADC state machine */
1618:Drivers/STM32F4xx_HAL_Driver/Src/stm32f4xx_hal_adc.c ****     SET_BIT(hadc->State, HAL_ADC_STATE_REG_EOC);
1619:Drivers/STM32F4xx_HAL_Driver/Src/stm32f4xx_hal_adc.c ****     
1620:Drivers/STM32F4xx_HAL_Driver/Src/stm32f4xx_hal_adc.c ****     /* Determine whether any further conversion upcoming on group regular   */
1621:Drivers/STM32F4xx_HAL_Driver/Src/stm32f4xx_hal_adc.c ****     /* by external trigger, continuous mode or scan sequence on going.      */
1622:Drivers/STM32F4xx_HAL_Driver/Src/stm32f4xx_hal_adc.c ****     /* Note: On STM32F4, there is no independent flag of end of sequence.   */
1623:Drivers/STM32F4xx_HAL_Driver/Src/stm32f4xx_hal_adc.c ****     /*       The test of scan sequence on going is done either with scan    */
1624:Drivers/STM32F4xx_HAL_Driver/Src/stm32f4xx_hal_adc.c ****     /*       sequence disabled or with end of conversion flag set to        */
1625:Drivers/STM32F4xx_HAL_Driver/Src/stm32f4xx_hal_adc.c ****     /*       of end of sequence.                                            */
1626:Drivers/STM32F4xx_HAL_Driver/Src/stm32f4xx_hal_adc.c ****     if(ADC_IS_SOFTWARE_START_REGULAR(hadc)                   &&
1627:Drivers/STM32F4xx_HAL_Driver/Src/stm32f4xx_hal_adc.c ****        (hadc->Init.ContinuousConvMode == DISABLE)            &&
1628:Drivers/STM32F4xx_HAL_Driver/Src/stm32f4xx_hal_adc.c ****        (HAL_IS_BIT_CLR(hadc->Instance->SQR1, ADC_SQR1_L) || 
1629:Drivers/STM32F4xx_HAL_Driver/Src/stm32f4xx_hal_adc.c ****         HAL_IS_BIT_CLR(hadc->Instance->CR2, ADC_CR2_EOCS)  )   )
1630:Drivers/STM32F4xx_HAL_Driver/Src/stm32f4xx_hal_adc.c ****     {
1631:Drivers/STM32F4xx_HAL_Driver/Src/stm32f4xx_hal_adc.c ****       /* Disable ADC end of single conversion interrupt on group regular */
1632:Drivers/STM32F4xx_HAL_Driver/Src/stm32f4xx_hal_adc.c ****       /* Note: Overrun interrupt was enabled with EOC interrupt in          */
1633:Drivers/STM32F4xx_HAL_Driver/Src/stm32f4xx_hal_adc.c ****       /* HAL_ADC_Start_IT(), but is not disabled here because can be used   */
1634:Drivers/STM32F4xx_HAL_Driver/Src/stm32f4xx_hal_adc.c ****       /* by overrun IRQ process below.                                      */
1635:Drivers/STM32F4xx_HAL_Driver/Src/stm32f4xx_hal_adc.c ****       __HAL_ADC_DISABLE_IT(hadc, ADC_IT_EOC);
1636:Drivers/STM32F4xx_HAL_Driver/Src/stm32f4xx_hal_adc.c ****       
1637:Drivers/STM32F4xx_HAL_Driver/Src/stm32f4xx_hal_adc.c ****       /* Set ADC state */
1638:Drivers/STM32F4xx_HAL_Driver/Src/stm32f4xx_hal_adc.c ****       CLEAR_BIT(hadc->State, HAL_ADC_STATE_REG_BUSY);   
1639:Drivers/STM32F4xx_HAL_Driver/Src/stm32f4xx_hal_adc.c ****       
1640:Drivers/STM32F4xx_HAL_Driver/Src/stm32f4xx_hal_adc.c ****       if (HAL_IS_BIT_CLR(hadc->State, HAL_ADC_STATE_INJ_BUSY))
1641:Drivers/STM32F4xx_HAL_Driver/Src/stm32f4xx_hal_adc.c ****       {
1642:Drivers/STM32F4xx_HAL_Driver/Src/stm32f4xx_hal_adc.c ****         SET_BIT(hadc->State, HAL_ADC_STATE_READY);
1643:Drivers/STM32F4xx_HAL_Driver/Src/stm32f4xx_hal_adc.c ****       }
1644:Drivers/STM32F4xx_HAL_Driver/Src/stm32f4xx_hal_adc.c ****     }
1645:Drivers/STM32F4xx_HAL_Driver/Src/stm32f4xx_hal_adc.c ****     
1646:Drivers/STM32F4xx_HAL_Driver/Src/stm32f4xx_hal_adc.c ****     /* Conversion complete callback */
1647:Drivers/STM32F4xx_HAL_Driver/Src/stm32f4xx_hal_adc.c ****     HAL_ADC_ConvCpltCallback(hadc);
1648:Drivers/STM32F4xx_HAL_Driver/Src/stm32f4xx_hal_adc.c ****   }
1649:Drivers/STM32F4xx_HAL_Driver/Src/stm32f4xx_hal_adc.c ****   else
1650:Drivers/STM32F4xx_HAL_Driver/Src/stm32f4xx_hal_adc.c ****   {
1651:Drivers/STM32F4xx_HAL_Driver/Src/stm32f4xx_hal_adc.c ****     /* Call DMA error callback */
1652:Drivers/STM32F4xx_HAL_Driver/Src/stm32f4xx_hal_adc.c ****     hadc->DMA_Handle->XferErrorCallback(hdma);
 2033              		.loc 1 1652 0
 2034 000c 9B6B     		ldr	r3, [r3, #56]
 2035              	.LVL114:
 2036 000e DB6C     		ldr	r3, [r3, #76]
 2037 0010 9847     		blx	r3
 2038              	.LVL115:
 2039              	.L188:
1653:Drivers/STM32F4xx_HAL_Driver/Src/stm32f4xx_hal_adc.c ****   }
1654:Drivers/STM32F4xx_HAL_Driver/Src/stm32f4xx_hal_adc.c **** }
 2040              		.loc 1 1654 0
 2041 0012 08BD     		pop	{r3, pc}
 2042              	.LVL116:
ARM GAS  C:\Users\n-is\AppData\Local\Temp\cc3jxhl4.s 			page 71


 2043              	.L194:
1618:Drivers/STM32F4xx_HAL_Driver/Src/stm32f4xx_hal_adc.c ****     
 2044              		.loc 1 1618 0
 2045 0014 1A6C     		ldr	r2, [r3, #64]
 2046 0016 42F40072 		orr	r2, r2, #512
 2047 001a 1A64     		str	r2, [r3, #64]
1626:Drivers/STM32F4xx_HAL_Driver/Src/stm32f4xx_hal_adc.c ****        (hadc->Init.ContinuousConvMode == DISABLE)            &&
 2048              		.loc 1 1626 0
 2049 001c 1A68     		ldr	r2, [r3]
 2050 001e 9168     		ldr	r1, [r2, #8]
 2051 0020 11F0405F 		tst	r1, #805306368
 2052 0024 19D1     		bne	.L190
1627:Drivers/STM32F4xx_HAL_Driver/Src/stm32f4xx_hal_adc.c ****        (HAL_IS_BIT_CLR(hadc->Instance->SQR1, ADC_SQR1_L) || 
 2053              		.loc 1 1627 0 discriminator 1
 2054 0026 9969     		ldr	r1, [r3, #24]
1626:Drivers/STM32F4xx_HAL_Driver/Src/stm32f4xx_hal_adc.c ****        (hadc->Init.ContinuousConvMode == DISABLE)            &&
 2055              		.loc 1 1626 0 discriminator 1
 2056 0028 B9B9     		cbnz	r1, .L190
1628:Drivers/STM32F4xx_HAL_Driver/Src/stm32f4xx_hal_adc.c ****         HAL_IS_BIT_CLR(hadc->Instance->CR2, ADC_CR2_EOCS)  )   )
 2057              		.loc 1 1628 0
 2058 002a D16A     		ldr	r1, [r2, #44]
1627:Drivers/STM32F4xx_HAL_Driver/Src/stm32f4xx_hal_adc.c ****        (HAL_IS_BIT_CLR(hadc->Instance->SQR1, ADC_SQR1_L) || 
 2059              		.loc 1 1627 0
 2060 002c 11F4700F 		tst	r1, #15728640
 2061 0030 03D0     		beq	.L191
1629:Drivers/STM32F4xx_HAL_Driver/Src/stm32f4xx_hal_adc.c ****     {
 2062              		.loc 1 1629 0
 2063 0032 9168     		ldr	r1, [r2, #8]
1628:Drivers/STM32F4xx_HAL_Driver/Src/stm32f4xx_hal_adc.c ****         HAL_IS_BIT_CLR(hadc->Instance->CR2, ADC_CR2_EOCS)  )   )
 2064              		.loc 1 1628 0
 2065 0034 11F4806F 		tst	r1, #1024
 2066 0038 0FD1     		bne	.L190
 2067              	.L191:
1635:Drivers/STM32F4xx_HAL_Driver/Src/stm32f4xx_hal_adc.c ****       
 2068              		.loc 1 1635 0
 2069 003a 5168     		ldr	r1, [r2, #4]
 2070 003c 21F02001 		bic	r1, r1, #32
 2071 0040 5160     		str	r1, [r2, #4]
1638:Drivers/STM32F4xx_HAL_Driver/Src/stm32f4xx_hal_adc.c ****       
 2072              		.loc 1 1638 0
 2073 0042 1A6C     		ldr	r2, [r3, #64]
 2074 0044 22F48072 		bic	r2, r2, #256
 2075 0048 1A64     		str	r2, [r3, #64]
1640:Drivers/STM32F4xx_HAL_Driver/Src/stm32f4xx_hal_adc.c ****       {
 2076              		.loc 1 1640 0
 2077 004a 1A6C     		ldr	r2, [r3, #64]
 2078 004c 12F4805F 		tst	r2, #4096
 2079 0050 03D1     		bne	.L190
1642:Drivers/STM32F4xx_HAL_Driver/Src/stm32f4xx_hal_adc.c ****       }
 2080              		.loc 1 1642 0
 2081 0052 1A6C     		ldr	r2, [r3, #64]
 2082 0054 42F00102 		orr	r2, r2, #1
 2083 0058 1A64     		str	r2, [r3, #64]
 2084              	.L190:
1647:Drivers/STM32F4xx_HAL_Driver/Src/stm32f4xx_hal_adc.c ****   }
 2085              		.loc 1 1647 0
 2086 005a 1846     		mov	r0, r3
ARM GAS  C:\Users\n-is\AppData\Local\Temp\cc3jxhl4.s 			page 72


 2087              	.LVL117:
 2088 005c FFF7FEFF 		bl	HAL_ADC_ConvCpltCallback
 2089              	.LVL118:
 2090 0060 D7E7     		b	.L188
 2091              		.cfi_endproc
 2092              	.LFE149:
 2094              		.section	.text.HAL_ADC_ConvHalfCpltCallback,"ax",%progbits
 2095              		.align	1
 2096              		.weak	HAL_ADC_ConvHalfCpltCallback
 2097              		.syntax unified
 2098              		.thumb
 2099              		.thumb_func
 2100              		.fpu fpv4-sp-d16
 2102              	HAL_ADC_ConvHalfCpltCallback:
 2103              	.LFB141:
1222:Drivers/STM32F4xx_HAL_Driver/Src/stm32f4xx_hal_adc.c ****   /* Prevent unused argument(s) compilation warning */
 2104              		.loc 1 1222 0
 2105              		.cfi_startproc
 2106              		@ args = 0, pretend = 0, frame = 0
 2107              		@ frame_needed = 0, uses_anonymous_args = 0
 2108              		@ link register save eliminated.
 2109              	.LVL119:
1228:Drivers/STM32F4xx_HAL_Driver/Src/stm32f4xx_hal_adc.c **** 
 2110              		.loc 1 1228 0
 2111 0000 7047     		bx	lr
 2112              		.cfi_endproc
 2113              	.LFE141:
 2115              		.section	.text.ADC_DMAHalfConvCplt,"ax",%progbits
 2116              		.align	1
 2117              		.syntax unified
 2118              		.thumb
 2119              		.thumb_func
 2120              		.fpu fpv4-sp-d16
 2122              	ADC_DMAHalfConvCplt:
 2123              	.LFB150:
1655:Drivers/STM32F4xx_HAL_Driver/Src/stm32f4xx_hal_adc.c **** 
1656:Drivers/STM32F4xx_HAL_Driver/Src/stm32f4xx_hal_adc.c **** /**
1657:Drivers/STM32F4xx_HAL_Driver/Src/stm32f4xx_hal_adc.c ****   * @brief  DMA half transfer complete callback. 
1658:Drivers/STM32F4xx_HAL_Driver/Src/stm32f4xx_hal_adc.c ****   * @param  hdma pointer to a DMA_HandleTypeDef structure that contains
1659:Drivers/STM32F4xx_HAL_Driver/Src/stm32f4xx_hal_adc.c ****   *                the configuration information for the specified DMA module.
1660:Drivers/STM32F4xx_HAL_Driver/Src/stm32f4xx_hal_adc.c ****   * @retval None
1661:Drivers/STM32F4xx_HAL_Driver/Src/stm32f4xx_hal_adc.c ****   */
1662:Drivers/STM32F4xx_HAL_Driver/Src/stm32f4xx_hal_adc.c **** static void ADC_DMAHalfConvCplt(DMA_HandleTypeDef *hdma)   
1663:Drivers/STM32F4xx_HAL_Driver/Src/stm32f4xx_hal_adc.c **** {
 2124              		.loc 1 1663 0
 2125              		.cfi_startproc
 2126              		@ args = 0, pretend = 0, frame = 0
 2127              		@ frame_needed = 0, uses_anonymous_args = 0
 2128              	.LVL120:
 2129 0000 08B5     		push	{r3, lr}
 2130              	.LCFI25:
 2131              		.cfi_def_cfa_offset 8
 2132              		.cfi_offset 3, -8
 2133              		.cfi_offset 14, -4
 2134              	.LVL121:
1664:Drivers/STM32F4xx_HAL_Driver/Src/stm32f4xx_hal_adc.c ****   ADC_HandleTypeDef* hadc = ( ADC_HandleTypeDef* )((DMA_HandleTypeDef* )hdma)->Parent;
1665:Drivers/STM32F4xx_HAL_Driver/Src/stm32f4xx_hal_adc.c ****   /* Conversion complete callback */
ARM GAS  C:\Users\n-is\AppData\Local\Temp\cc3jxhl4.s 			page 73


1666:Drivers/STM32F4xx_HAL_Driver/Src/stm32f4xx_hal_adc.c ****   HAL_ADC_ConvHalfCpltCallback(hadc); 
 2135              		.loc 1 1666 0
 2136 0002 806B     		ldr	r0, [r0, #56]
 2137              	.LVL122:
 2138 0004 FFF7FEFF 		bl	HAL_ADC_ConvHalfCpltCallback
 2139              	.LVL123:
1667:Drivers/STM32F4xx_HAL_Driver/Src/stm32f4xx_hal_adc.c **** }
 2140              		.loc 1 1667 0
 2141 0008 08BD     		pop	{r3, pc}
 2142              		.cfi_endproc
 2143              	.LFE150:
 2145              		.section	.text.HAL_ADC_LevelOutOfWindowCallback,"ax",%progbits
 2146              		.align	1
 2147              		.weak	HAL_ADC_LevelOutOfWindowCallback
 2148              		.syntax unified
 2149              		.thumb
 2150              		.thumb_func
 2151              		.fpu fpv4-sp-d16
 2153              	HAL_ADC_LevelOutOfWindowCallback:
 2154              	.LFB142:
1237:Drivers/STM32F4xx_HAL_Driver/Src/stm32f4xx_hal_adc.c ****   /* Prevent unused argument(s) compilation warning */
 2155              		.loc 1 1237 0
 2156              		.cfi_startproc
 2157              		@ args = 0, pretend = 0, frame = 0
 2158              		@ frame_needed = 0, uses_anonymous_args = 0
 2159              		@ link register save eliminated.
 2160              	.LVL124:
1243:Drivers/STM32F4xx_HAL_Driver/Src/stm32f4xx_hal_adc.c **** 
 2161              		.loc 1 1243 0
 2162 0000 7047     		bx	lr
 2163              		.cfi_endproc
 2164              	.LFE142:
 2166              		.section	.text.HAL_ADC_ErrorCallback,"ax",%progbits
 2167              		.align	1
 2168              		.weak	HAL_ADC_ErrorCallback
 2169              		.syntax unified
 2170              		.thumb
 2171              		.thumb_func
 2172              		.fpu fpv4-sp-d16
 2174              	HAL_ADC_ErrorCallback:
 2175              	.LFB143:
1258:Drivers/STM32F4xx_HAL_Driver/Src/stm32f4xx_hal_adc.c ****   /* Prevent unused argument(s) compilation warning */
 2176              		.loc 1 1258 0
 2177              		.cfi_startproc
 2178              		@ args = 0, pretend = 0, frame = 0
 2179              		@ frame_needed = 0, uses_anonymous_args = 0
 2180              		@ link register save eliminated.
 2181              	.LVL125:
1264:Drivers/STM32F4xx_HAL_Driver/Src/stm32f4xx_hal_adc.c **** 
 2182              		.loc 1 1264 0
 2183 0000 7047     		bx	lr
 2184              		.cfi_endproc
 2185              	.LFE143:
 2187              		.section	.text.HAL_ADC_IRQHandler,"ax",%progbits
 2188              		.align	1
 2189              		.global	HAL_ADC_IRQHandler
 2190              		.syntax unified
ARM GAS  C:\Users\n-is\AppData\Local\Temp\cc3jxhl4.s 			page 74


 2191              		.thumb
 2192              		.thumb_func
 2193              		.fpu fpv4-sp-d16
 2195              	HAL_ADC_IRQHandler:
 2196              	.LFB136:
 879:Drivers/STM32F4xx_HAL_Driver/Src/stm32f4xx_hal_adc.c ****   uint32_t tmp1 = 0U, tmp2 = 0U;
 2197              		.loc 1 879 0
 2198              		.cfi_startproc
 2199              		@ args = 0, pretend = 0, frame = 0
 2200              		@ frame_needed = 0, uses_anonymous_args = 0
 2201              	.LVL126:
 2202 0000 38B5     		push	{r3, r4, r5, lr}
 2203              	.LCFI26:
 2204              		.cfi_def_cfa_offset 16
 2205              		.cfi_offset 3, -16
 2206              		.cfi_offset 4, -12
 2207              		.cfi_offset 5, -8
 2208              		.cfi_offset 14, -4
 2209 0002 0446     		mov	r4, r0
 2210              	.LVL127:
 883:Drivers/STM32F4xx_HAL_Driver/Src/stm32f4xx_hal_adc.c ****   assert_param(IS_ADC_REGULAR_LENGTH(hadc->Init.NbrOfConversion));
 2211              		.loc 1 883 0
 2212 0004 8369     		ldr	r3, [r0, #24]
 2213 0006 012B     		cmp	r3, #1
 2214 0008 00F29580 		bhi	.L215
 2215              	.LVL128:
 2216              	.L201:
 884:Drivers/STM32F4xx_HAL_Driver/Src/stm32f4xx_hal_adc.c ****   assert_param(IS_ADC_EOCSelection(hadc->Init.EOCSelection));
 2217              		.loc 1 884 0
 2218 000c E369     		ldr	r3, [r4, #28]
 2219 000e 013B     		subs	r3, r3, #1
 2220 0010 0F2B     		cmp	r3, #15
 2221 0012 00F29680 		bhi	.L216
 2222              	.L202:
 885:Drivers/STM32F4xx_HAL_Driver/Src/stm32f4xx_hal_adc.c ****   
 2223              		.loc 1 885 0
 2224 0016 6369     		ldr	r3, [r4, #20]
 2225 0018 022B     		cmp	r3, #2
 2226 001a 00F29880 		bhi	.L217
 2227              	.L203:
 887:Drivers/STM32F4xx_HAL_Driver/Src/stm32f4xx_hal_adc.c ****   tmp2 = __HAL_ADC_GET_IT_SOURCE(hadc, ADC_IT_EOC);
 2228              		.loc 1 887 0
 2229 001e 2268     		ldr	r2, [r4]
 2230 0020 1168     		ldr	r1, [r2]
 2231              	.LVL129:
 888:Drivers/STM32F4xx_HAL_Driver/Src/stm32f4xx_hal_adc.c ****   /* Check End of conversion flag for regular channels */
 2232              		.loc 1 888 0
 2233 0022 5368     		ldr	r3, [r2, #4]
 2234 0024 03F02003 		and	r3, r3, #32
 2235              	.LVL130:
 890:Drivers/STM32F4xx_HAL_Driver/Src/stm32f4xx_hal_adc.c ****   {
 2236              		.loc 1 890 0
 2237 0028 11F0020F 		tst	r1, #2
 2238 002c 2DD0     		beq	.L204
 890:Drivers/STM32F4xx_HAL_Driver/Src/stm32f4xx_hal_adc.c ****   {
 2239              		.loc 1 890 0 is_stmt 0 discriminator 1
 2240 002e 63B3     		cbz	r3, .L204
ARM GAS  C:\Users\n-is\AppData\Local\Temp\cc3jxhl4.s 			page 75


 893:Drivers/STM32F4xx_HAL_Driver/Src/stm32f4xx_hal_adc.c ****     {
 2241              		.loc 1 893 0 is_stmt 1
 2242 0030 236C     		ldr	r3, [r4, #64]
 2243              	.LVL131:
 2244 0032 13F0100F 		tst	r3, #16
 2245 0036 03D1     		bne	.L205
 896:Drivers/STM32F4xx_HAL_Driver/Src/stm32f4xx_hal_adc.c ****     }
 2246              		.loc 1 896 0
 2247 0038 236C     		ldr	r3, [r4, #64]
 2248 003a 43F40073 		orr	r3, r3, #512
 2249 003e 2364     		str	r3, [r4, #64]
 2250              	.L205:
 905:Drivers/STM32F4xx_HAL_Driver/Src/stm32f4xx_hal_adc.c ****        (hadc->Init.ContinuousConvMode == DISABLE)            &&
 2251              		.loc 1 905 0
 2252 0040 9368     		ldr	r3, [r2, #8]
 2253 0042 13F0405F 		tst	r3, #805306368
 2254 0046 19D1     		bne	.L206
 906:Drivers/STM32F4xx_HAL_Driver/Src/stm32f4xx_hal_adc.c ****        (HAL_IS_BIT_CLR(hadc->Instance->SQR1, ADC_SQR1_L) || 
 2255              		.loc 1 906 0 discriminator 1
 2256 0048 A369     		ldr	r3, [r4, #24]
 905:Drivers/STM32F4xx_HAL_Driver/Src/stm32f4xx_hal_adc.c ****        (hadc->Init.ContinuousConvMode == DISABLE)            &&
 2257              		.loc 1 905 0 discriminator 1
 2258 004a BBB9     		cbnz	r3, .L206
 907:Drivers/STM32F4xx_HAL_Driver/Src/stm32f4xx_hal_adc.c ****         HAL_IS_BIT_CLR(hadc->Instance->CR2, ADC_CR2_EOCS)  )   )
 2259              		.loc 1 907 0
 2260 004c D36A     		ldr	r3, [r2, #44]
 906:Drivers/STM32F4xx_HAL_Driver/Src/stm32f4xx_hal_adc.c ****        (HAL_IS_BIT_CLR(hadc->Instance->SQR1, ADC_SQR1_L) || 
 2261              		.loc 1 906 0
 2262 004e 13F4700F 		tst	r3, #15728640
 2263 0052 03D0     		beq	.L207
 908:Drivers/STM32F4xx_HAL_Driver/Src/stm32f4xx_hal_adc.c ****     {
 2264              		.loc 1 908 0
 2265 0054 9368     		ldr	r3, [r2, #8]
 907:Drivers/STM32F4xx_HAL_Driver/Src/stm32f4xx_hal_adc.c ****         HAL_IS_BIT_CLR(hadc->Instance->CR2, ADC_CR2_EOCS)  )   )
 2266              		.loc 1 907 0
 2267 0056 13F4806F 		tst	r3, #1024
 2268 005a 0FD1     		bne	.L206
 2269              	.L207:
 914:Drivers/STM32F4xx_HAL_Driver/Src/stm32f4xx_hal_adc.c ****       
 2270              		.loc 1 914 0
 2271 005c 5368     		ldr	r3, [r2, #4]
 2272 005e 23F02003 		bic	r3, r3, #32
 2273 0062 5360     		str	r3, [r2, #4]
 917:Drivers/STM32F4xx_HAL_Driver/Src/stm32f4xx_hal_adc.c ****       
 2274              		.loc 1 917 0
 2275 0064 236C     		ldr	r3, [r4, #64]
 2276 0066 23F48073 		bic	r3, r3, #256
 2277 006a 2364     		str	r3, [r4, #64]
 919:Drivers/STM32F4xx_HAL_Driver/Src/stm32f4xx_hal_adc.c ****       {
 2278              		.loc 1 919 0
 2279 006c 236C     		ldr	r3, [r4, #64]
 2280 006e 13F4805F 		tst	r3, #4096
 2281 0072 03D1     		bne	.L206
 921:Drivers/STM32F4xx_HAL_Driver/Src/stm32f4xx_hal_adc.c ****       }
 2282              		.loc 1 921 0
 2283 0074 236C     		ldr	r3, [r4, #64]
 2284 0076 43F00103 		orr	r3, r3, #1
ARM GAS  C:\Users\n-is\AppData\Local\Temp\cc3jxhl4.s 			page 76


 2285 007a 2364     		str	r3, [r4, #64]
 2286              	.L206:
 926:Drivers/STM32F4xx_HAL_Driver/Src/stm32f4xx_hal_adc.c ****     
 2287              		.loc 1 926 0
 2288 007c 2046     		mov	r0, r4
 2289 007e FFF7FEFF 		bl	HAL_ADC_ConvCpltCallback
 2290              	.LVL132:
 929:Drivers/STM32F4xx_HAL_Driver/Src/stm32f4xx_hal_adc.c ****   }
 2291              		.loc 1 929 0
 2292 0082 2368     		ldr	r3, [r4]
 2293 0084 6FF01202 		mvn	r2, #18
 2294 0088 1A60     		str	r2, [r3]
 2295              	.L204:
 932:Drivers/STM32F4xx_HAL_Driver/Src/stm32f4xx_hal_adc.c ****   tmp2 = __HAL_ADC_GET_IT_SOURCE(hadc, ADC_IT_JEOC);                               
 2296              		.loc 1 932 0
 2297 008a 2368     		ldr	r3, [r4]
 2298 008c 1968     		ldr	r1, [r3]
 2299              	.LVL133:
 933:Drivers/STM32F4xx_HAL_Driver/Src/stm32f4xx_hal_adc.c ****   /* Check End of conversion flag for injected channels */
 2300              		.loc 1 933 0
 2301 008e 5A68     		ldr	r2, [r3, #4]
 2302 0090 02F08002 		and	r2, r2, #128
 2303              	.LVL134:
 935:Drivers/STM32F4xx_HAL_Driver/Src/stm32f4xx_hal_adc.c ****   {
 2304              		.loc 1 935 0
 2305 0094 11F0040F 		tst	r1, #4
 2306 0098 36D0     		beq	.L208
 935:Drivers/STM32F4xx_HAL_Driver/Src/stm32f4xx_hal_adc.c ****   {
 2307              		.loc 1 935 0 is_stmt 0 discriminator 1
 2308 009a 002A     		cmp	r2, #0
 2309 009c 34D0     		beq	.L208
 938:Drivers/STM32F4xx_HAL_Driver/Src/stm32f4xx_hal_adc.c ****     {
 2310              		.loc 1 938 0 is_stmt 1
 2311 009e 226C     		ldr	r2, [r4, #64]
 2312              	.LVL135:
 2313 00a0 12F0100F 		tst	r2, #16
 2314 00a4 03D1     		bne	.L209
 941:Drivers/STM32F4xx_HAL_Driver/Src/stm32f4xx_hal_adc.c ****     }
 2315              		.loc 1 941 0
 2316 00a6 226C     		ldr	r2, [r4, #64]
 2317 00a8 42F40052 		orr	r2, r2, #8192
 2318 00ac 2264     		str	r2, [r4, #64]
 2319              	.L209:
 948:Drivers/STM32F4xx_HAL_Driver/Src/stm32f4xx_hal_adc.c ****        (HAL_IS_BIT_CLR(hadc->Instance->JSQR, ADC_JSQR_JL)  ||
 2320              		.loc 1 948 0
 2321 00ae 9A68     		ldr	r2, [r3, #8]
 2322 00b0 12F4401F 		tst	r2, #3145728
 2323 00b4 21D1     		bne	.L210
 949:Drivers/STM32F4xx_HAL_Driver/Src/stm32f4xx_hal_adc.c ****         HAL_IS_BIT_CLR(hadc->Instance->CR2, ADC_CR2_EOCS)    ) &&
 2324              		.loc 1 949 0 discriminator 1
 2325 00b6 9A6B     		ldr	r2, [r3, #56]
 948:Drivers/STM32F4xx_HAL_Driver/Src/stm32f4xx_hal_adc.c ****        (HAL_IS_BIT_CLR(hadc->Instance->JSQR, ADC_JSQR_JL)  ||
 2326              		.loc 1 948 0 discriminator 1
 2327 00b8 12F4401F 		tst	r2, #3145728
 2328 00bc 03D0     		beq	.L211
 950:Drivers/STM32F4xx_HAL_Driver/Src/stm32f4xx_hal_adc.c ****        (HAL_IS_BIT_CLR(hadc->Instance->CR1, ADC_CR1_JAUTO) &&
 2329              		.loc 1 950 0
ARM GAS  C:\Users\n-is\AppData\Local\Temp\cc3jxhl4.s 			page 77


 2330 00be 9A68     		ldr	r2, [r3, #8]
 949:Drivers/STM32F4xx_HAL_Driver/Src/stm32f4xx_hal_adc.c ****         HAL_IS_BIT_CLR(hadc->Instance->CR2, ADC_CR2_EOCS)    ) &&
 2331              		.loc 1 949 0
 2332 00c0 12F4806F 		tst	r2, #1024
 2333 00c4 19D1     		bne	.L210
 2334              	.L211:
 951:Drivers/STM32F4xx_HAL_Driver/Src/stm32f4xx_hal_adc.c ****         (ADC_IS_SOFTWARE_START_REGULAR(hadc)       &&
 2335              		.loc 1 951 0
 2336 00c6 5A68     		ldr	r2, [r3, #4]
 950:Drivers/STM32F4xx_HAL_Driver/Src/stm32f4xx_hal_adc.c ****        (HAL_IS_BIT_CLR(hadc->Instance->CR1, ADC_CR1_JAUTO) &&
 2337              		.loc 1 950 0
 2338 00c8 12F4806F 		tst	r2, #1024
 2339 00cc 15D1     		bne	.L210
 952:Drivers/STM32F4xx_HAL_Driver/Src/stm32f4xx_hal_adc.c ****         (hadc->Init.ContinuousConvMode == DISABLE)   )       )   )
 2340              		.loc 1 952 0
 2341 00ce 9A68     		ldr	r2, [r3, #8]
 951:Drivers/STM32F4xx_HAL_Driver/Src/stm32f4xx_hal_adc.c ****         (ADC_IS_SOFTWARE_START_REGULAR(hadc)       &&
 2342              		.loc 1 951 0
 2343 00d0 12F0405F 		tst	r2, #805306368
 2344 00d4 11D1     		bne	.L210
 953:Drivers/STM32F4xx_HAL_Driver/Src/stm32f4xx_hal_adc.c ****     {
 2345              		.loc 1 953 0
 2346 00d6 A269     		ldr	r2, [r4, #24]
 952:Drivers/STM32F4xx_HAL_Driver/Src/stm32f4xx_hal_adc.c ****         (hadc->Init.ContinuousConvMode == DISABLE)   )       )   )
 2347              		.loc 1 952 0
 2348 00d8 7AB9     		cbnz	r2, .L210
 956:Drivers/STM32F4xx_HAL_Driver/Src/stm32f4xx_hal_adc.c ****       
 2349              		.loc 1 956 0
 2350 00da 5A68     		ldr	r2, [r3, #4]
 2351 00dc 22F08002 		bic	r2, r2, #128
 2352 00e0 5A60     		str	r2, [r3, #4]
 959:Drivers/STM32F4xx_HAL_Driver/Src/stm32f4xx_hal_adc.c **** 
 2353              		.loc 1 959 0
 2354 00e2 236C     		ldr	r3, [r4, #64]
 2355 00e4 23F48053 		bic	r3, r3, #4096
 2356 00e8 2364     		str	r3, [r4, #64]
 961:Drivers/STM32F4xx_HAL_Driver/Src/stm32f4xx_hal_adc.c ****       { 
 2357              		.loc 1 961 0
 2358 00ea 236C     		ldr	r3, [r4, #64]
 2359 00ec 13F4807F 		tst	r3, #256
 2360 00f0 03D1     		bne	.L210
 963:Drivers/STM32F4xx_HAL_Driver/Src/stm32f4xx_hal_adc.c ****       }
 2361              		.loc 1 963 0
 2362 00f2 236C     		ldr	r3, [r4, #64]
 2363 00f4 43F00103 		orr	r3, r3, #1
 2364 00f8 2364     		str	r3, [r4, #64]
 2365              	.L210:
 968:Drivers/STM32F4xx_HAL_Driver/Src/stm32f4xx_hal_adc.c ****     
 2366              		.loc 1 968 0
 2367 00fa 2046     		mov	r0, r4
 2368 00fc FFF7FEFF 		bl	HAL_ADCEx_InjectedConvCpltCallback
 2369              	.LVL136:
 971:Drivers/STM32F4xx_HAL_Driver/Src/stm32f4xx_hal_adc.c ****   }
 2370              		.loc 1 971 0
 2371 0100 2368     		ldr	r3, [r4]
 2372 0102 6FF00C02 		mvn	r2, #12
 2373 0106 1A60     		str	r2, [r3]
ARM GAS  C:\Users\n-is\AppData\Local\Temp\cc3jxhl4.s 			page 78


 2374              	.L208:
 974:Drivers/STM32F4xx_HAL_Driver/Src/stm32f4xx_hal_adc.c ****   tmp2 = __HAL_ADC_GET_IT_SOURCE(hadc, ADC_IT_AWD);                          
 2375              		.loc 1 974 0
 2376 0108 2268     		ldr	r2, [r4]
 2377 010a 1168     		ldr	r1, [r2]
 2378              	.LVL137:
 975:Drivers/STM32F4xx_HAL_Driver/Src/stm32f4xx_hal_adc.c ****   /* Check Analog watchdog flag */
 2379              		.loc 1 975 0
 2380 010c 5368     		ldr	r3, [r2, #4]
 2381 010e 03F04003 		and	r3, r3, #64
 2382              	.LVL138:
 977:Drivers/STM32F4xx_HAL_Driver/Src/stm32f4xx_hal_adc.c ****   {
 2383              		.loc 1 977 0
 2384 0112 11F0010F 		tst	r1, #1
 2385 0116 04D0     		beq	.L212
 977:Drivers/STM32F4xx_HAL_Driver/Src/stm32f4xx_hal_adc.c ****   {
 2386              		.loc 1 977 0 is_stmt 0 discriminator 1
 2387 0118 1BB1     		cbz	r3, .L212
 979:Drivers/STM32F4xx_HAL_Driver/Src/stm32f4xx_hal_adc.c ****     {
 2388              		.loc 1 979 0 is_stmt 1
 2389 011a 1368     		ldr	r3, [r2]
 2390              	.LVL139:
 2391 011c 13F0010F 		tst	r3, #1
 2392 0120 1BD1     		bne	.L218
 2393              	.LVL140:
 2394              	.L212:
 992:Drivers/STM32F4xx_HAL_Driver/Src/stm32f4xx_hal_adc.c ****   tmp2 = __HAL_ADC_GET_IT_SOURCE(hadc, ADC_IT_OVR);
 2395              		.loc 1 992 0
 2396 0122 2268     		ldr	r2, [r4]
 2397 0124 1168     		ldr	r1, [r2]
 2398              	.LVL141:
 993:Drivers/STM32F4xx_HAL_Driver/Src/stm32f4xx_hal_adc.c ****   /* Check Overrun flag */
 2399              		.loc 1 993 0
 2400 0126 5368     		ldr	r3, [r2, #4]
 2401 0128 03F08063 		and	r3, r3, #67108864
 2402              	.LVL142:
 995:Drivers/STM32F4xx_HAL_Driver/Src/stm32f4xx_hal_adc.c ****   {
 2403              		.loc 1 995 0
 2404 012c 11F0200F 		tst	r1, #32
 2405 0130 00D0     		beq	.L200
 995:Drivers/STM32F4xx_HAL_Driver/Src/stm32f4xx_hal_adc.c ****   {
 2406              		.loc 1 995 0 is_stmt 0 discriminator 1
 2407 0132 F3B9     		cbnz	r3, .L219
 2408              	.LVL143:
 2409              	.L200:
1013:Drivers/STM32F4xx_HAL_Driver/Src/stm32f4xx_hal_adc.c **** 
 2410              		.loc 1 1013 0 is_stmt 1
 2411 0134 38BD     		pop	{r3, r4, r5, pc}
 2412              	.LVL144:
 2413              	.L215:
 883:Drivers/STM32F4xx_HAL_Driver/Src/stm32f4xx_hal_adc.c ****   assert_param(IS_ADC_REGULAR_LENGTH(hadc->Init.NbrOfConversion));
 2414              		.loc 1 883 0 discriminator 1
 2415 0136 40F27331 		movw	r1, #883
 2416 013a 1448     		ldr	r0, .L220
 2417              	.LVL145:
 2418 013c FFF7FEFF 		bl	assert_failed
 2419              	.LVL146:
ARM GAS  C:\Users\n-is\AppData\Local\Temp\cc3jxhl4.s 			page 79


 2420 0140 64E7     		b	.L201
 2421              	.L216:
 884:Drivers/STM32F4xx_HAL_Driver/Src/stm32f4xx_hal_adc.c ****   assert_param(IS_ADC_EOCSelection(hadc->Init.EOCSelection));
 2422              		.loc 1 884 0 discriminator 1
 2423 0142 4FF45D71 		mov	r1, #884
 2424 0146 1148     		ldr	r0, .L220
 2425 0148 FFF7FEFF 		bl	assert_failed
 2426              	.LVL147:
 2427 014c 63E7     		b	.L202
 2428              	.L217:
 885:Drivers/STM32F4xx_HAL_Driver/Src/stm32f4xx_hal_adc.c ****   
 2429              		.loc 1 885 0 discriminator 1
 2430 014e 40F27531 		movw	r1, #885
 2431 0152 0E48     		ldr	r0, .L220
 2432 0154 FFF7FEFF 		bl	assert_failed
 2433              	.LVL148:
 2434 0158 61E7     		b	.L203
 2435              	.LVL149:
 2436              	.L218:
 982:Drivers/STM32F4xx_HAL_Driver/Src/stm32f4xx_hal_adc.c ****       
 2437              		.loc 1 982 0
 2438 015a 236C     		ldr	r3, [r4, #64]
 2439 015c 43F48033 		orr	r3, r3, #65536
 2440 0160 2364     		str	r3, [r4, #64]
 985:Drivers/STM32F4xx_HAL_Driver/Src/stm32f4xx_hal_adc.c ****       
 2441              		.loc 1 985 0
 2442 0162 2046     		mov	r0, r4
 2443 0164 FFF7FEFF 		bl	HAL_ADC_LevelOutOfWindowCallback
 2444              	.LVL150:
 988:Drivers/STM32F4xx_HAL_Driver/Src/stm32f4xx_hal_adc.c ****     }
 2445              		.loc 1 988 0
 2446 0168 2368     		ldr	r3, [r4]
 2447 016a 6FF00102 		mvn	r2, #1
 2448 016e 1A60     		str	r2, [r3]
 2449 0170 D7E7     		b	.L212
 2450              	.LVL151:
 2451              	.L219:
1002:Drivers/STM32F4xx_HAL_Driver/Src/stm32f4xx_hal_adc.c ****     
 2452              		.loc 1 1002 0
 2453 0172 636C     		ldr	r3, [r4, #68]
 2454              	.LVL152:
 2455 0174 43F00203 		orr	r3, r3, #2
 2456 0178 6364     		str	r3, [r4, #68]
1005:Drivers/STM32F4xx_HAL_Driver/Src/stm32f4xx_hal_adc.c ****     
 2457              		.loc 1 1005 0
 2458 017a 6FF02005 		mvn	r5, #32
 2459 017e 1560     		str	r5, [r2]
1008:Drivers/STM32F4xx_HAL_Driver/Src/stm32f4xx_hal_adc.c ****     
 2460              		.loc 1 1008 0
 2461 0180 2046     		mov	r0, r4
 2462 0182 FFF7FEFF 		bl	HAL_ADC_ErrorCallback
 2463              	.LVL153:
1011:Drivers/STM32F4xx_HAL_Driver/Src/stm32f4xx_hal_adc.c ****   }
 2464              		.loc 1 1011 0
 2465 0186 2368     		ldr	r3, [r4]
 2466 0188 1D60     		str	r5, [r3]
1013:Drivers/STM32F4xx_HAL_Driver/Src/stm32f4xx_hal_adc.c **** 
ARM GAS  C:\Users\n-is\AppData\Local\Temp\cc3jxhl4.s 			page 80


 2467              		.loc 1 1013 0
 2468 018a D3E7     		b	.L200
 2469              	.L221:
 2470              		.align	2
 2471              	.L220:
 2472 018c 00000000 		.word	.LC0
 2473              		.cfi_endproc
 2474              	.LFE136:
 2476              		.section	.text.ADC_DMAError,"ax",%progbits
 2477              		.align	1
 2478              		.syntax unified
 2479              		.thumb
 2480              		.thumb_func
 2481              		.fpu fpv4-sp-d16
 2483              	ADC_DMAError:
 2484              	.LFB151:
1668:Drivers/STM32F4xx_HAL_Driver/Src/stm32f4xx_hal_adc.c **** 
1669:Drivers/STM32F4xx_HAL_Driver/Src/stm32f4xx_hal_adc.c **** /**
1670:Drivers/STM32F4xx_HAL_Driver/Src/stm32f4xx_hal_adc.c ****   * @brief  DMA error callback 
1671:Drivers/STM32F4xx_HAL_Driver/Src/stm32f4xx_hal_adc.c ****   * @param  hdma pointer to a DMA_HandleTypeDef structure that contains
1672:Drivers/STM32F4xx_HAL_Driver/Src/stm32f4xx_hal_adc.c ****   *                the configuration information for the specified DMA module.
1673:Drivers/STM32F4xx_HAL_Driver/Src/stm32f4xx_hal_adc.c ****   * @retval None
1674:Drivers/STM32F4xx_HAL_Driver/Src/stm32f4xx_hal_adc.c ****   */
1675:Drivers/STM32F4xx_HAL_Driver/Src/stm32f4xx_hal_adc.c **** static void ADC_DMAError(DMA_HandleTypeDef *hdma)   
1676:Drivers/STM32F4xx_HAL_Driver/Src/stm32f4xx_hal_adc.c **** {
 2485              		.loc 1 1676 0
 2486              		.cfi_startproc
 2487              		@ args = 0, pretend = 0, frame = 0
 2488              		@ frame_needed = 0, uses_anonymous_args = 0
 2489              	.LVL154:
 2490 0000 08B5     		push	{r3, lr}
 2491              	.LCFI27:
 2492              		.cfi_def_cfa_offset 8
 2493              		.cfi_offset 3, -8
 2494              		.cfi_offset 14, -4
1677:Drivers/STM32F4xx_HAL_Driver/Src/stm32f4xx_hal_adc.c ****   ADC_HandleTypeDef* hadc = ( ADC_HandleTypeDef* )((DMA_HandleTypeDef* )hdma)->Parent;
 2495              		.loc 1 1677 0
 2496 0002 806B     		ldr	r0, [r0, #56]
 2497              	.LVL155:
1678:Drivers/STM32F4xx_HAL_Driver/Src/stm32f4xx_hal_adc.c ****   hadc->State= HAL_ADC_STATE_ERROR_DMA;
 2498              		.loc 1 1678 0
 2499 0004 4023     		movs	r3, #64
 2500 0006 0364     		str	r3, [r0, #64]
1679:Drivers/STM32F4xx_HAL_Driver/Src/stm32f4xx_hal_adc.c ****   /* Set ADC error code to DMA error */
1680:Drivers/STM32F4xx_HAL_Driver/Src/stm32f4xx_hal_adc.c ****   hadc->ErrorCode |= HAL_ADC_ERROR_DMA;
 2501              		.loc 1 1680 0
 2502 0008 436C     		ldr	r3, [r0, #68]
 2503 000a 43F00403 		orr	r3, r3, #4
 2504 000e 4364     		str	r3, [r0, #68]
1681:Drivers/STM32F4xx_HAL_Driver/Src/stm32f4xx_hal_adc.c ****   HAL_ADC_ErrorCallback(hadc); 
 2505              		.loc 1 1681 0
 2506 0010 FFF7FEFF 		bl	HAL_ADC_ErrorCallback
 2507              	.LVL156:
1682:Drivers/STM32F4xx_HAL_Driver/Src/stm32f4xx_hal_adc.c **** }
 2508              		.loc 1 1682 0
 2509 0014 08BD     		pop	{r3, pc}
 2510              		.cfi_endproc
ARM GAS  C:\Users\n-is\AppData\Local\Temp\cc3jxhl4.s 			page 81


 2511              	.LFE151:
 2513              		.section	.text.HAL_ADC_ConfigChannel,"ax",%progbits
 2514              		.align	1
 2515              		.global	HAL_ADC_ConfigChannel
 2516              		.syntax unified
 2517              		.thumb
 2518              		.thumb_func
 2519              		.fpu fpv4-sp-d16
 2521              	HAL_ADC_ConfigChannel:
 2522              	.LFB144:
1296:Drivers/STM32F4xx_HAL_Driver/Src/stm32f4xx_hal_adc.c ****   __IO uint32_t counter = 0U;
 2523              		.loc 1 1296 0
 2524              		.cfi_startproc
 2525              		@ args = 0, pretend = 0, frame = 8
 2526              		@ frame_needed = 0, uses_anonymous_args = 0
 2527              	.LVL157:
 2528 0000 30B5     		push	{r4, r5, lr}
 2529              	.LCFI28:
 2530              		.cfi_def_cfa_offset 12
 2531              		.cfi_offset 4, -12
 2532              		.cfi_offset 5, -8
 2533              		.cfi_offset 14, -4
 2534 0002 83B0     		sub	sp, sp, #12
 2535              	.LCFI29:
 2536              		.cfi_def_cfa_offset 24
 2537 0004 0546     		mov	r5, r0
 2538 0006 0C46     		mov	r4, r1
1297:Drivers/STM32F4xx_HAL_Driver/Src/stm32f4xx_hal_adc.c ****   ADC_Common_TypeDef *tmpADC_Common;
 2539              		.loc 1 1297 0
 2540 0008 0023     		movs	r3, #0
 2541 000a 0193     		str	r3, [sp, #4]
1301:Drivers/STM32F4xx_HAL_Driver/Src/stm32f4xx_hal_adc.c ****   assert_param(IS_ADC_REGULAR_RANK(sConfig->Rank));
 2542              		.loc 1 1301 0
 2543 000c 0B68     		ldr	r3, [r1]
 2544 000e 122B     		cmp	r3, #18
 2545 0010 4ED8     		bhi	.L240
 2546              	.LVL158:
 2547              	.L225:
1302:Drivers/STM32F4xx_HAL_Driver/Src/stm32f4xx_hal_adc.c ****   assert_param(IS_ADC_SAMPLE_TIME(sConfig->SamplingTime));
 2548              		.loc 1 1302 0
 2549 0012 6368     		ldr	r3, [r4, #4]
 2550 0014 013B     		subs	r3, r3, #1
 2551 0016 0F2B     		cmp	r3, #15
 2552 0018 50D8     		bhi	.L241
 2553              	.L226:
1303:Drivers/STM32F4xx_HAL_Driver/Src/stm32f4xx_hal_adc.c ****   
 2554              		.loc 1 1303 0
 2555 001a A368     		ldr	r3, [r4, #8]
 2556 001c 072B     		cmp	r3, #7
 2557 001e 53D8     		bhi	.L242
 2558              	.L227:
1306:Drivers/STM32F4xx_HAL_Driver/Src/stm32f4xx_hal_adc.c ****     
 2559              		.loc 1 1306 0
 2560 0020 95F83C30 		ldrb	r3, [r5, #60]	@ zero_extendqisi2
 2561 0024 012B     		cmp	r3, #1
 2562 0026 00F0C780 		beq	.L238
1306:Drivers/STM32F4xx_HAL_Driver/Src/stm32f4xx_hal_adc.c ****     
ARM GAS  C:\Users\n-is\AppData\Local\Temp\cc3jxhl4.s 			page 82


 2563              		.loc 1 1306 0 is_stmt 0 discriminator 2
 2564 002a 0123     		movs	r3, #1
 2565 002c 85F83C30 		strb	r3, [r5, #60]
1309:Drivers/STM32F4xx_HAL_Driver/Src/stm32f4xx_hal_adc.c ****   {
 2566              		.loc 1 1309 0 is_stmt 1 discriminator 2
 2567 0030 2368     		ldr	r3, [r4]
 2568 0032 092B     		cmp	r3, #9
 2569 0034 4ED9     		bls	.L229
1312:Drivers/STM32F4xx_HAL_Driver/Src/stm32f4xx_hal_adc.c ****     
 2570              		.loc 1 1312 0
 2571 0036 2868     		ldr	r0, [r5]
 2572 0038 C268     		ldr	r2, [r0, #12]
 2573 003a 9BB2     		uxth	r3, r3
 2574 003c 03EB4303 		add	r3, r3, r3, lsl #1
 2575 0040 1E3B     		subs	r3, r3, #30
 2576 0042 0721     		movs	r1, #7
 2577 0044 01FA03F3 		lsl	r3, r1, r3
 2578 0048 22EA0303 		bic	r3, r2, r3
 2579 004c C360     		str	r3, [r0, #12]
1315:Drivers/STM32F4xx_HAL_Driver/Src/stm32f4xx_hal_adc.c ****   }
 2580              		.loc 1 1315 0
 2581 004e 2868     		ldr	r0, [r5]
 2582 0050 C268     		ldr	r2, [r0, #12]
 2583 0052 A168     		ldr	r1, [r4, #8]
 2584 0054 2388     		ldrh	r3, [r4]
 2585 0056 03EB4303 		add	r3, r3, r3, lsl #1
 2586 005a 1E3B     		subs	r3, r3, #30
 2587 005c 01FA03F3 		lsl	r3, r1, r3
 2588 0060 1343     		orrs	r3, r3, r2
 2589 0062 C360     		str	r3, [r0, #12]
 2590              	.L230:
1327:Drivers/STM32F4xx_HAL_Driver/Src/stm32f4xx_hal_adc.c ****   {
 2591              		.loc 1 1327 0
 2592 0064 6368     		ldr	r3, [r4, #4]
 2593 0066 062B     		cmp	r3, #6
 2594 0068 4AD8     		bhi	.L231
1330:Drivers/STM32F4xx_HAL_Driver/Src/stm32f4xx_hal_adc.c ****     
 2595              		.loc 1 1330 0
 2596 006a 2868     		ldr	r0, [r5]
 2597 006c 426B     		ldr	r2, [r0, #52]
 2598 006e 03EB8303 		add	r3, r3, r3, lsl #2
 2599 0072 053B     		subs	r3, r3, #5
 2600 0074 1F21     		movs	r1, #31
 2601 0076 01FA03F3 		lsl	r3, r1, r3
 2602 007a 22EA0303 		bic	r3, r2, r3
 2603 007e 4363     		str	r3, [r0, #52]
1333:Drivers/STM32F4xx_HAL_Driver/Src/stm32f4xx_hal_adc.c ****   }
 2604              		.loc 1 1333 0
 2605 0080 2868     		ldr	r0, [r5]
 2606 0082 426B     		ldr	r2, [r0, #52]
 2607 0084 6368     		ldr	r3, [r4, #4]
 2608 0086 03EB8303 		add	r3, r3, r3, lsl #2
 2609 008a 053B     		subs	r3, r3, #5
 2610 008c 2188     		ldrh	r1, [r4]
 2611 008e 01FA03F3 		lsl	r3, r1, r3
 2612 0092 1343     		orrs	r3, r3, r2
 2613 0094 4363     		str	r3, [r0, #52]
ARM GAS  C:\Users\n-is\AppData\Local\Temp\cc3jxhl4.s 			page 83


 2614              	.L232:
 2615              	.LVL159:
1360:Drivers/STM32F4xx_HAL_Driver/Src/stm32f4xx_hal_adc.c ****   {
 2616              		.loc 1 1360 0
 2617 0096 2A68     		ldr	r2, [r5]
 2618 0098 484B     		ldr	r3, .L245
 2619 009a 9A42     		cmp	r2, r3
 2620 009c 60D0     		beq	.L243
 2621              	.L234:
1367:Drivers/STM32F4xx_HAL_Driver/Src/stm32f4xx_hal_adc.c ****   {
 2622              		.loc 1 1367 0
 2623 009e 2A68     		ldr	r2, [r5]
 2624 00a0 464B     		ldr	r3, .L245
 2625 00a2 9A42     		cmp	r2, r3
 2626 00a4 65D0     		beq	.L244
 2627              	.L235:
1385:Drivers/STM32F4xx_HAL_Driver/Src/stm32f4xx_hal_adc.c ****   
 2628              		.loc 1 1385 0
 2629 00a6 0020     		movs	r0, #0
 2630 00a8 85F83C00 		strb	r0, [r5, #60]
 2631              	.LVL160:
 2632              	.L228:
1389:Drivers/STM32F4xx_HAL_Driver/Src/stm32f4xx_hal_adc.c **** 
 2633              		.loc 1 1389 0
 2634 00ac 03B0     		add	sp, sp, #12
 2635              	.LCFI30:
 2636              		.cfi_remember_state
 2637              		.cfi_def_cfa_offset 12
 2638              		@ sp needed
 2639 00ae 30BD     		pop	{r4, r5, pc}
 2640              	.LVL161:
 2641              	.L240:
 2642              	.LCFI31:
 2643              		.cfi_restore_state
1301:Drivers/STM32F4xx_HAL_Driver/Src/stm32f4xx_hal_adc.c ****   assert_param(IS_ADC_REGULAR_RANK(sConfig->Rank));
 2644              		.loc 1 1301 0 discriminator 1
 2645 00b0 40F21551 		movw	r1, #1301
 2646              	.LVL162:
 2647 00b4 4248     		ldr	r0, .L245+4
 2648              	.LVL163:
 2649 00b6 FFF7FEFF 		bl	assert_failed
 2650              	.LVL164:
 2651 00ba AAE7     		b	.L225
 2652              	.L241:
1302:Drivers/STM32F4xx_HAL_Driver/Src/stm32f4xx_hal_adc.c ****   assert_param(IS_ADC_SAMPLE_TIME(sConfig->SamplingTime));
 2653              		.loc 1 1302 0 discriminator 1
 2654 00bc 40F21651 		movw	r1, #1302
 2655 00c0 3F48     		ldr	r0, .L245+4
 2656 00c2 FFF7FEFF 		bl	assert_failed
 2657              	.LVL165:
 2658 00c6 A8E7     		b	.L226
 2659              	.L242:
1303:Drivers/STM32F4xx_HAL_Driver/Src/stm32f4xx_hal_adc.c ****   
 2660              		.loc 1 1303 0 discriminator 1
 2661 00c8 40F21751 		movw	r1, #1303
 2662 00cc 3C48     		ldr	r0, .L245+4
 2663 00ce FFF7FEFF 		bl	assert_failed
ARM GAS  C:\Users\n-is\AppData\Local\Temp\cc3jxhl4.s 			page 84


 2664              	.LVL166:
 2665 00d2 A5E7     		b	.L227
 2666              	.L229:
1320:Drivers/STM32F4xx_HAL_Driver/Src/stm32f4xx_hal_adc.c ****     
 2667              		.loc 1 1320 0
 2668 00d4 2868     		ldr	r0, [r5]
 2669 00d6 0269     		ldr	r2, [r0, #16]
 2670 00d8 9BB2     		uxth	r3, r3
 2671 00da 03EB4303 		add	r3, r3, r3, lsl #1
 2672 00de 0721     		movs	r1, #7
 2673 00e0 01FA03F3 		lsl	r3, r1, r3
 2674 00e4 22EA0303 		bic	r3, r2, r3
 2675 00e8 0361     		str	r3, [r0, #16]
1323:Drivers/STM32F4xx_HAL_Driver/Src/stm32f4xx_hal_adc.c ****   }
 2676              		.loc 1 1323 0
 2677 00ea 2868     		ldr	r0, [r5]
 2678 00ec 0269     		ldr	r2, [r0, #16]
 2679 00ee A168     		ldr	r1, [r4, #8]
 2680 00f0 2388     		ldrh	r3, [r4]
 2681 00f2 03EB4303 		add	r3, r3, r3, lsl #1
 2682 00f6 01FA03F3 		lsl	r3, r1, r3
 2683 00fa 1343     		orrs	r3, r3, r2
 2684 00fc 0361     		str	r3, [r0, #16]
 2685 00fe B1E7     		b	.L230
 2686              	.L231:
1336:Drivers/STM32F4xx_HAL_Driver/Src/stm32f4xx_hal_adc.c ****   {
 2687              		.loc 1 1336 0
 2688 0100 0C2B     		cmp	r3, #12
 2689 0102 16D8     		bhi	.L233
1339:Drivers/STM32F4xx_HAL_Driver/Src/stm32f4xx_hal_adc.c ****     
 2690              		.loc 1 1339 0
 2691 0104 2868     		ldr	r0, [r5]
 2692 0106 026B     		ldr	r2, [r0, #48]
 2693 0108 03EB8303 		add	r3, r3, r3, lsl #2
 2694 010c 233B     		subs	r3, r3, #35
 2695 010e 1F21     		movs	r1, #31
 2696 0110 01FA03F3 		lsl	r3, r1, r3
 2697 0114 22EA0303 		bic	r3, r2, r3
 2698 0118 0363     		str	r3, [r0, #48]
1342:Drivers/STM32F4xx_HAL_Driver/Src/stm32f4xx_hal_adc.c ****   }
 2699              		.loc 1 1342 0
 2700 011a 2868     		ldr	r0, [r5]
 2701 011c 026B     		ldr	r2, [r0, #48]
 2702 011e 6368     		ldr	r3, [r4, #4]
 2703 0120 03EB8303 		add	r3, r3, r3, lsl #2
 2704 0124 233B     		subs	r3, r3, #35
 2705 0126 2188     		ldrh	r1, [r4]
 2706 0128 01FA03F3 		lsl	r3, r1, r3
 2707 012c 1343     		orrs	r3, r3, r2
 2708 012e 0363     		str	r3, [r0, #48]
 2709 0130 B1E7     		b	.L232
 2710              	.L233:
1348:Drivers/STM32F4xx_HAL_Driver/Src/stm32f4xx_hal_adc.c ****     
 2711              		.loc 1 1348 0
 2712 0132 2868     		ldr	r0, [r5]
 2713 0134 C26A     		ldr	r2, [r0, #44]
 2714 0136 03EB8303 		add	r3, r3, r3, lsl #2
ARM GAS  C:\Users\n-is\AppData\Local\Temp\cc3jxhl4.s 			page 85


 2715 013a 413B     		subs	r3, r3, #65
 2716 013c 1F21     		movs	r1, #31
 2717 013e 01FA03F3 		lsl	r3, r1, r3
 2718 0142 22EA0303 		bic	r3, r2, r3
 2719 0146 C362     		str	r3, [r0, #44]
1351:Drivers/STM32F4xx_HAL_Driver/Src/stm32f4xx_hal_adc.c ****   }
 2720              		.loc 1 1351 0
 2721 0148 2868     		ldr	r0, [r5]
 2722 014a C26A     		ldr	r2, [r0, #44]
 2723 014c 6368     		ldr	r3, [r4, #4]
 2724 014e 03EB8303 		add	r3, r3, r3, lsl #2
 2725 0152 413B     		subs	r3, r3, #65
 2726 0154 2188     		ldrh	r1, [r4]
 2727 0156 01FA03F3 		lsl	r3, r1, r3
 2728 015a 1343     		orrs	r3, r3, r2
 2729 015c C362     		str	r3, [r0, #44]
 2730 015e 9AE7     		b	.L232
 2731              	.LVL167:
 2732              	.L243:
1360:Drivers/STM32F4xx_HAL_Driver/Src/stm32f4xx_hal_adc.c ****   {
 2733              		.loc 1 1360 0 discriminator 1
 2734 0160 2368     		ldr	r3, [r4]
 2735 0162 122B     		cmp	r3, #18
 2736 0164 9BD1     		bne	.L234
1363:Drivers/STM32F4xx_HAL_Driver/Src/stm32f4xx_hal_adc.c ****   }
 2737              		.loc 1 1363 0
 2738 0166 174A     		ldr	r2, .L245+8
 2739 0168 5368     		ldr	r3, [r2, #4]
 2740 016a 43F48003 		orr	r3, r3, #4194304
 2741 016e 5360     		str	r3, [r2, #4]
 2742 0170 95E7     		b	.L234
 2743              	.L244:
1367:Drivers/STM32F4xx_HAL_Driver/Src/stm32f4xx_hal_adc.c ****   {
 2744              		.loc 1 1367 0 discriminator 1
 2745 0172 2368     		ldr	r3, [r4]
 2746 0174 103B     		subs	r3, r3, #16
 2747 0176 012B     		cmp	r3, #1
 2748 0178 95D8     		bhi	.L235
1370:Drivers/STM32F4xx_HAL_Driver/Src/stm32f4xx_hal_adc.c ****     
 2749              		.loc 1 1370 0
 2750 017a 124A     		ldr	r2, .L245+8
 2751 017c 5368     		ldr	r3, [r2, #4]
 2752 017e 43F40003 		orr	r3, r3, #8388608
 2753 0182 5360     		str	r3, [r2, #4]
1372:Drivers/STM32F4xx_HAL_Driver/Src/stm32f4xx_hal_adc.c ****     {
 2754              		.loc 1 1372 0
 2755 0184 2368     		ldr	r3, [r4]
 2756 0186 102B     		cmp	r3, #16
 2757 0188 8DD1     		bne	.L235
1376:Drivers/STM32F4xx_HAL_Driver/Src/stm32f4xx_hal_adc.c ****       while(counter != 0U)
 2758              		.loc 1 1376 0
 2759 018a 0F4B     		ldr	r3, .L245+12
 2760 018c 1B68     		ldr	r3, [r3]
 2761 018e 02F14672 		add	r2, r2, #51904512
 2762 0192 02F52E32 		add	r2, r2, #178176
 2763 0196 02F28332 		addw	r2, r2, #899
 2764 019a A2FB0323 		umull	r2, r3, r2, r3
ARM GAS  C:\Users\n-is\AppData\Local\Temp\cc3jxhl4.s 			page 86


 2765 019e 9B0C     		lsrs	r3, r3, #18
 2766 01a0 03EB8303 		add	r3, r3, r3, lsl #2
 2767 01a4 5A00     		lsls	r2, r3, #1
 2768 01a6 0192     		str	r2, [sp, #4]
1377:Drivers/STM32F4xx_HAL_Driver/Src/stm32f4xx_hal_adc.c ****       {
 2769              		.loc 1 1377 0
 2770 01a8 02E0     		b	.L236
 2771              	.L237:
1379:Drivers/STM32F4xx_HAL_Driver/Src/stm32f4xx_hal_adc.c ****       }
 2772              		.loc 1 1379 0
 2773 01aa 019B     		ldr	r3, [sp, #4]
 2774 01ac 013B     		subs	r3, r3, #1
 2775 01ae 0193     		str	r3, [sp, #4]
 2776              	.L236:
1377:Drivers/STM32F4xx_HAL_Driver/Src/stm32f4xx_hal_adc.c ****       {
 2777              		.loc 1 1377 0
 2778 01b0 019B     		ldr	r3, [sp, #4]
 2779 01b2 002B     		cmp	r3, #0
 2780 01b4 F9D1     		bne	.L237
 2781 01b6 76E7     		b	.L235
 2782              	.LVL168:
 2783              	.L238:
1306:Drivers/STM32F4xx_HAL_Driver/Src/stm32f4xx_hal_adc.c ****     
 2784              		.loc 1 1306 0
 2785 01b8 0220     		movs	r0, #2
 2786 01ba 77E7     		b	.L228
 2787              	.L246:
 2788              		.align	2
 2789              	.L245:
 2790 01bc 00200140 		.word	1073815552
 2791 01c0 00000000 		.word	.LC0
 2792 01c4 00230140 		.word	1073816320
 2793 01c8 00000000 		.word	SystemCoreClock
 2794              		.cfi_endproc
 2795              	.LFE144:
 2797              		.section	.text.HAL_ADC_AnalogWDGConfig,"ax",%progbits
 2798              		.align	1
 2799              		.global	HAL_ADC_AnalogWDGConfig
 2800              		.syntax unified
 2801              		.thumb
 2802              		.thumb_func
 2803              		.fpu fpv4-sp-d16
 2805              	HAL_ADC_AnalogWDGConfig:
 2806              	.LFB145:
1408:Drivers/STM32F4xx_HAL_Driver/Src/stm32f4xx_hal_adc.c **** #ifdef USE_FULL_ASSERT  
 2807              		.loc 1 1408 0
 2808              		.cfi_startproc
 2809              		@ args = 0, pretend = 0, frame = 0
 2810              		@ frame_needed = 0, uses_anonymous_args = 0
 2811              	.LVL169:
 2812 0000 70B5     		push	{r4, r5, r6, lr}
 2813              	.LCFI32:
 2814              		.cfi_def_cfa_offset 16
 2815              		.cfi_offset 4, -16
 2816              		.cfi_offset 5, -12
 2817              		.cfi_offset 6, -8
 2818              		.cfi_offset 14, -4
ARM GAS  C:\Users\n-is\AppData\Local\Temp\cc3jxhl4.s 			page 87


 2819 0002 0546     		mov	r5, r0
 2820 0004 0C46     		mov	r4, r1
 2821              	.LVL170:
1414:Drivers/STM32F4xx_HAL_Driver/Src/stm32f4xx_hal_adc.c ****   assert_param(IS_ADC_CHANNEL(AnalogWDGConfig->Channel));
 2822              		.loc 1 1414 0
 2823 0006 0B68     		ldr	r3, [r1]
 2824 0008 534A     		ldr	r2, .L274
 2825 000a 9342     		cmp	r3, r2
 2826 000c 12D0     		beq	.L248
1414:Drivers/STM32F4xx_HAL_Driver/Src/stm32f4xx_hal_adc.c ****   assert_param(IS_ADC_CHANNEL(AnalogWDGConfig->Channel));
 2827              		.loc 1 1414 0 is_stmt 0 discriminator 1
 2828 000e A2F58002 		sub	r2, r2, #4194304
 2829 0012 9342     		cmp	r3, r2
 2830 0014 0ED0     		beq	.L248
1414:Drivers/STM32F4xx_HAL_Driver/Src/stm32f4xx_hal_adc.c ****   assert_param(IS_ADC_CHANNEL(AnalogWDGConfig->Channel));
 2831              		.loc 1 1414 0 discriminator 2
 2832 0016 02F50002 		add	r2, r2, #8388608
 2833 001a 9342     		cmp	r3, r2
 2834 001c 0AD0     		beq	.L248
1414:Drivers/STM32F4xx_HAL_Driver/Src/stm32f4xx_hal_adc.c ****   assert_param(IS_ADC_CHANNEL(AnalogWDGConfig->Channel));
 2835              		.loc 1 1414 0 discriminator 3
 2836 001e B3F5000F 		cmp	r3, #8388608
 2837 0022 07D0     		beq	.L248
1414:Drivers/STM32F4xx_HAL_Driver/Src/stm32f4xx_hal_adc.c ****   assert_param(IS_ADC_CHANNEL(AnalogWDGConfig->Channel));
 2838              		.loc 1 1414 0 discriminator 4
 2839 0024 B3F5800F 		cmp	r3, #4194304
 2840 0028 04D0     		beq	.L248
1414:Drivers/STM32F4xx_HAL_Driver/Src/stm32f4xx_hal_adc.c ****   assert_param(IS_ADC_CHANNEL(AnalogWDGConfig->Channel));
 2841              		.loc 1 1414 0 discriminator 5
 2842 002a B3F5400F 		cmp	r3, #12582912
 2843 002e 01D0     		beq	.L248
1414:Drivers/STM32F4xx_HAL_Driver/Src/stm32f4xx_hal_adc.c ****   assert_param(IS_ADC_CHANNEL(AnalogWDGConfig->Channel));
 2844              		.loc 1 1414 0 discriminator 6
 2845 0030 002B     		cmp	r3, #0
 2846 0032 64D1     		bne	.L266
 2847              	.LVL171:
 2848              	.L248:
1415:Drivers/STM32F4xx_HAL_Driver/Src/stm32f4xx_hal_adc.c ****   assert_param(IS_FUNCTIONAL_STATE(AnalogWDGConfig->ITMode));
 2849              		.loc 1 1415 0 is_stmt 1
 2850 0034 E368     		ldr	r3, [r4, #12]
 2851 0036 122B     		cmp	r3, #18
 2852 0038 67D8     		bhi	.L267
 2853              	.L249:
1416:Drivers/STM32F4xx_HAL_Driver/Src/stm32f4xx_hal_adc.c **** 
 2854              		.loc 1 1416 0
 2855 003a 2369     		ldr	r3, [r4, #16]
 2856 003c 012B     		cmp	r3, #1
 2857 003e 6AD8     		bhi	.L268
 2858              	.L250:
1419:Drivers/STM32F4xx_HAL_Driver/Src/stm32f4xx_hal_adc.c ****   assert_param(IS_ADC_RANGE(tmp, AnalogWDGConfig->HighThreshold));
 2859              		.loc 1 1419 0
 2860 0040 2B68     		ldr	r3, [r5]
 2861 0042 5E68     		ldr	r6, [r3, #4]
 2862              	.LVL172:
1420:Drivers/STM32F4xx_HAL_Driver/Src/stm32f4xx_hal_adc.c ****   assert_param(IS_ADC_RANGE(tmp, AnalogWDGConfig->LowThreshold));
 2863              		.loc 1 1420 0
 2864 0044 16F04076 		ands	r6, r6, #50331648
ARM GAS  C:\Users\n-is\AppData\Local\Temp\cc3jxhl4.s 			page 88


 2865              	.LVL173:
 2866 0048 03D1     		bne	.L251
1420:Drivers/STM32F4xx_HAL_Driver/Src/stm32f4xx_hal_adc.c ****   assert_param(IS_ADC_RANGE(tmp, AnalogWDGConfig->LowThreshold));
 2867              		.loc 1 1420 0 is_stmt 0 discriminator 2
 2868 004a 6368     		ldr	r3, [r4, #4]
 2869 004c B3F5805F 		cmp	r3, #4096
 2870 0050 10D3     		bcc	.L252
 2871              	.L251:
1420:Drivers/STM32F4xx_HAL_Driver/Src/stm32f4xx_hal_adc.c ****   assert_param(IS_ADC_RANGE(tmp, AnalogWDGConfig->LowThreshold));
 2872              		.loc 1 1420 0 discriminator 3
 2873 0052 B6F1807F 		cmp	r6, #16777216
 2874 0056 64D0     		beq	.L269
 2875              	.L253:
1420:Drivers/STM32F4xx_HAL_Driver/Src/stm32f4xx_hal_adc.c ****   assert_param(IS_ADC_RANGE(tmp, AnalogWDGConfig->LowThreshold));
 2876              		.loc 1 1420 0 discriminator 6
 2877 0058 B6F1007F 		cmp	r6, #33554432
 2878 005c 66D0     		beq	.L270
 2879              	.L254:
1420:Drivers/STM32F4xx_HAL_Driver/Src/stm32f4xx_hal_adc.c ****   assert_param(IS_ADC_RANGE(tmp, AnalogWDGConfig->LowThreshold));
 2880              		.loc 1 1420 0 discriminator 9
 2881 005e B6F1407F 		cmp	r6, #50331648
 2882 0062 02D1     		bne	.L255
1420:Drivers/STM32F4xx_HAL_Driver/Src/stm32f4xx_hal_adc.c ****   assert_param(IS_ADC_RANGE(tmp, AnalogWDGConfig->LowThreshold));
 2883              		.loc 1 1420 0 discriminator 11
 2884 0064 6368     		ldr	r3, [r4, #4]
 2885 0066 3F2B     		cmp	r3, #63
 2886 0068 04D9     		bls	.L252
 2887              	.L255:
1420:Drivers/STM32F4xx_HAL_Driver/Src/stm32f4xx_hal_adc.c ****   assert_param(IS_ADC_RANGE(tmp, AnalogWDGConfig->LowThreshold));
 2888              		.loc 1 1420 0 discriminator 12
 2889 006a 40F28C51 		movw	r1, #1420
 2890 006e 3B48     		ldr	r0, .L274+4
 2891 0070 FFF7FEFF 		bl	assert_failed
 2892              	.LVL174:
 2893              	.L252:
1421:Drivers/STM32F4xx_HAL_Driver/Src/stm32f4xx_hal_adc.c **** #endif /* USE_FULL_ASSERT  */
 2894              		.loc 1 1421 0 is_stmt 1
 2895 0074 1EB9     		cbnz	r6, .L256
1421:Drivers/STM32F4xx_HAL_Driver/Src/stm32f4xx_hal_adc.c **** #endif /* USE_FULL_ASSERT  */
 2896              		.loc 1 1421 0 is_stmt 0 discriminator 2
 2897 0076 A368     		ldr	r3, [r4, #8]
 2898 0078 B3F5805F 		cmp	r3, #4096
 2899 007c 10D3     		bcc	.L257
 2900              	.L256:
1421:Drivers/STM32F4xx_HAL_Driver/Src/stm32f4xx_hal_adc.c **** #endif /* USE_FULL_ASSERT  */
 2901              		.loc 1 1421 0 discriminator 3
 2902 007e B6F1807F 		cmp	r6, #16777216
 2903 0082 57D0     		beq	.L271
 2904              	.L258:
1421:Drivers/STM32F4xx_HAL_Driver/Src/stm32f4xx_hal_adc.c **** #endif /* USE_FULL_ASSERT  */
 2905              		.loc 1 1421 0 discriminator 6
 2906 0084 B6F1007F 		cmp	r6, #33554432
 2907 0088 59D0     		beq	.L272
 2908              	.L259:
1421:Drivers/STM32F4xx_HAL_Driver/Src/stm32f4xx_hal_adc.c **** #endif /* USE_FULL_ASSERT  */
 2909              		.loc 1 1421 0 discriminator 9
 2910 008a B6F1407F 		cmp	r6, #50331648
ARM GAS  C:\Users\n-is\AppData\Local\Temp\cc3jxhl4.s 			page 89


 2911 008e 02D1     		bne	.L260
1421:Drivers/STM32F4xx_HAL_Driver/Src/stm32f4xx_hal_adc.c **** #endif /* USE_FULL_ASSERT  */
 2912              		.loc 1 1421 0 discriminator 11
 2913 0090 A368     		ldr	r3, [r4, #8]
 2914 0092 3F2B     		cmp	r3, #63
 2915 0094 04D9     		bls	.L257
 2916              	.L260:
1421:Drivers/STM32F4xx_HAL_Driver/Src/stm32f4xx_hal_adc.c **** #endif /* USE_FULL_ASSERT  */
 2917              		.loc 1 1421 0 discriminator 12
 2918 0096 40F28D51 		movw	r1, #1421
 2919 009a 3048     		ldr	r0, .L274+4
 2920 009c FFF7FEFF 		bl	assert_failed
 2921              	.LVL175:
 2922              	.L257:
1425:Drivers/STM32F4xx_HAL_Driver/Src/stm32f4xx_hal_adc.c ****   
 2923              		.loc 1 1425 0 is_stmt 1
 2924 00a0 95F83C30 		ldrb	r3, [r5, #60]	@ zero_extendqisi2
 2925 00a4 012B     		cmp	r3, #1
 2926 00a6 54D0     		beq	.L264
1425:Drivers/STM32F4xx_HAL_Driver/Src/stm32f4xx_hal_adc.c ****   
 2927              		.loc 1 1425 0 is_stmt 0 discriminator 2
 2928 00a8 0123     		movs	r3, #1
 2929 00aa 85F83C30 		strb	r3, [r5, #60]
1427:Drivers/STM32F4xx_HAL_Driver/Src/stm32f4xx_hal_adc.c ****   {
 2930              		.loc 1 1427 0 is_stmt 1 discriminator 2
 2931 00ae 2369     		ldr	r3, [r4, #16]
 2932 00b0 012B     		cmp	r3, #1
 2933 00b2 48D0     		beq	.L273
1435:Drivers/STM32F4xx_HAL_Driver/Src/stm32f4xx_hal_adc.c ****   }
 2934              		.loc 1 1435 0
 2935 00b4 2A68     		ldr	r2, [r5]
 2936 00b6 5368     		ldr	r3, [r2, #4]
 2937 00b8 23F04003 		bic	r3, r3, #64
 2938 00bc 5360     		str	r3, [r2, #4]
 2939              	.L263:
1439:Drivers/STM32F4xx_HAL_Driver/Src/stm32f4xx_hal_adc.c ****   
 2940              		.loc 1 1439 0
 2941 00be 2A68     		ldr	r2, [r5]
 2942 00c0 5368     		ldr	r3, [r2, #4]
 2943 00c2 23F44003 		bic	r3, r3, #12582912
 2944 00c6 23F40073 		bic	r3, r3, #512
 2945 00ca 5360     		str	r3, [r2, #4]
1442:Drivers/STM32F4xx_HAL_Driver/Src/stm32f4xx_hal_adc.c ****   
 2946              		.loc 1 1442 0
 2947 00cc 2A68     		ldr	r2, [r5]
 2948 00ce 5368     		ldr	r3, [r2, #4]
 2949 00d0 2168     		ldr	r1, [r4]
 2950 00d2 0B43     		orrs	r3, r3, r1
 2951 00d4 5360     		str	r3, [r2, #4]
1445:Drivers/STM32F4xx_HAL_Driver/Src/stm32f4xx_hal_adc.c ****   
 2952              		.loc 1 1445 0
 2953 00d6 2B68     		ldr	r3, [r5]
 2954 00d8 6268     		ldr	r2, [r4, #4]
 2955 00da 5A62     		str	r2, [r3, #36]
1448:Drivers/STM32F4xx_HAL_Driver/Src/stm32f4xx_hal_adc.c ****   
 2956              		.loc 1 1448 0
 2957 00dc 2B68     		ldr	r3, [r5]
ARM GAS  C:\Users\n-is\AppData\Local\Temp\cc3jxhl4.s 			page 90


 2958 00de A268     		ldr	r2, [r4, #8]
 2959 00e0 9A62     		str	r2, [r3, #40]
1451:Drivers/STM32F4xx_HAL_Driver/Src/stm32f4xx_hal_adc.c ****   
 2960              		.loc 1 1451 0
 2961 00e2 2A68     		ldr	r2, [r5]
 2962 00e4 5368     		ldr	r3, [r2, #4]
 2963 00e6 23F01F03 		bic	r3, r3, #31
 2964 00ea 5360     		str	r3, [r2, #4]
1454:Drivers/STM32F4xx_HAL_Driver/Src/stm32f4xx_hal_adc.c ****   
 2965              		.loc 1 1454 0
 2966 00ec 2A68     		ldr	r2, [r5]
 2967 00ee 5168     		ldr	r1, [r2, #4]
 2968 00f0 A389     		ldrh	r3, [r4, #12]
 2969 00f2 0B43     		orrs	r3, r3, r1
 2970 00f4 5360     		str	r3, [r2, #4]
1457:Drivers/STM32F4xx_HAL_Driver/Src/stm32f4xx_hal_adc.c ****   
 2971              		.loc 1 1457 0
 2972 00f6 0020     		movs	r0, #0
 2973 00f8 85F83C00 		strb	r0, [r5, #60]
 2974              	.L261:
1461:Drivers/STM32F4xx_HAL_Driver/Src/stm32f4xx_hal_adc.c **** 
 2975              		.loc 1 1461 0
 2976 00fc 70BD     		pop	{r4, r5, r6, pc}
 2977              	.LVL176:
 2978              	.L266:
1414:Drivers/STM32F4xx_HAL_Driver/Src/stm32f4xx_hal_adc.c ****   assert_param(IS_ADC_CHANNEL(AnalogWDGConfig->Channel));
 2979              		.loc 1 1414 0 discriminator 7
 2980 00fe 40F28651 		movw	r1, #1414
 2981              	.LVL177:
 2982 0102 1648     		ldr	r0, .L274+4
 2983              	.LVL178:
 2984 0104 FFF7FEFF 		bl	assert_failed
 2985              	.LVL179:
 2986 0108 94E7     		b	.L248
 2987              	.L267:
1415:Drivers/STM32F4xx_HAL_Driver/Src/stm32f4xx_hal_adc.c ****   assert_param(IS_FUNCTIONAL_STATE(AnalogWDGConfig->ITMode));
 2988              		.loc 1 1415 0 discriminator 1
 2989 010a 40F28751 		movw	r1, #1415
 2990 010e 1348     		ldr	r0, .L274+4
 2991 0110 FFF7FEFF 		bl	assert_failed
 2992              	.LVL180:
 2993 0114 91E7     		b	.L249
 2994              	.L268:
1416:Drivers/STM32F4xx_HAL_Driver/Src/stm32f4xx_hal_adc.c **** 
 2995              		.loc 1 1416 0 discriminator 1
 2996 0116 4FF4B161 		mov	r1, #1416
 2997 011a 1048     		ldr	r0, .L274+4
 2998 011c FFF7FEFF 		bl	assert_failed
 2999              	.LVL181:
 3000 0120 8EE7     		b	.L250
 3001              	.LVL182:
 3002              	.L269:
1420:Drivers/STM32F4xx_HAL_Driver/Src/stm32f4xx_hal_adc.c ****   assert_param(IS_ADC_RANGE(tmp, AnalogWDGConfig->LowThreshold));
 3003              		.loc 1 1420 0 discriminator 5
 3004 0122 6368     		ldr	r3, [r4, #4]
 3005 0124 B3F5806F 		cmp	r3, #1024
 3006 0128 A4D3     		bcc	.L252
ARM GAS  C:\Users\n-is\AppData\Local\Temp\cc3jxhl4.s 			page 91


 3007 012a 95E7     		b	.L253
 3008              	.L270:
1420:Drivers/STM32F4xx_HAL_Driver/Src/stm32f4xx_hal_adc.c ****   assert_param(IS_ADC_RANGE(tmp, AnalogWDGConfig->LowThreshold));
 3009              		.loc 1 1420 0 is_stmt 0 discriminator 8
 3010 012c 6368     		ldr	r3, [r4, #4]
 3011 012e FF2B     		cmp	r3, #255
 3012 0130 A0D9     		bls	.L252
 3013 0132 94E7     		b	.L254
 3014              	.L271:
1421:Drivers/STM32F4xx_HAL_Driver/Src/stm32f4xx_hal_adc.c **** #endif /* USE_FULL_ASSERT  */
 3015              		.loc 1 1421 0 is_stmt 1 discriminator 5
 3016 0134 A368     		ldr	r3, [r4, #8]
 3017 0136 B3F5806F 		cmp	r3, #1024
 3018 013a B1D3     		bcc	.L257
 3019 013c A2E7     		b	.L258
 3020              	.L272:
1421:Drivers/STM32F4xx_HAL_Driver/Src/stm32f4xx_hal_adc.c **** #endif /* USE_FULL_ASSERT  */
 3021              		.loc 1 1421 0 is_stmt 0 discriminator 8
 3022 013e A368     		ldr	r3, [r4, #8]
 3023 0140 FF2B     		cmp	r3, #255
 3024 0142 ADD9     		bls	.L257
 3025 0144 A1E7     		b	.L259
 3026              	.L273:
1430:Drivers/STM32F4xx_HAL_Driver/Src/stm32f4xx_hal_adc.c ****   }
 3027              		.loc 1 1430 0 is_stmt 1
 3028 0146 2A68     		ldr	r2, [r5]
 3029 0148 5368     		ldr	r3, [r2, #4]
 3030 014a 43F04003 		orr	r3, r3, #64
 3031 014e 5360     		str	r3, [r2, #4]
 3032 0150 B5E7     		b	.L263
 3033              	.L264:
1425:Drivers/STM32F4xx_HAL_Driver/Src/stm32f4xx_hal_adc.c ****   
 3034              		.loc 1 1425 0
 3035 0152 0220     		movs	r0, #2
 3036 0154 D2E7     		b	.L261
 3037              	.L275:
 3038 0156 00BF     		.align	2
 3039              	.L274:
 3040 0158 00028000 		.word	8389120
 3041 015c 00000000 		.word	.LC0
 3042              		.cfi_endproc
 3043              	.LFE145:
 3045              		.section	.text.HAL_ADC_GetState,"ax",%progbits
 3046              		.align	1
 3047              		.global	HAL_ADC_GetState
 3048              		.syntax unified
 3049              		.thumb
 3050              		.thumb_func
 3051              		.fpu fpv4-sp-d16
 3053              	HAL_ADC_GetState:
 3054              	.LFB146:
1490:Drivers/STM32F4xx_HAL_Driver/Src/stm32f4xx_hal_adc.c ****   /* Return ADC state */
 3055              		.loc 1 1490 0
 3056              		.cfi_startproc
 3057              		@ args = 0, pretend = 0, frame = 0
 3058              		@ frame_needed = 0, uses_anonymous_args = 0
 3059              		@ link register save eliminated.
ARM GAS  C:\Users\n-is\AppData\Local\Temp\cc3jxhl4.s 			page 92


 3060              	.LVL183:
1492:Drivers/STM32F4xx_HAL_Driver/Src/stm32f4xx_hal_adc.c **** }
 3061              		.loc 1 1492 0
 3062 0000 006C     		ldr	r0, [r0, #64]
 3063              	.LVL184:
1493:Drivers/STM32F4xx_HAL_Driver/Src/stm32f4xx_hal_adc.c **** 
 3064              		.loc 1 1493 0
 3065 0002 7047     		bx	lr
 3066              		.cfi_endproc
 3067              	.LFE146:
 3069              		.section	.text.HAL_ADC_GetError,"ax",%progbits
 3070              		.align	1
 3071              		.global	HAL_ADC_GetError
 3072              		.syntax unified
 3073              		.thumb
 3074              		.thumb_func
 3075              		.fpu fpv4-sp-d16
 3077              	HAL_ADC_GetError:
 3078              	.LFB147:
1502:Drivers/STM32F4xx_HAL_Driver/Src/stm32f4xx_hal_adc.c ****   return hadc->ErrorCode;
 3079              		.loc 1 1502 0
 3080              		.cfi_startproc
 3081              		@ args = 0, pretend = 0, frame = 0
 3082              		@ frame_needed = 0, uses_anonymous_args = 0
 3083              		@ link register save eliminated.
 3084              	.LVL185:
1503:Drivers/STM32F4xx_HAL_Driver/Src/stm32f4xx_hal_adc.c **** }
 3085              		.loc 1 1503 0
 3086 0000 406C     		ldr	r0, [r0, #68]
 3087              	.LVL186:
1504:Drivers/STM32F4xx_HAL_Driver/Src/stm32f4xx_hal_adc.c **** 
 3088              		.loc 1 1504 0
 3089 0002 7047     		bx	lr
 3090              		.cfi_endproc
 3091              	.LFE147:
 3093              		.section	.rodata.ADC_Init.str1.4,"aMS",%progbits,1
 3094              		.align	2
 3095              	.LC0:
 3096 0000 44726976 		.ascii	"Drivers/STM32F4xx_HAL_Driver/Src/stm32f4xx_hal_adc."
 3096      6572732F 
 3096      53544D33 
 3096      32463478 
 3096      785F4841 
 3097 0033 6300     		.ascii	"c\000"
 3098              		.text
 3099              	.Letext0:
 3100              		.file 2 "c:\\program files (x86)\\gnu tools arm embedded\\7 2018-q2-update\\arm-none-eabi\\include
 3101              		.file 3 "c:\\program files (x86)\\gnu tools arm embedded\\7 2018-q2-update\\arm-none-eabi\\include
 3102              		.file 4 "Drivers/CMSIS/Include/core_cm4.h"
 3103              		.file 5 "Drivers/CMSIS/Device/ST/STM32F4xx/Include/system_stm32f4xx.h"
 3104              		.file 6 "Drivers/CMSIS/Device/ST/STM32F4xx/Include/stm32f407xx.h"
 3105              		.file 7 "Drivers/CMSIS/Device/ST/STM32F4xx/Include/stm32f4xx.h"
 3106              		.file 8 "c:\\program files (x86)\\gnu tools arm embedded\\7 2018-q2-update\\arm-none-eabi\\include
 3107              		.file 9 "c:\\program files (x86)\\gnu tools arm embedded\\7 2018-q2-update\\arm-none-eabi\\include
 3108              		.file 10 "c:\\program files (x86)\\gnu tools arm embedded\\7 2018-q2-update\\lib\\gcc\\arm-none-ea
 3109              		.file 11 "c:\\program files (x86)\\gnu tools arm embedded\\7 2018-q2-update\\arm-none-eabi\\includ
 3110              		.file 12 "Drivers/STM32F4xx_HAL_Driver/Inc/stm32f4xx_hal_def.h"
ARM GAS  C:\Users\n-is\AppData\Local\Temp\cc3jxhl4.s 			page 93


 3111              		.file 13 "Drivers/STM32F4xx_HAL_Driver/Inc/stm32f4xx_hal_dma.h"
 3112              		.file 14 "Drivers/STM32F4xx_HAL_Driver/Inc/stm32f4xx_hal_adc.h"
 3113              		.file 15 "Core/Inc/stm32f4xx_hal_conf.h"
 3114              		.file 16 "Drivers/STM32F4xx_HAL_Driver/Inc/stm32f4xx_hal_adc_ex.h"
 3115              		.file 17 "Drivers/STM32F4xx_HAL_Driver/Inc/stm32f4xx_hal.h"
ARM GAS  C:\Users\n-is\AppData\Local\Temp\cc3jxhl4.s 			page 94


DEFINED SYMBOLS
                            *ABS*:00000000 stm32f4xx_hal_adc.c
C:\Users\n-is\AppData\Local\Temp\cc3jxhl4.s:18     .text.ADC_Init:00000000 $t
C:\Users\n-is\AppData\Local\Temp\cc3jxhl4.s:24     .text.ADC_Init:00000000 ADC_Init
C:\Users\n-is\AppData\Local\Temp\cc3jxhl4.s:218    .text.ADC_Init:00000140 $d
C:\Users\n-is\AppData\Local\Temp\cc3jxhl4.s:225    .text.HAL_ADC_MspInit:00000000 $t
C:\Users\n-is\AppData\Local\Temp\cc3jxhl4.s:232    .text.HAL_ADC_MspInit:00000000 HAL_ADC_MspInit
C:\Users\n-is\AppData\Local\Temp\cc3jxhl4.s:246    .text.HAL_ADC_Init:00000000 $t
C:\Users\n-is\AppData\Local\Temp\cc3jxhl4.s:253    .text.HAL_ADC_Init:00000000 HAL_ADC_Init
C:\Users\n-is\AppData\Local\Temp\cc3jxhl4.s:565    .text.HAL_ADC_Init:000001e0 $d
C:\Users\n-is\AppData\Local\Temp\cc3jxhl4.s:572    .text.HAL_ADC_MspDeInit:00000000 $t
C:\Users\n-is\AppData\Local\Temp\cc3jxhl4.s:579    .text.HAL_ADC_MspDeInit:00000000 HAL_ADC_MspDeInit
C:\Users\n-is\AppData\Local\Temp\cc3jxhl4.s:593    .text.HAL_ADC_DeInit:00000000 $t
C:\Users\n-is\AppData\Local\Temp\cc3jxhl4.s:600    .text.HAL_ADC_DeInit:00000000 HAL_ADC_DeInit
C:\Users\n-is\AppData\Local\Temp\cc3jxhl4.s:682    .text.HAL_ADC_DeInit:00000060 $d
C:\Users\n-is\AppData\Local\Temp\cc3jxhl4.s:688    .text.HAL_ADC_Start:00000000 $t
C:\Users\n-is\AppData\Local\Temp\cc3jxhl4.s:695    .text.HAL_ADC_Start:00000000 HAL_ADC_Start
C:\Users\n-is\AppData\Local\Temp\cc3jxhl4.s:897    .text.HAL_ADC_Start:00000120 $d
C:\Users\n-is\AppData\Local\Temp\cc3jxhl4.s:906    .text.HAL_ADC_Stop:00000000 $t
C:\Users\n-is\AppData\Local\Temp\cc3jxhl4.s:913    .text.HAL_ADC_Stop:00000000 HAL_ADC_Stop
C:\Users\n-is\AppData\Local\Temp\cc3jxhl4.s:984    .text.HAL_ADC_Stop:00000064 $d
C:\Users\n-is\AppData\Local\Temp\cc3jxhl4.s:990    .text.HAL_ADC_PollForConversion:00000000 $t
C:\Users\n-is\AppData\Local\Temp\cc3jxhl4.s:997    .text.HAL_ADC_PollForConversion:00000000 HAL_ADC_PollForConversion
C:\Users\n-is\AppData\Local\Temp\cc3jxhl4.s:1148   .text.HAL_ADC_PollForEvent:00000000 $t
C:\Users\n-is\AppData\Local\Temp\cc3jxhl4.s:1155   .text.HAL_ADC_PollForEvent:00000000 HAL_ADC_PollForEvent
C:\Users\n-is\AppData\Local\Temp\cc3jxhl4.s:1281   .text.HAL_ADC_PollForEvent:000000a4 $d
C:\Users\n-is\AppData\Local\Temp\cc3jxhl4.s:1287   .text.HAL_ADC_Start_IT:00000000 $t
C:\Users\n-is\AppData\Local\Temp\cc3jxhl4.s:1294   .text.HAL_ADC_Start_IT:00000000 HAL_ADC_Start_IT
C:\Users\n-is\AppData\Local\Temp\cc3jxhl4.s:1502   .text.HAL_ADC_Start_IT:00000130 $d
C:\Users\n-is\AppData\Local\Temp\cc3jxhl4.s:1511   .text.HAL_ADC_Stop_IT:00000000 $t
C:\Users\n-is\AppData\Local\Temp\cc3jxhl4.s:1518   .text.HAL_ADC_Stop_IT:00000000 HAL_ADC_Stop_IT
C:\Users\n-is\AppData\Local\Temp\cc3jxhl4.s:1594   .text.HAL_ADC_Stop_IT:00000070 $d
C:\Users\n-is\AppData\Local\Temp\cc3jxhl4.s:1600   .text.HAL_ADC_Start_DMA:00000000 $t
C:\Users\n-is\AppData\Local\Temp\cc3jxhl4.s:1607   .text.HAL_ADC_Start_DMA:00000000 HAL_ADC_Start_DMA
C:\Users\n-is\AppData\Local\Temp\cc3jxhl4.s:1845   .text.HAL_ADC_Start_DMA:0000015c $d
C:\Users\n-is\AppData\Local\Temp\cc3jxhl4.s:2014   .text.ADC_DMAConvCplt:00000000 ADC_DMAConvCplt
C:\Users\n-is\AppData\Local\Temp\cc3jxhl4.s:2122   .text.ADC_DMAHalfConvCplt:00000000 ADC_DMAHalfConvCplt
C:\Users\n-is\AppData\Local\Temp\cc3jxhl4.s:2483   .text.ADC_DMAError:00000000 ADC_DMAError
C:\Users\n-is\AppData\Local\Temp\cc3jxhl4.s:1857   .text.HAL_ADC_Stop_DMA:00000000 $t
C:\Users\n-is\AppData\Local\Temp\cc3jxhl4.s:1864   .text.HAL_ADC_Stop_DMA:00000000 HAL_ADC_Stop_DMA
C:\Users\n-is\AppData\Local\Temp\cc3jxhl4.s:1956   .text.HAL_ADC_Stop_DMA:00000080 $d
C:\Users\n-is\AppData\Local\Temp\cc3jxhl4.s:1962   .text.HAL_ADC_GetValue:00000000 $t
C:\Users\n-is\AppData\Local\Temp\cc3jxhl4.s:1969   .text.HAL_ADC_GetValue:00000000 HAL_ADC_GetValue
C:\Users\n-is\AppData\Local\Temp\cc3jxhl4.s:1987   .text.HAL_ADC_ConvCpltCallback:00000000 $t
C:\Users\n-is\AppData\Local\Temp\cc3jxhl4.s:1994   .text.HAL_ADC_ConvCpltCallback:00000000 HAL_ADC_ConvCpltCallback
C:\Users\n-is\AppData\Local\Temp\cc3jxhl4.s:2008   .text.ADC_DMAConvCplt:00000000 $t
C:\Users\n-is\AppData\Local\Temp\cc3jxhl4.s:2095   .text.HAL_ADC_ConvHalfCpltCallback:00000000 $t
C:\Users\n-is\AppData\Local\Temp\cc3jxhl4.s:2102   .text.HAL_ADC_ConvHalfCpltCallback:00000000 HAL_ADC_ConvHalfCpltCallback
C:\Users\n-is\AppData\Local\Temp\cc3jxhl4.s:2116   .text.ADC_DMAHalfConvCplt:00000000 $t
C:\Users\n-is\AppData\Local\Temp\cc3jxhl4.s:2146   .text.HAL_ADC_LevelOutOfWindowCallback:00000000 $t
C:\Users\n-is\AppData\Local\Temp\cc3jxhl4.s:2153   .text.HAL_ADC_LevelOutOfWindowCallback:00000000 HAL_ADC_LevelOutOfWindowCallback
C:\Users\n-is\AppData\Local\Temp\cc3jxhl4.s:2167   .text.HAL_ADC_ErrorCallback:00000000 $t
C:\Users\n-is\AppData\Local\Temp\cc3jxhl4.s:2174   .text.HAL_ADC_ErrorCallback:00000000 HAL_ADC_ErrorCallback
C:\Users\n-is\AppData\Local\Temp\cc3jxhl4.s:2188   .text.HAL_ADC_IRQHandler:00000000 $t
C:\Users\n-is\AppData\Local\Temp\cc3jxhl4.s:2195   .text.HAL_ADC_IRQHandler:00000000 HAL_ADC_IRQHandler
C:\Users\n-is\AppData\Local\Temp\cc3jxhl4.s:2472   .text.HAL_ADC_IRQHandler:0000018c $d
C:\Users\n-is\AppData\Local\Temp\cc3jxhl4.s:2477   .text.ADC_DMAError:00000000 $t
ARM GAS  C:\Users\n-is\AppData\Local\Temp\cc3jxhl4.s 			page 95


C:\Users\n-is\AppData\Local\Temp\cc3jxhl4.s:2514   .text.HAL_ADC_ConfigChannel:00000000 $t
C:\Users\n-is\AppData\Local\Temp\cc3jxhl4.s:2521   .text.HAL_ADC_ConfigChannel:00000000 HAL_ADC_ConfigChannel
C:\Users\n-is\AppData\Local\Temp\cc3jxhl4.s:2790   .text.HAL_ADC_ConfigChannel:000001bc $d
C:\Users\n-is\AppData\Local\Temp\cc3jxhl4.s:2798   .text.HAL_ADC_AnalogWDGConfig:00000000 $t
C:\Users\n-is\AppData\Local\Temp\cc3jxhl4.s:2805   .text.HAL_ADC_AnalogWDGConfig:00000000 HAL_ADC_AnalogWDGConfig
C:\Users\n-is\AppData\Local\Temp\cc3jxhl4.s:3040   .text.HAL_ADC_AnalogWDGConfig:00000158 $d
C:\Users\n-is\AppData\Local\Temp\cc3jxhl4.s:3046   .text.HAL_ADC_GetState:00000000 $t
C:\Users\n-is\AppData\Local\Temp\cc3jxhl4.s:3053   .text.HAL_ADC_GetState:00000000 HAL_ADC_GetState
C:\Users\n-is\AppData\Local\Temp\cc3jxhl4.s:3070   .text.HAL_ADC_GetError:00000000 $t
C:\Users\n-is\AppData\Local\Temp\cc3jxhl4.s:3077   .text.HAL_ADC_GetError:00000000 HAL_ADC_GetError
C:\Users\n-is\AppData\Local\Temp\cc3jxhl4.s:3094   .rodata.ADC_Init.str1.4:00000000 $d

UNDEFINED SYMBOLS
assert_failed
SystemCoreClock
HAL_GetTick
HAL_DMA_Start_IT
HAL_DMA_Abort
HAL_ADCEx_InjectedConvCpltCallback
