ARM GAS  C:\Users\n-is\AppData\Local\Temp\ccbtDXWy.s 			page 1


   1              		.cpu cortex-m4
   2              		.eabi_attribute 27, 1
   3              		.eabi_attribute 28, 1
   4              		.eabi_attribute 20, 1
   5              		.eabi_attribute 21, 1
   6              		.eabi_attribute 23, 3
   7              		.eabi_attribute 24, 1
   8              		.eabi_attribute 25, 1
   9              		.eabi_attribute 26, 1
  10              		.eabi_attribute 30, 1
  11              		.eabi_attribute 34, 1
  12              		.eabi_attribute 18, 4
  13              		.file	"stm32f4xx_hal_rcc.c"
  14              		.text
  15              	.Ltext0:
  16              		.cfi_sections	.debug_frame
  17              		.section	.text.HAL_RCC_DeInit,"ax",%progbits
  18              		.align	1
  19              		.weak	HAL_RCC_DeInit
  20              		.syntax unified
  21              		.thumb
  22              		.thumb_func
  23              		.fpu fpv4-sp-d16
  25              	HAL_RCC_DeInit:
  26              	.LFB126:
  27              		.file 1 "Drivers/STM32F4xx_HAL_Driver/Src/stm32f4xx_hal_rcc.c"
   1:Drivers/STM32F4xx_HAL_Driver/Src/stm32f4xx_hal_rcc.c **** /**
   2:Drivers/STM32F4xx_HAL_Driver/Src/stm32f4xx_hal_rcc.c ****   ******************************************************************************
   3:Drivers/STM32F4xx_HAL_Driver/Src/stm32f4xx_hal_rcc.c ****   * @file    stm32f4xx_hal_rcc.c
   4:Drivers/STM32F4xx_HAL_Driver/Src/stm32f4xx_hal_rcc.c ****   * @author  MCD Application Team
   5:Drivers/STM32F4xx_HAL_Driver/Src/stm32f4xx_hal_rcc.c ****   * @brief   RCC HAL module driver.
   6:Drivers/STM32F4xx_HAL_Driver/Src/stm32f4xx_hal_rcc.c ****   *          This file provides firmware functions to manage the following
   7:Drivers/STM32F4xx_HAL_Driver/Src/stm32f4xx_hal_rcc.c ****   *          functionalities of the Reset and Clock Control (RCC) peripheral:
   8:Drivers/STM32F4xx_HAL_Driver/Src/stm32f4xx_hal_rcc.c ****   *           + Initialization and de-initialization functions
   9:Drivers/STM32F4xx_HAL_Driver/Src/stm32f4xx_hal_rcc.c ****   *           + Peripheral Control functions
  10:Drivers/STM32F4xx_HAL_Driver/Src/stm32f4xx_hal_rcc.c ****   *
  11:Drivers/STM32F4xx_HAL_Driver/Src/stm32f4xx_hal_rcc.c ****   @verbatim
  12:Drivers/STM32F4xx_HAL_Driver/Src/stm32f4xx_hal_rcc.c ****   ==============================================================================
  13:Drivers/STM32F4xx_HAL_Driver/Src/stm32f4xx_hal_rcc.c ****                       ##### RCC specific features #####
  14:Drivers/STM32F4xx_HAL_Driver/Src/stm32f4xx_hal_rcc.c ****   ==============================================================================
  15:Drivers/STM32F4xx_HAL_Driver/Src/stm32f4xx_hal_rcc.c ****     [..]
  16:Drivers/STM32F4xx_HAL_Driver/Src/stm32f4xx_hal_rcc.c ****       After reset the device is running from Internal High Speed oscillator
  17:Drivers/STM32F4xx_HAL_Driver/Src/stm32f4xx_hal_rcc.c ****       (HSI 16MHz) with Flash 0 wait state, Flash prefetch buffer, D-Cache
  18:Drivers/STM32F4xx_HAL_Driver/Src/stm32f4xx_hal_rcc.c ****       and I-Cache are disabled, and all peripherals are off except internal
  19:Drivers/STM32F4xx_HAL_Driver/Src/stm32f4xx_hal_rcc.c ****       SRAM, Flash and JTAG.
  20:Drivers/STM32F4xx_HAL_Driver/Src/stm32f4xx_hal_rcc.c ****       (+) There is no prescaler on High speed (AHB) and Low speed (APB) busses;
  21:Drivers/STM32F4xx_HAL_Driver/Src/stm32f4xx_hal_rcc.c ****           all peripherals mapped on these busses are running at HSI speed.
  22:Drivers/STM32F4xx_HAL_Driver/Src/stm32f4xx_hal_rcc.c ****       (+) The clock for all peripherals is switched off, except the SRAM and FLASH.
  23:Drivers/STM32F4xx_HAL_Driver/Src/stm32f4xx_hal_rcc.c ****       (+) All GPIOs are in input floating state, except the JTAG pins which
  24:Drivers/STM32F4xx_HAL_Driver/Src/stm32f4xx_hal_rcc.c ****           are assigned to be used for debug purpose.
  25:Drivers/STM32F4xx_HAL_Driver/Src/stm32f4xx_hal_rcc.c **** 
  26:Drivers/STM32F4xx_HAL_Driver/Src/stm32f4xx_hal_rcc.c ****     [..]
  27:Drivers/STM32F4xx_HAL_Driver/Src/stm32f4xx_hal_rcc.c ****       Once the device started from reset, the user application has to:
  28:Drivers/STM32F4xx_HAL_Driver/Src/stm32f4xx_hal_rcc.c ****       (+) Configure the clock source to be used to drive the System clock
  29:Drivers/STM32F4xx_HAL_Driver/Src/stm32f4xx_hal_rcc.c ****           (if the application needs higher frequency/performance)
  30:Drivers/STM32F4xx_HAL_Driver/Src/stm32f4xx_hal_rcc.c ****       (+) Configure the System clock frequency and Flash settings
  31:Drivers/STM32F4xx_HAL_Driver/Src/stm32f4xx_hal_rcc.c ****       (+) Configure the AHB and APB busses prescalers
ARM GAS  C:\Users\n-is\AppData\Local\Temp\ccbtDXWy.s 			page 2


  32:Drivers/STM32F4xx_HAL_Driver/Src/stm32f4xx_hal_rcc.c ****       (+) Enable the clock for the peripheral(s) to be used
  33:Drivers/STM32F4xx_HAL_Driver/Src/stm32f4xx_hal_rcc.c ****       (+) Configure the clock source(s) for peripherals which clocks are not
  34:Drivers/STM32F4xx_HAL_Driver/Src/stm32f4xx_hal_rcc.c ****           derived from the System clock (I2S, RTC, ADC, USB OTG FS/SDIO/RNG)
  35:Drivers/STM32F4xx_HAL_Driver/Src/stm32f4xx_hal_rcc.c **** 
  36:Drivers/STM32F4xx_HAL_Driver/Src/stm32f4xx_hal_rcc.c ****                       ##### RCC Limitations #####
  37:Drivers/STM32F4xx_HAL_Driver/Src/stm32f4xx_hal_rcc.c ****   ==============================================================================
  38:Drivers/STM32F4xx_HAL_Driver/Src/stm32f4xx_hal_rcc.c ****     [..]
  39:Drivers/STM32F4xx_HAL_Driver/Src/stm32f4xx_hal_rcc.c ****       A delay between an RCC peripheral clock enable and the effective peripheral
  40:Drivers/STM32F4xx_HAL_Driver/Src/stm32f4xx_hal_rcc.c ****       enabling should be taken into account in order to manage the peripheral read/write
  41:Drivers/STM32F4xx_HAL_Driver/Src/stm32f4xx_hal_rcc.c ****       from/to registers.
  42:Drivers/STM32F4xx_HAL_Driver/Src/stm32f4xx_hal_rcc.c ****       (+) This delay depends on the peripheral mapping.
  43:Drivers/STM32F4xx_HAL_Driver/Src/stm32f4xx_hal_rcc.c ****       (+) If peripheral is mapped on AHB: the delay is 2 AHB clock cycle
  44:Drivers/STM32F4xx_HAL_Driver/Src/stm32f4xx_hal_rcc.c ****           after the clock enable bit is set on the hardware register
  45:Drivers/STM32F4xx_HAL_Driver/Src/stm32f4xx_hal_rcc.c ****       (+) If peripheral is mapped on APB: the delay is 2 APB clock cycle
  46:Drivers/STM32F4xx_HAL_Driver/Src/stm32f4xx_hal_rcc.c ****           after the clock enable bit is set on the hardware register
  47:Drivers/STM32F4xx_HAL_Driver/Src/stm32f4xx_hal_rcc.c **** 
  48:Drivers/STM32F4xx_HAL_Driver/Src/stm32f4xx_hal_rcc.c ****     [..]
  49:Drivers/STM32F4xx_HAL_Driver/Src/stm32f4xx_hal_rcc.c ****       Implemented Workaround:
  50:Drivers/STM32F4xx_HAL_Driver/Src/stm32f4xx_hal_rcc.c ****       (+) For AHB & APB peripherals, a dummy read to the peripheral register has been
  51:Drivers/STM32F4xx_HAL_Driver/Src/stm32f4xx_hal_rcc.c ****           inserted in each __HAL_RCC_PPP_CLK_ENABLE() macro.
  52:Drivers/STM32F4xx_HAL_Driver/Src/stm32f4xx_hal_rcc.c **** 
  53:Drivers/STM32F4xx_HAL_Driver/Src/stm32f4xx_hal_rcc.c ****   @endverbatim
  54:Drivers/STM32F4xx_HAL_Driver/Src/stm32f4xx_hal_rcc.c ****   ******************************************************************************
  55:Drivers/STM32F4xx_HAL_Driver/Src/stm32f4xx_hal_rcc.c ****   * @attention
  56:Drivers/STM32F4xx_HAL_Driver/Src/stm32f4xx_hal_rcc.c ****   *
  57:Drivers/STM32F4xx_HAL_Driver/Src/stm32f4xx_hal_rcc.c ****   * <h2><center>&copy; COPYRIGHT(c) 2017 STMicroelectronics</center></h2>
  58:Drivers/STM32F4xx_HAL_Driver/Src/stm32f4xx_hal_rcc.c ****   *
  59:Drivers/STM32F4xx_HAL_Driver/Src/stm32f4xx_hal_rcc.c ****   * Redistribution and use in source and binary forms, with or without modification,
  60:Drivers/STM32F4xx_HAL_Driver/Src/stm32f4xx_hal_rcc.c ****   * are permitted provided that the following conditions are met:
  61:Drivers/STM32F4xx_HAL_Driver/Src/stm32f4xx_hal_rcc.c ****   *   1. Redistributions of source code must retain the above copyright notice,
  62:Drivers/STM32F4xx_HAL_Driver/Src/stm32f4xx_hal_rcc.c ****   *      this list of conditions and the following disclaimer.
  63:Drivers/STM32F4xx_HAL_Driver/Src/stm32f4xx_hal_rcc.c ****   *   2. Redistributions in binary form must reproduce the above copyright notice,
  64:Drivers/STM32F4xx_HAL_Driver/Src/stm32f4xx_hal_rcc.c ****   *      this list of conditions and the following disclaimer in the documentation
  65:Drivers/STM32F4xx_HAL_Driver/Src/stm32f4xx_hal_rcc.c ****   *      and/or other materials provided with the distribution.
  66:Drivers/STM32F4xx_HAL_Driver/Src/stm32f4xx_hal_rcc.c ****   *   3. Neither the name of STMicroelectronics nor the names of its contributors
  67:Drivers/STM32F4xx_HAL_Driver/Src/stm32f4xx_hal_rcc.c ****   *      may be used to endorse or promote products derived from this software
  68:Drivers/STM32F4xx_HAL_Driver/Src/stm32f4xx_hal_rcc.c ****   *      without specific prior written permission.
  69:Drivers/STM32F4xx_HAL_Driver/Src/stm32f4xx_hal_rcc.c ****   *
  70:Drivers/STM32F4xx_HAL_Driver/Src/stm32f4xx_hal_rcc.c ****   * THIS SOFTWARE IS PROVIDED BY THE COPYRIGHT HOLDERS AND CONTRIBUTORS "AS IS"
  71:Drivers/STM32F4xx_HAL_Driver/Src/stm32f4xx_hal_rcc.c ****   * AND ANY EXPRESS OR IMPLIED WARRANTIES, INCLUDING, BUT NOT LIMITED TO, THE
  72:Drivers/STM32F4xx_HAL_Driver/Src/stm32f4xx_hal_rcc.c ****   * IMPLIED WARRANTIES OF MERCHANTABILITY AND FITNESS FOR A PARTICULAR PURPOSE ARE
  73:Drivers/STM32F4xx_HAL_Driver/Src/stm32f4xx_hal_rcc.c ****   * DISCLAIMED. IN NO EVENT SHALL THE COPYRIGHT HOLDER OR CONTRIBUTORS BE LIABLE
  74:Drivers/STM32F4xx_HAL_Driver/Src/stm32f4xx_hal_rcc.c ****   * FOR ANY DIRECT, INDIRECT, INCIDENTAL, SPECIAL, EXEMPLARY, OR CONSEQUENTIAL
  75:Drivers/STM32F4xx_HAL_Driver/Src/stm32f4xx_hal_rcc.c ****   * DAMAGES (INCLUDING, BUT NOT LIMITED TO, PROCUREMENT OF SUBSTITUTE GOODS OR
  76:Drivers/STM32F4xx_HAL_Driver/Src/stm32f4xx_hal_rcc.c ****   * SERVICES; LOSS OF USE, DATA, OR PROFITS; OR BUSINESS INTERRUPTION) HOWEVER
  77:Drivers/STM32F4xx_HAL_Driver/Src/stm32f4xx_hal_rcc.c ****   * CAUSED AND ON ANY THEORY OF LIABILITY, WHETHER IN CONTRACT, STRICT LIABILITY,
  78:Drivers/STM32F4xx_HAL_Driver/Src/stm32f4xx_hal_rcc.c ****   * OR TORT (INCLUDING NEGLIGENCE OR OTHERWISE) ARISING IN ANY WAY OUT OF THE USE
  79:Drivers/STM32F4xx_HAL_Driver/Src/stm32f4xx_hal_rcc.c ****   * OF THIS SOFTWARE, EVEN IF ADVISED OF THE POSSIBILITY OF SUCH DAMAGE.
  80:Drivers/STM32F4xx_HAL_Driver/Src/stm32f4xx_hal_rcc.c ****   *
  81:Drivers/STM32F4xx_HAL_Driver/Src/stm32f4xx_hal_rcc.c ****   ******************************************************************************
  82:Drivers/STM32F4xx_HAL_Driver/Src/stm32f4xx_hal_rcc.c ****   */
  83:Drivers/STM32F4xx_HAL_Driver/Src/stm32f4xx_hal_rcc.c **** 
  84:Drivers/STM32F4xx_HAL_Driver/Src/stm32f4xx_hal_rcc.c **** /* Includes ------------------------------------------------------------------*/
  85:Drivers/STM32F4xx_HAL_Driver/Src/stm32f4xx_hal_rcc.c **** #include "stm32f4xx_hal.h"
  86:Drivers/STM32F4xx_HAL_Driver/Src/stm32f4xx_hal_rcc.c **** 
  87:Drivers/STM32F4xx_HAL_Driver/Src/stm32f4xx_hal_rcc.c **** /** @addtogroup STM32F4xx_HAL_Driver
  88:Drivers/STM32F4xx_HAL_Driver/Src/stm32f4xx_hal_rcc.c ****   * @{
ARM GAS  C:\Users\n-is\AppData\Local\Temp\ccbtDXWy.s 			page 3


  89:Drivers/STM32F4xx_HAL_Driver/Src/stm32f4xx_hal_rcc.c ****   */
  90:Drivers/STM32F4xx_HAL_Driver/Src/stm32f4xx_hal_rcc.c **** 
  91:Drivers/STM32F4xx_HAL_Driver/Src/stm32f4xx_hal_rcc.c **** /** @defgroup RCC RCC
  92:Drivers/STM32F4xx_HAL_Driver/Src/stm32f4xx_hal_rcc.c ****   * @brief RCC HAL module driver
  93:Drivers/STM32F4xx_HAL_Driver/Src/stm32f4xx_hal_rcc.c ****   * @{
  94:Drivers/STM32F4xx_HAL_Driver/Src/stm32f4xx_hal_rcc.c ****   */
  95:Drivers/STM32F4xx_HAL_Driver/Src/stm32f4xx_hal_rcc.c **** 
  96:Drivers/STM32F4xx_HAL_Driver/Src/stm32f4xx_hal_rcc.c **** #ifdef HAL_RCC_MODULE_ENABLED
  97:Drivers/STM32F4xx_HAL_Driver/Src/stm32f4xx_hal_rcc.c **** 
  98:Drivers/STM32F4xx_HAL_Driver/Src/stm32f4xx_hal_rcc.c **** /* Private typedef -----------------------------------------------------------*/
  99:Drivers/STM32F4xx_HAL_Driver/Src/stm32f4xx_hal_rcc.c **** /* Private define ------------------------------------------------------------*/
 100:Drivers/STM32F4xx_HAL_Driver/Src/stm32f4xx_hal_rcc.c **** /** @addtogroup RCC_Private_Constants
 101:Drivers/STM32F4xx_HAL_Driver/Src/stm32f4xx_hal_rcc.c ****   * @{
 102:Drivers/STM32F4xx_HAL_Driver/Src/stm32f4xx_hal_rcc.c ****   */
 103:Drivers/STM32F4xx_HAL_Driver/Src/stm32f4xx_hal_rcc.c **** 
 104:Drivers/STM32F4xx_HAL_Driver/Src/stm32f4xx_hal_rcc.c **** /* Private macro -------------------------------------------------------------*/
 105:Drivers/STM32F4xx_HAL_Driver/Src/stm32f4xx_hal_rcc.c **** #define __MCO1_CLK_ENABLE()   __HAL_RCC_GPIOA_CLK_ENABLE()
 106:Drivers/STM32F4xx_HAL_Driver/Src/stm32f4xx_hal_rcc.c **** #define MCO1_GPIO_PORT        GPIOA
 107:Drivers/STM32F4xx_HAL_Driver/Src/stm32f4xx_hal_rcc.c **** #define MCO1_PIN              GPIO_PIN_8
 108:Drivers/STM32F4xx_HAL_Driver/Src/stm32f4xx_hal_rcc.c **** 
 109:Drivers/STM32F4xx_HAL_Driver/Src/stm32f4xx_hal_rcc.c **** #define __MCO2_CLK_ENABLE()   __HAL_RCC_GPIOC_CLK_ENABLE()
 110:Drivers/STM32F4xx_HAL_Driver/Src/stm32f4xx_hal_rcc.c **** #define MCO2_GPIO_PORT         GPIOC
 111:Drivers/STM32F4xx_HAL_Driver/Src/stm32f4xx_hal_rcc.c **** #define MCO2_PIN               GPIO_PIN_9
 112:Drivers/STM32F4xx_HAL_Driver/Src/stm32f4xx_hal_rcc.c **** /**
 113:Drivers/STM32F4xx_HAL_Driver/Src/stm32f4xx_hal_rcc.c ****   * @}
 114:Drivers/STM32F4xx_HAL_Driver/Src/stm32f4xx_hal_rcc.c ****   */
 115:Drivers/STM32F4xx_HAL_Driver/Src/stm32f4xx_hal_rcc.c **** 
 116:Drivers/STM32F4xx_HAL_Driver/Src/stm32f4xx_hal_rcc.c **** /* Private variables ---------------------------------------------------------*/
 117:Drivers/STM32F4xx_HAL_Driver/Src/stm32f4xx_hal_rcc.c **** /** @defgroup RCC_Private_Variables RCC Private Variables
 118:Drivers/STM32F4xx_HAL_Driver/Src/stm32f4xx_hal_rcc.c ****   * @{
 119:Drivers/STM32F4xx_HAL_Driver/Src/stm32f4xx_hal_rcc.c ****   */
 120:Drivers/STM32F4xx_HAL_Driver/Src/stm32f4xx_hal_rcc.c **** /**
 121:Drivers/STM32F4xx_HAL_Driver/Src/stm32f4xx_hal_rcc.c ****   * @}
 122:Drivers/STM32F4xx_HAL_Driver/Src/stm32f4xx_hal_rcc.c ****   */
 123:Drivers/STM32F4xx_HAL_Driver/Src/stm32f4xx_hal_rcc.c **** /* Private function prototypes -----------------------------------------------*/
 124:Drivers/STM32F4xx_HAL_Driver/Src/stm32f4xx_hal_rcc.c **** /* Private functions ---------------------------------------------------------*/
 125:Drivers/STM32F4xx_HAL_Driver/Src/stm32f4xx_hal_rcc.c **** 
 126:Drivers/STM32F4xx_HAL_Driver/Src/stm32f4xx_hal_rcc.c **** /** @defgroup RCC_Exported_Functions RCC Exported Functions
 127:Drivers/STM32F4xx_HAL_Driver/Src/stm32f4xx_hal_rcc.c ****   *  @{
 128:Drivers/STM32F4xx_HAL_Driver/Src/stm32f4xx_hal_rcc.c ****   */
 129:Drivers/STM32F4xx_HAL_Driver/Src/stm32f4xx_hal_rcc.c **** 
 130:Drivers/STM32F4xx_HAL_Driver/Src/stm32f4xx_hal_rcc.c **** /** @defgroup RCC_Exported_Functions_Group1 Initialization and de-initialization functions
 131:Drivers/STM32F4xx_HAL_Driver/Src/stm32f4xx_hal_rcc.c ****  *  @brief    Initialization and Configuration functions
 132:Drivers/STM32F4xx_HAL_Driver/Src/stm32f4xx_hal_rcc.c ****  *
 133:Drivers/STM32F4xx_HAL_Driver/Src/stm32f4xx_hal_rcc.c **** @verbatim
 134:Drivers/STM32F4xx_HAL_Driver/Src/stm32f4xx_hal_rcc.c ****  ===============================================================================
 135:Drivers/STM32F4xx_HAL_Driver/Src/stm32f4xx_hal_rcc.c ****            ##### Initialization and de-initialization functions #####
 136:Drivers/STM32F4xx_HAL_Driver/Src/stm32f4xx_hal_rcc.c ****  ===============================================================================
 137:Drivers/STM32F4xx_HAL_Driver/Src/stm32f4xx_hal_rcc.c ****     [..]
 138:Drivers/STM32F4xx_HAL_Driver/Src/stm32f4xx_hal_rcc.c ****       This section provides functions allowing to configure the internal/external oscillators
 139:Drivers/STM32F4xx_HAL_Driver/Src/stm32f4xx_hal_rcc.c ****       (HSE, HSI, LSE, LSI, PLL, CSS and MCO) and the System busses clocks (SYSCLK, AHB, APB1
 140:Drivers/STM32F4xx_HAL_Driver/Src/stm32f4xx_hal_rcc.c ****        and APB2).
 141:Drivers/STM32F4xx_HAL_Driver/Src/stm32f4xx_hal_rcc.c **** 
 142:Drivers/STM32F4xx_HAL_Driver/Src/stm32f4xx_hal_rcc.c ****     [..] Internal/external clock and PLL configuration
 143:Drivers/STM32F4xx_HAL_Driver/Src/stm32f4xx_hal_rcc.c ****          (#) HSI (high-speed internal), 16 MHz factory-trimmed RC used directly or through
 144:Drivers/STM32F4xx_HAL_Driver/Src/stm32f4xx_hal_rcc.c ****              the PLL as System clock source.
 145:Drivers/STM32F4xx_HAL_Driver/Src/stm32f4xx_hal_rcc.c **** 
ARM GAS  C:\Users\n-is\AppData\Local\Temp\ccbtDXWy.s 			page 4


 146:Drivers/STM32F4xx_HAL_Driver/Src/stm32f4xx_hal_rcc.c ****          (#) LSI (low-speed internal), 32 KHz low consumption RC used as IWDG and/or RTC
 147:Drivers/STM32F4xx_HAL_Driver/Src/stm32f4xx_hal_rcc.c ****              clock source.
 148:Drivers/STM32F4xx_HAL_Driver/Src/stm32f4xx_hal_rcc.c **** 
 149:Drivers/STM32F4xx_HAL_Driver/Src/stm32f4xx_hal_rcc.c ****          (#) HSE (high-speed external), 4 to 26 MHz crystal oscillator used directly or
 150:Drivers/STM32F4xx_HAL_Driver/Src/stm32f4xx_hal_rcc.c ****              through the PLL as System clock source. Can be used also as RTC clock source.
 151:Drivers/STM32F4xx_HAL_Driver/Src/stm32f4xx_hal_rcc.c **** 
 152:Drivers/STM32F4xx_HAL_Driver/Src/stm32f4xx_hal_rcc.c ****          (#) LSE (low-speed external), 32 KHz oscillator used as RTC clock source.
 153:Drivers/STM32F4xx_HAL_Driver/Src/stm32f4xx_hal_rcc.c **** 
 154:Drivers/STM32F4xx_HAL_Driver/Src/stm32f4xx_hal_rcc.c ****          (#) PLL (clocked by HSI or HSE), featuring two different output clocks:
 155:Drivers/STM32F4xx_HAL_Driver/Src/stm32f4xx_hal_rcc.c ****            (++) The first output is used to generate the high speed system clock (up to 168 MHz)
 156:Drivers/STM32F4xx_HAL_Driver/Src/stm32f4xx_hal_rcc.c ****            (++) The second output is used to generate the clock for the USB OTG FS (48 MHz),
 157:Drivers/STM32F4xx_HAL_Driver/Src/stm32f4xx_hal_rcc.c ****                 the random analog generator (<=48 MHz) and the SDIO (<= 48 MHz).
 158:Drivers/STM32F4xx_HAL_Driver/Src/stm32f4xx_hal_rcc.c **** 
 159:Drivers/STM32F4xx_HAL_Driver/Src/stm32f4xx_hal_rcc.c ****          (#) CSS (Clock security system), once enable using the macro __HAL_RCC_CSS_ENABLE()
 160:Drivers/STM32F4xx_HAL_Driver/Src/stm32f4xx_hal_rcc.c ****              and if a HSE clock failure occurs(HSE used directly or through PLL as System
 161:Drivers/STM32F4xx_HAL_Driver/Src/stm32f4xx_hal_rcc.c ****              clock source), the System clocks automatically switched to HSI and an interrupt
 162:Drivers/STM32F4xx_HAL_Driver/Src/stm32f4xx_hal_rcc.c ****              is generated if enabled. The interrupt is linked to the Cortex-M4 NMI
 163:Drivers/STM32F4xx_HAL_Driver/Src/stm32f4xx_hal_rcc.c ****              (Non-Maskable Interrupt) exception vector.
 164:Drivers/STM32F4xx_HAL_Driver/Src/stm32f4xx_hal_rcc.c **** 
 165:Drivers/STM32F4xx_HAL_Driver/Src/stm32f4xx_hal_rcc.c ****          (#) MCO1 (microcontroller clock output), used to output HSI, LSE, HSE or PLL
 166:Drivers/STM32F4xx_HAL_Driver/Src/stm32f4xx_hal_rcc.c ****              clock (through a configurable prescaler) on PA8 pin.
 167:Drivers/STM32F4xx_HAL_Driver/Src/stm32f4xx_hal_rcc.c **** 
 168:Drivers/STM32F4xx_HAL_Driver/Src/stm32f4xx_hal_rcc.c ****          (#) MCO2 (microcontroller clock output), used to output HSE, PLL, SYSCLK or PLLI2S
 169:Drivers/STM32F4xx_HAL_Driver/Src/stm32f4xx_hal_rcc.c ****              clock (through a configurable prescaler) on PC9 pin.
 170:Drivers/STM32F4xx_HAL_Driver/Src/stm32f4xx_hal_rcc.c **** 
 171:Drivers/STM32F4xx_HAL_Driver/Src/stm32f4xx_hal_rcc.c ****     [..] System, AHB and APB busses clocks configuration
 172:Drivers/STM32F4xx_HAL_Driver/Src/stm32f4xx_hal_rcc.c ****          (#) Several clock sources can be used to drive the System clock (SYSCLK): HSI,
 173:Drivers/STM32F4xx_HAL_Driver/Src/stm32f4xx_hal_rcc.c ****              HSE and PLL.
 174:Drivers/STM32F4xx_HAL_Driver/Src/stm32f4xx_hal_rcc.c ****              The AHB clock (HCLK) is derived from System clock through configurable
 175:Drivers/STM32F4xx_HAL_Driver/Src/stm32f4xx_hal_rcc.c ****              prescaler and used to clock the CPU, memory and peripherals mapped
 176:Drivers/STM32F4xx_HAL_Driver/Src/stm32f4xx_hal_rcc.c ****              on AHB bus (DMA, GPIO...). APB1 (PCLK1) and APB2 (PCLK2) clocks are derived
 177:Drivers/STM32F4xx_HAL_Driver/Src/stm32f4xx_hal_rcc.c ****              from AHB clock through configurable prescalers and used to clock
 178:Drivers/STM32F4xx_HAL_Driver/Src/stm32f4xx_hal_rcc.c ****              the peripherals mapped on these busses. You can use
 179:Drivers/STM32F4xx_HAL_Driver/Src/stm32f4xx_hal_rcc.c ****              "HAL_RCC_GetSysClockFreq()" function to retrieve the frequencies of these clocks.
 180:Drivers/STM32F4xx_HAL_Driver/Src/stm32f4xx_hal_rcc.c **** 
 181:Drivers/STM32F4xx_HAL_Driver/Src/stm32f4xx_hal_rcc.c ****          (#) For the STM32F405xx/07xx and STM32F415xx/17xx devices, the maximum
 182:Drivers/STM32F4xx_HAL_Driver/Src/stm32f4xx_hal_rcc.c ****              frequency of the SYSCLK and HCLK is 168 MHz, PCLK2 84 MHz and PCLK1 42 MHz.
 183:Drivers/STM32F4xx_HAL_Driver/Src/stm32f4xx_hal_rcc.c ****              Depending on the device voltage range, the maximum frequency should
 184:Drivers/STM32F4xx_HAL_Driver/Src/stm32f4xx_hal_rcc.c ****              be adapted accordingly (refer to the product datasheets for more details).
 185:Drivers/STM32F4xx_HAL_Driver/Src/stm32f4xx_hal_rcc.c **** 
 186:Drivers/STM32F4xx_HAL_Driver/Src/stm32f4xx_hal_rcc.c ****          (#) For the STM32F42xxx, STM32F43xxx, STM32F446xx, STM32F469xx and STM32F479xx devices,
 187:Drivers/STM32F4xx_HAL_Driver/Src/stm32f4xx_hal_rcc.c ****              the maximum frequency of the SYSCLK and HCLK is 180 MHz, PCLK2 90 MHz and PCLK1 45 MHz
 188:Drivers/STM32F4xx_HAL_Driver/Src/stm32f4xx_hal_rcc.c ****              Depending on the device voltage range, the maximum frequency should
 189:Drivers/STM32F4xx_HAL_Driver/Src/stm32f4xx_hal_rcc.c ****              be adapted accordingly (refer to the product datasheets for more details).
 190:Drivers/STM32F4xx_HAL_Driver/Src/stm32f4xx_hal_rcc.c **** 
 191:Drivers/STM32F4xx_HAL_Driver/Src/stm32f4xx_hal_rcc.c ****          (#) For the STM32F401xx, the maximum frequency of the SYSCLK and HCLK is 84 MHz,
 192:Drivers/STM32F4xx_HAL_Driver/Src/stm32f4xx_hal_rcc.c ****              PCLK2 84 MHz and PCLK1 42 MHz.
 193:Drivers/STM32F4xx_HAL_Driver/Src/stm32f4xx_hal_rcc.c ****              Depending on the device voltage range, the maximum frequency should
 194:Drivers/STM32F4xx_HAL_Driver/Src/stm32f4xx_hal_rcc.c ****              be adapted accordingly (refer to the product datasheets for more details).
 195:Drivers/STM32F4xx_HAL_Driver/Src/stm32f4xx_hal_rcc.c **** 
 196:Drivers/STM32F4xx_HAL_Driver/Src/stm32f4xx_hal_rcc.c ****          (#) For the STM32F41xxx, the maximum frequency of the SYSCLK and HCLK is 100 MHz,
 197:Drivers/STM32F4xx_HAL_Driver/Src/stm32f4xx_hal_rcc.c ****              PCLK2 100 MHz and PCLK1 50 MHz.
 198:Drivers/STM32F4xx_HAL_Driver/Src/stm32f4xx_hal_rcc.c ****              Depending on the device voltage range, the maximum frequency should
 199:Drivers/STM32F4xx_HAL_Driver/Src/stm32f4xx_hal_rcc.c ****              be adapted accordingly (refer to the product datasheets for more details).
 200:Drivers/STM32F4xx_HAL_Driver/Src/stm32f4xx_hal_rcc.c **** 
 201:Drivers/STM32F4xx_HAL_Driver/Src/stm32f4xx_hal_rcc.c **** @endverbatim
 202:Drivers/STM32F4xx_HAL_Driver/Src/stm32f4xx_hal_rcc.c ****   * @{
ARM GAS  C:\Users\n-is\AppData\Local\Temp\ccbtDXWy.s 			page 5


 203:Drivers/STM32F4xx_HAL_Driver/Src/stm32f4xx_hal_rcc.c ****   */
 204:Drivers/STM32F4xx_HAL_Driver/Src/stm32f4xx_hal_rcc.c **** 
 205:Drivers/STM32F4xx_HAL_Driver/Src/stm32f4xx_hal_rcc.c **** /**
 206:Drivers/STM32F4xx_HAL_Driver/Src/stm32f4xx_hal_rcc.c ****   * @brief  Resets the RCC clock configuration to the default reset state.
 207:Drivers/STM32F4xx_HAL_Driver/Src/stm32f4xx_hal_rcc.c ****   * @note   The default reset state of the clock configuration is given below:
 208:Drivers/STM32F4xx_HAL_Driver/Src/stm32f4xx_hal_rcc.c ****   *            - HSI ON and used as system clock source
 209:Drivers/STM32F4xx_HAL_Driver/Src/stm32f4xx_hal_rcc.c ****   *            - HSE and PLL OFF
 210:Drivers/STM32F4xx_HAL_Driver/Src/stm32f4xx_hal_rcc.c ****   *            - AHB, APB1 and APB2 prescaler set to 1.
 211:Drivers/STM32F4xx_HAL_Driver/Src/stm32f4xx_hal_rcc.c ****   *            - CSS, MCO1 and MCO2 OFF
 212:Drivers/STM32F4xx_HAL_Driver/Src/stm32f4xx_hal_rcc.c ****   *            - All interrupts disabled
 213:Drivers/STM32F4xx_HAL_Driver/Src/stm32f4xx_hal_rcc.c ****   * @note   This function doesn't modify the configuration of the
 214:Drivers/STM32F4xx_HAL_Driver/Src/stm32f4xx_hal_rcc.c ****   *            - Peripheral clocks
 215:Drivers/STM32F4xx_HAL_Driver/Src/stm32f4xx_hal_rcc.c ****   *            - LSI, LSE and RTC clocks
 216:Drivers/STM32F4xx_HAL_Driver/Src/stm32f4xx_hal_rcc.c ****   * @retval HAL status
 217:Drivers/STM32F4xx_HAL_Driver/Src/stm32f4xx_hal_rcc.c ****   */
 218:Drivers/STM32F4xx_HAL_Driver/Src/stm32f4xx_hal_rcc.c **** __weak HAL_StatusTypeDef HAL_RCC_DeInit(void)
 219:Drivers/STM32F4xx_HAL_Driver/Src/stm32f4xx_hal_rcc.c **** {
  28              		.loc 1 219 0
  29              		.cfi_startproc
  30              		@ args = 0, pretend = 0, frame = 0
  31              		@ frame_needed = 0, uses_anonymous_args = 0
  32              		@ link register save eliminated.
 220:Drivers/STM32F4xx_HAL_Driver/Src/stm32f4xx_hal_rcc.c ****   return HAL_OK;
 221:Drivers/STM32F4xx_HAL_Driver/Src/stm32f4xx_hal_rcc.c **** }
  33              		.loc 1 221 0
  34 0000 0020     		movs	r0, #0
  35 0002 7047     		bx	lr
  36              		.cfi_endproc
  37              	.LFE126:
  39              		.section	.text.HAL_RCC_OscConfig,"ax",%progbits
  40              		.align	1
  41              		.weak	HAL_RCC_OscConfig
  42              		.syntax unified
  43              		.thumb
  44              		.thumb_func
  45              		.fpu fpv4-sp-d16
  47              	HAL_RCC_OscConfig:
  48              	.LFB127:
 222:Drivers/STM32F4xx_HAL_Driver/Src/stm32f4xx_hal_rcc.c **** 
 223:Drivers/STM32F4xx_HAL_Driver/Src/stm32f4xx_hal_rcc.c **** /**
 224:Drivers/STM32F4xx_HAL_Driver/Src/stm32f4xx_hal_rcc.c ****   * @brief  Initializes the RCC Oscillators according to the specified parameters in the
 225:Drivers/STM32F4xx_HAL_Driver/Src/stm32f4xx_hal_rcc.c ****   *         RCC_OscInitTypeDef.
 226:Drivers/STM32F4xx_HAL_Driver/Src/stm32f4xx_hal_rcc.c ****   * @param  RCC_OscInitStruct pointer to an RCC_OscInitTypeDef structure that
 227:Drivers/STM32F4xx_HAL_Driver/Src/stm32f4xx_hal_rcc.c ****   *         contains the configuration information for the RCC Oscillators.
 228:Drivers/STM32F4xx_HAL_Driver/Src/stm32f4xx_hal_rcc.c ****   * @note   The PLL is not disabled when used as system clock.
 229:Drivers/STM32F4xx_HAL_Driver/Src/stm32f4xx_hal_rcc.c ****   * @note   Transitions LSE Bypass to LSE On and LSE On to LSE Bypass are not
 230:Drivers/STM32F4xx_HAL_Driver/Src/stm32f4xx_hal_rcc.c ****   *         supported by this API. User should request a transition to LSE Off
 231:Drivers/STM32F4xx_HAL_Driver/Src/stm32f4xx_hal_rcc.c ****   *         first and then LSE On or LSE Bypass.
 232:Drivers/STM32F4xx_HAL_Driver/Src/stm32f4xx_hal_rcc.c ****   * @note   Transition HSE Bypass to HSE On and HSE On to HSE Bypass are not
 233:Drivers/STM32F4xx_HAL_Driver/Src/stm32f4xx_hal_rcc.c ****   *         supported by this API. User should request a transition to HSE Off
 234:Drivers/STM32F4xx_HAL_Driver/Src/stm32f4xx_hal_rcc.c ****   *         first and then HSE On or HSE Bypass.
 235:Drivers/STM32F4xx_HAL_Driver/Src/stm32f4xx_hal_rcc.c ****   * @retval HAL status
 236:Drivers/STM32F4xx_HAL_Driver/Src/stm32f4xx_hal_rcc.c ****   */
 237:Drivers/STM32F4xx_HAL_Driver/Src/stm32f4xx_hal_rcc.c **** __weak HAL_StatusTypeDef HAL_RCC_OscConfig(RCC_OscInitTypeDef  *RCC_OscInitStruct)
 238:Drivers/STM32F4xx_HAL_Driver/Src/stm32f4xx_hal_rcc.c **** {
  49              		.loc 1 238 0
  50              		.cfi_startproc
ARM GAS  C:\Users\n-is\AppData\Local\Temp\ccbtDXWy.s 			page 6


  51              		@ args = 0, pretend = 0, frame = 8
  52              		@ frame_needed = 0, uses_anonymous_args = 0
  53              	.LVL0:
 239:Drivers/STM32F4xx_HAL_Driver/Src/stm32f4xx_hal_rcc.c ****   uint32_t tickstart;
 240:Drivers/STM32F4xx_HAL_Driver/Src/stm32f4xx_hal_rcc.c **** 
 241:Drivers/STM32F4xx_HAL_Driver/Src/stm32f4xx_hal_rcc.c ****   /* Check Null pointer */
 242:Drivers/STM32F4xx_HAL_Driver/Src/stm32f4xx_hal_rcc.c ****   if(RCC_OscInitStruct == NULL)
  54              		.loc 1 242 0
  55 0000 0028     		cmp	r0, #0
  56 0002 00F03C82 		beq	.L63
 238:Drivers/STM32F4xx_HAL_Driver/Src/stm32f4xx_hal_rcc.c ****   uint32_t tickstart;
  57              		.loc 1 238 0
  58 0006 70B5     		push	{r4, r5, r6, lr}
  59              	.LCFI0:
  60              		.cfi_def_cfa_offset 16
  61              		.cfi_offset 4, -16
  62              		.cfi_offset 5, -12
  63              		.cfi_offset 6, -8
  64              		.cfi_offset 14, -4
  65 0008 82B0     		sub	sp, sp, #8
  66              	.LCFI1:
  67              		.cfi_def_cfa_offset 24
  68 000a 0446     		mov	r4, r0
 243:Drivers/STM32F4xx_HAL_Driver/Src/stm32f4xx_hal_rcc.c ****   {
 244:Drivers/STM32F4xx_HAL_Driver/Src/stm32f4xx_hal_rcc.c ****     return HAL_ERROR;
 245:Drivers/STM32F4xx_HAL_Driver/Src/stm32f4xx_hal_rcc.c ****   }
 246:Drivers/STM32F4xx_HAL_Driver/Src/stm32f4xx_hal_rcc.c **** 
 247:Drivers/STM32F4xx_HAL_Driver/Src/stm32f4xx_hal_rcc.c ****   /* Check the parameters */
 248:Drivers/STM32F4xx_HAL_Driver/Src/stm32f4xx_hal_rcc.c ****   assert_param(IS_RCC_OSCILLATORTYPE(RCC_OscInitStruct->OscillatorType));
  69              		.loc 1 248 0
  70 000c 0368     		ldr	r3, [r0]
  71 000e 0F2B     		cmp	r3, #15
  72 0010 39D8     		bhi	.L85
  73              	.LVL1:
  74              	.L4:
 249:Drivers/STM32F4xx_HAL_Driver/Src/stm32f4xx_hal_rcc.c ****   /*------------------------------- HSE Configuration ------------------------*/
 250:Drivers/STM32F4xx_HAL_Driver/Src/stm32f4xx_hal_rcc.c ****   if(((RCC_OscInitStruct->OscillatorType) & RCC_OSCILLATORTYPE_HSE) == RCC_OSCILLATORTYPE_HSE)
  75              		.loc 1 250 0
  76 0012 2368     		ldr	r3, [r4]
  77 0014 13F0010F 		tst	r3, #1
  78 0018 4DD0     		beq	.L5
 251:Drivers/STM32F4xx_HAL_Driver/Src/stm32f4xx_hal_rcc.c ****   {
 252:Drivers/STM32F4xx_HAL_Driver/Src/stm32f4xx_hal_rcc.c ****     /* Check the parameters */
 253:Drivers/STM32F4xx_HAL_Driver/Src/stm32f4xx_hal_rcc.c ****     assert_param(IS_RCC_HSE(RCC_OscInitStruct->HSEState));
  79              		.loc 1 253 0
  80 001a 6368     		ldr	r3, [r4, #4]
  81 001c 2BB1     		cbz	r3, .L6
  82              		.loc 1 253 0 is_stmt 0 discriminator 1
  83 001e B3F5803F 		cmp	r3, #65536
  84 0022 02D0     		beq	.L6
  85              		.loc 1 253 0 discriminator 2
  86 0024 B3F5A02F 		cmp	r3, #327680
  87 0028 32D1     		bne	.L86
  88              	.L6:
 254:Drivers/STM32F4xx_HAL_Driver/Src/stm32f4xx_hal_rcc.c ****     /* When the HSE is used as system clock or clock source for PLL in these cases HSE will not dis
 255:Drivers/STM32F4xx_HAL_Driver/Src/stm32f4xx_hal_rcc.c ****     if((__HAL_RCC_GET_SYSCLK_SOURCE() == RCC_CFGR_SWS_HSE) ||\
  89              		.loc 1 255 0 is_stmt 1
ARM GAS  C:\Users\n-is\AppData\Local\Temp\ccbtDXWy.s 			page 7


  90 002a A54B     		ldr	r3, .L110
  91 002c 9B68     		ldr	r3, [r3, #8]
  92 002e 03F00C03 		and	r3, r3, #12
  93 0032 042B     		cmp	r3, #4
  94 0034 36D0     		beq	.L7
 256:Drivers/STM32F4xx_HAL_Driver/Src/stm32f4xx_hal_rcc.c ****       ((__HAL_RCC_GET_SYSCLK_SOURCE() == RCC_CFGR_SWS_PLL) && ((RCC->PLLCFGR & RCC_PLLCFGR_PLLSRC) 
  95              		.loc 1 256 0 discriminator 1
  96 0036 A24B     		ldr	r3, .L110
  97 0038 9B68     		ldr	r3, [r3, #8]
  98 003a 03F00C03 		and	r3, r3, #12
 255:Drivers/STM32F4xx_HAL_Driver/Src/stm32f4xx_hal_rcc.c ****       ((__HAL_RCC_GET_SYSCLK_SOURCE() == RCC_CFGR_SWS_PLL) && ((RCC->PLLCFGR & RCC_PLLCFGR_PLLSRC) 
  99              		.loc 1 255 0 discriminator 1
 100 003e 082B     		cmp	r3, #8
 101 0040 2BD0     		beq	.L87
 102              	.L8:
 257:Drivers/STM32F4xx_HAL_Driver/Src/stm32f4xx_hal_rcc.c ****     {
 258:Drivers/STM32F4xx_HAL_Driver/Src/stm32f4xx_hal_rcc.c ****       if((__HAL_RCC_GET_FLAG(RCC_FLAG_HSERDY) != RESET) && (RCC_OscInitStruct->HSEState == RCC_HSE_
 259:Drivers/STM32F4xx_HAL_Driver/Src/stm32f4xx_hal_rcc.c ****       {
 260:Drivers/STM32F4xx_HAL_Driver/Src/stm32f4xx_hal_rcc.c ****         return HAL_ERROR;
 261:Drivers/STM32F4xx_HAL_Driver/Src/stm32f4xx_hal_rcc.c ****       }
 262:Drivers/STM32F4xx_HAL_Driver/Src/stm32f4xx_hal_rcc.c ****     }
 263:Drivers/STM32F4xx_HAL_Driver/Src/stm32f4xx_hal_rcc.c ****     else
 264:Drivers/STM32F4xx_HAL_Driver/Src/stm32f4xx_hal_rcc.c ****     {
 265:Drivers/STM32F4xx_HAL_Driver/Src/stm32f4xx_hal_rcc.c ****       /* Set the new HSE configuration ---------------------------------------*/
 266:Drivers/STM32F4xx_HAL_Driver/Src/stm32f4xx_hal_rcc.c ****       __HAL_RCC_HSE_CONFIG(RCC_OscInitStruct->HSEState);
 103              		.loc 1 266 0
 104 0042 6368     		ldr	r3, [r4, #4]
 105 0044 B3F5803F 		cmp	r3, #65536
 106 0048 5FD0     		beq	.L88
 107              		.loc 1 266 0 is_stmt 0 discriminator 2
 108 004a B3F5A02F 		cmp	r3, #327680
 109 004e 62D0     		beq	.L89
 110              		.loc 1 266 0 discriminator 4
 111 0050 9B4B     		ldr	r3, .L110
 112 0052 1A68     		ldr	r2, [r3]
 113 0054 22F48032 		bic	r2, r2, #65536
 114 0058 1A60     		str	r2, [r3]
 115 005a 1A68     		ldr	r2, [r3]
 116 005c 22F48022 		bic	r2, r2, #262144
 117 0060 1A60     		str	r2, [r3]
 118              	.L10:
 267:Drivers/STM32F4xx_HAL_Driver/Src/stm32f4xx_hal_rcc.c **** 
 268:Drivers/STM32F4xx_HAL_Driver/Src/stm32f4xx_hal_rcc.c ****       /* Check the HSE State */
 269:Drivers/STM32F4xx_HAL_Driver/Src/stm32f4xx_hal_rcc.c ****       if((RCC_OscInitStruct->HSEState) != RCC_HSE_OFF)
 119              		.loc 1 269 0 is_stmt 1
 120 0062 6368     		ldr	r3, [r4, #4]
 121 0064 002B     		cmp	r3, #0
 122 0066 60D0     		beq	.L12
 270:Drivers/STM32F4xx_HAL_Driver/Src/stm32f4xx_hal_rcc.c ****       {
 271:Drivers/STM32F4xx_HAL_Driver/Src/stm32f4xx_hal_rcc.c ****         /* Get Start Tick */
 272:Drivers/STM32F4xx_HAL_Driver/Src/stm32f4xx_hal_rcc.c ****         tickstart = HAL_GetTick();
 123              		.loc 1 272 0
 124 0068 FFF7FEFF 		bl	HAL_GetTick
 125              	.LVL2:
 126 006c 0546     		mov	r5, r0
 127              	.LVL3:
 128              	.L13:
ARM GAS  C:\Users\n-is\AppData\Local\Temp\ccbtDXWy.s 			page 8


 273:Drivers/STM32F4xx_HAL_Driver/Src/stm32f4xx_hal_rcc.c **** 
 274:Drivers/STM32F4xx_HAL_Driver/Src/stm32f4xx_hal_rcc.c ****         /* Wait till HSE is ready */
 275:Drivers/STM32F4xx_HAL_Driver/Src/stm32f4xx_hal_rcc.c ****         while(__HAL_RCC_GET_FLAG(RCC_FLAG_HSERDY) == RESET)
 129              		.loc 1 275 0
 130 006e 944B     		ldr	r3, .L110
 131 0070 1B68     		ldr	r3, [r3]
 132 0072 13F4003F 		tst	r3, #131072
 133 0076 1ED1     		bne	.L5
 276:Drivers/STM32F4xx_HAL_Driver/Src/stm32f4xx_hal_rcc.c ****         {
 277:Drivers/STM32F4xx_HAL_Driver/Src/stm32f4xx_hal_rcc.c ****           if((HAL_GetTick() - tickstart ) > HSE_TIMEOUT_VALUE)
 134              		.loc 1 277 0
 135 0078 FFF7FEFF 		bl	HAL_GetTick
 136              	.LVL4:
 137 007c 401B     		subs	r0, r0, r5
 138 007e 6428     		cmp	r0, #100
 139 0080 F5D9     		bls	.L13
 278:Drivers/STM32F4xx_HAL_Driver/Src/stm32f4xx_hal_rcc.c ****           {
 279:Drivers/STM32F4xx_HAL_Driver/Src/stm32f4xx_hal_rcc.c ****             return HAL_TIMEOUT;
 140              		.loc 1 279 0
 141 0082 0320     		movs	r0, #3
 142 0084 00E2     		b	.L3
 143              	.LVL5:
 144              	.L85:
 248:Drivers/STM32F4xx_HAL_Driver/Src/stm32f4xx_hal_rcc.c ****   /*------------------------------- HSE Configuration ------------------------*/
 145              		.loc 1 248 0 discriminator 1
 146 0086 F821     		movs	r1, #248
 147 0088 8E48     		ldr	r0, .L110+4
 148              	.LVL6:
 149 008a FFF7FEFF 		bl	assert_failed
 150              	.LVL7:
 151 008e C0E7     		b	.L4
 152              	.L86:
 253:Drivers/STM32F4xx_HAL_Driver/Src/stm32f4xx_hal_rcc.c ****     /* When the HSE is used as system clock or clock source for PLL in these cases HSE will not dis
 153              		.loc 1 253 0 discriminator 3
 154 0090 FD21     		movs	r1, #253
 155 0092 8C48     		ldr	r0, .L110+4
 156 0094 FFF7FEFF 		bl	assert_failed
 157              	.LVL8:
 158 0098 C7E7     		b	.L6
 159              	.L87:
 256:Drivers/STM32F4xx_HAL_Driver/Src/stm32f4xx_hal_rcc.c ****     {
 160              		.loc 1 256 0
 161 009a 894B     		ldr	r3, .L110
 162 009c 5B68     		ldr	r3, [r3, #4]
 163 009e 13F4800F 		tst	r3, #4194304
 164 00a2 CED0     		beq	.L8
 165              	.L7:
 258:Drivers/STM32F4xx_HAL_Driver/Src/stm32f4xx_hal_rcc.c ****       {
 166              		.loc 1 258 0
 167 00a4 864B     		ldr	r3, .L110
 168 00a6 1B68     		ldr	r3, [r3]
 169 00a8 13F4003F 		tst	r3, #131072
 170 00ac 03D0     		beq	.L5
 258:Drivers/STM32F4xx_HAL_Driver/Src/stm32f4xx_hal_rcc.c ****       {
 171              		.loc 1 258 0 is_stmt 0 discriminator 1
 172 00ae 6368     		ldr	r3, [r4, #4]
 173 00b0 002B     		cmp	r3, #0
ARM GAS  C:\Users\n-is\AppData\Local\Temp\ccbtDXWy.s 			page 9


 174 00b2 00F0E681 		beq	.L90
 175              	.L5:
 280:Drivers/STM32F4xx_HAL_Driver/Src/stm32f4xx_hal_rcc.c ****           }
 281:Drivers/STM32F4xx_HAL_Driver/Src/stm32f4xx_hal_rcc.c ****         }
 282:Drivers/STM32F4xx_HAL_Driver/Src/stm32f4xx_hal_rcc.c ****       }
 283:Drivers/STM32F4xx_HAL_Driver/Src/stm32f4xx_hal_rcc.c ****       else
 284:Drivers/STM32F4xx_HAL_Driver/Src/stm32f4xx_hal_rcc.c ****       {
 285:Drivers/STM32F4xx_HAL_Driver/Src/stm32f4xx_hal_rcc.c ****         /* Get Start Tick */
 286:Drivers/STM32F4xx_HAL_Driver/Src/stm32f4xx_hal_rcc.c ****         tickstart = HAL_GetTick();
 287:Drivers/STM32F4xx_HAL_Driver/Src/stm32f4xx_hal_rcc.c **** 
 288:Drivers/STM32F4xx_HAL_Driver/Src/stm32f4xx_hal_rcc.c ****         /* Wait till HSE is bypassed or disabled */
 289:Drivers/STM32F4xx_HAL_Driver/Src/stm32f4xx_hal_rcc.c ****         while(__HAL_RCC_GET_FLAG(RCC_FLAG_HSERDY) != RESET)
 290:Drivers/STM32F4xx_HAL_Driver/Src/stm32f4xx_hal_rcc.c ****         {
 291:Drivers/STM32F4xx_HAL_Driver/Src/stm32f4xx_hal_rcc.c ****           if((HAL_GetTick() - tickstart ) > HSE_TIMEOUT_VALUE)
 292:Drivers/STM32F4xx_HAL_Driver/Src/stm32f4xx_hal_rcc.c ****           {
 293:Drivers/STM32F4xx_HAL_Driver/Src/stm32f4xx_hal_rcc.c ****             return HAL_TIMEOUT;
 294:Drivers/STM32F4xx_HAL_Driver/Src/stm32f4xx_hal_rcc.c ****           }
 295:Drivers/STM32F4xx_HAL_Driver/Src/stm32f4xx_hal_rcc.c ****         }
 296:Drivers/STM32F4xx_HAL_Driver/Src/stm32f4xx_hal_rcc.c ****       }
 297:Drivers/STM32F4xx_HAL_Driver/Src/stm32f4xx_hal_rcc.c ****     }
 298:Drivers/STM32F4xx_HAL_Driver/Src/stm32f4xx_hal_rcc.c ****   }
 299:Drivers/STM32F4xx_HAL_Driver/Src/stm32f4xx_hal_rcc.c ****   /*----------------------------- HSI Configuration --------------------------*/
 300:Drivers/STM32F4xx_HAL_Driver/Src/stm32f4xx_hal_rcc.c ****   if(((RCC_OscInitStruct->OscillatorType) & RCC_OSCILLATORTYPE_HSI) == RCC_OSCILLATORTYPE_HSI)
 176              		.loc 1 300 0 is_stmt 1
 177 00b6 2368     		ldr	r3, [r4]
 178 00b8 13F0020F 		tst	r3, #2
 179 00bc 67D0     		beq	.L17
 301:Drivers/STM32F4xx_HAL_Driver/Src/stm32f4xx_hal_rcc.c ****   {
 302:Drivers/STM32F4xx_HAL_Driver/Src/stm32f4xx_hal_rcc.c ****     /* Check the parameters */
 303:Drivers/STM32F4xx_HAL_Driver/Src/stm32f4xx_hal_rcc.c ****     assert_param(IS_RCC_HSI(RCC_OscInitStruct->HSIState));
 180              		.loc 1 303 0
 181 00be E368     		ldr	r3, [r4, #12]
 182 00c0 012B     		cmp	r3, #1
 183 00c2 41D8     		bhi	.L91
 184              	.L18:
 304:Drivers/STM32F4xx_HAL_Driver/Src/stm32f4xx_hal_rcc.c ****     assert_param(IS_RCC_CALIBRATION_VALUE(RCC_OscInitStruct->HSICalibrationValue));
 185              		.loc 1 304 0
 186 00c4 2369     		ldr	r3, [r4, #16]
 187 00c6 1F2B     		cmp	r3, #31
 188 00c8 44D8     		bhi	.L92
 189              	.L19:
 305:Drivers/STM32F4xx_HAL_Driver/Src/stm32f4xx_hal_rcc.c **** 
 306:Drivers/STM32F4xx_HAL_Driver/Src/stm32f4xx_hal_rcc.c ****     /* Check if HSI is used as system clock or as PLL source when PLL is selected as system clock *
 307:Drivers/STM32F4xx_HAL_Driver/Src/stm32f4xx_hal_rcc.c ****     if((__HAL_RCC_GET_SYSCLK_SOURCE() == RCC_CFGR_SWS_HSI) ||\
 190              		.loc 1 307 0
 191 00ca 7D4B     		ldr	r3, .L110
 192 00cc 9B68     		ldr	r3, [r3, #8]
 193 00ce 13F00C0F 		tst	r3, #12
 194 00d2 4AD0     		beq	.L20
 308:Drivers/STM32F4xx_HAL_Driver/Src/stm32f4xx_hal_rcc.c ****       ((__HAL_RCC_GET_SYSCLK_SOURCE() == RCC_CFGR_SWS_PLL) && ((RCC->PLLCFGR & RCC_PLLCFGR_PLLSRC) 
 195              		.loc 1 308 0 discriminator 1
 196 00d4 7A4B     		ldr	r3, .L110
 197 00d6 9B68     		ldr	r3, [r3, #8]
 198 00d8 03F00C03 		and	r3, r3, #12
 307:Drivers/STM32F4xx_HAL_Driver/Src/stm32f4xx_hal_rcc.c ****       ((__HAL_RCC_GET_SYSCLK_SOURCE() == RCC_CFGR_SWS_PLL) && ((RCC->PLLCFGR & RCC_PLLCFGR_PLLSRC) 
 199              		.loc 1 307 0 discriminator 1
 200 00dc 082B     		cmp	r3, #8
ARM GAS  C:\Users\n-is\AppData\Local\Temp\ccbtDXWy.s 			page 10


 201 00de 3FD0     		beq	.L93
 202              	.L21:
 309:Drivers/STM32F4xx_HAL_Driver/Src/stm32f4xx_hal_rcc.c ****     {
 310:Drivers/STM32F4xx_HAL_Driver/Src/stm32f4xx_hal_rcc.c ****       /* When HSI is used as system clock it will not disabled */
 311:Drivers/STM32F4xx_HAL_Driver/Src/stm32f4xx_hal_rcc.c ****       if((__HAL_RCC_GET_FLAG(RCC_FLAG_HSIRDY) != RESET) && (RCC_OscInitStruct->HSIState != RCC_HSI_
 312:Drivers/STM32F4xx_HAL_Driver/Src/stm32f4xx_hal_rcc.c ****       {
 313:Drivers/STM32F4xx_HAL_Driver/Src/stm32f4xx_hal_rcc.c ****         return HAL_ERROR;
 314:Drivers/STM32F4xx_HAL_Driver/Src/stm32f4xx_hal_rcc.c ****       }
 315:Drivers/STM32F4xx_HAL_Driver/Src/stm32f4xx_hal_rcc.c ****       /* Otherwise, just the calibration is allowed */
 316:Drivers/STM32F4xx_HAL_Driver/Src/stm32f4xx_hal_rcc.c ****       else
 317:Drivers/STM32F4xx_HAL_Driver/Src/stm32f4xx_hal_rcc.c ****       {
 318:Drivers/STM32F4xx_HAL_Driver/Src/stm32f4xx_hal_rcc.c ****         /* Adjusts the Internal High Speed oscillator (HSI) calibration value.*/
 319:Drivers/STM32F4xx_HAL_Driver/Src/stm32f4xx_hal_rcc.c ****         __HAL_RCC_HSI_CALIBRATIONVALUE_ADJUST(RCC_OscInitStruct->HSICalibrationValue);
 320:Drivers/STM32F4xx_HAL_Driver/Src/stm32f4xx_hal_rcc.c ****       }
 321:Drivers/STM32F4xx_HAL_Driver/Src/stm32f4xx_hal_rcc.c ****     }
 322:Drivers/STM32F4xx_HAL_Driver/Src/stm32f4xx_hal_rcc.c ****     else
 323:Drivers/STM32F4xx_HAL_Driver/Src/stm32f4xx_hal_rcc.c ****     {
 324:Drivers/STM32F4xx_HAL_Driver/Src/stm32f4xx_hal_rcc.c ****       /* Check the HSI State */
 325:Drivers/STM32F4xx_HAL_Driver/Src/stm32f4xx_hal_rcc.c ****       if((RCC_OscInitStruct->HSIState)!= RCC_HSI_OFF)
 203              		.loc 1 325 0
 204 00e0 E368     		ldr	r3, [r4, #12]
 205 00e2 002B     		cmp	r3, #0
 206 00e4 77D0     		beq	.L23
 326:Drivers/STM32F4xx_HAL_Driver/Src/stm32f4xx_hal_rcc.c ****       {
 327:Drivers/STM32F4xx_HAL_Driver/Src/stm32f4xx_hal_rcc.c ****         /* Enable the Internal High Speed oscillator (HSI). */
 328:Drivers/STM32F4xx_HAL_Driver/Src/stm32f4xx_hal_rcc.c ****         __HAL_RCC_HSI_ENABLE();
 207              		.loc 1 328 0
 208 00e6 784B     		ldr	r3, .L110+8
 209 00e8 0122     		movs	r2, #1
 210 00ea 1A60     		str	r2, [r3]
 329:Drivers/STM32F4xx_HAL_Driver/Src/stm32f4xx_hal_rcc.c **** 
 330:Drivers/STM32F4xx_HAL_Driver/Src/stm32f4xx_hal_rcc.c ****         /* Get Start Tick*/
 331:Drivers/STM32F4xx_HAL_Driver/Src/stm32f4xx_hal_rcc.c ****         tickstart = HAL_GetTick();
 211              		.loc 1 331 0
 212 00ec FFF7FEFF 		bl	HAL_GetTick
 213              	.LVL9:
 214 00f0 0546     		mov	r5, r0
 215              	.LVL10:
 216              	.L24:
 332:Drivers/STM32F4xx_HAL_Driver/Src/stm32f4xx_hal_rcc.c **** 
 333:Drivers/STM32F4xx_HAL_Driver/Src/stm32f4xx_hal_rcc.c ****         /* Wait till HSI is ready */
 334:Drivers/STM32F4xx_HAL_Driver/Src/stm32f4xx_hal_rcc.c ****         while(__HAL_RCC_GET_FLAG(RCC_FLAG_HSIRDY) == RESET)
 217              		.loc 1 334 0
 218 00f2 734B     		ldr	r3, .L110
 219 00f4 1B68     		ldr	r3, [r3]
 220 00f6 13F0020F 		tst	r3, #2
 221 00fa 63D1     		bne	.L94
 335:Drivers/STM32F4xx_HAL_Driver/Src/stm32f4xx_hal_rcc.c ****         {
 336:Drivers/STM32F4xx_HAL_Driver/Src/stm32f4xx_hal_rcc.c ****           if((HAL_GetTick() - tickstart ) > HSI_TIMEOUT_VALUE)
 222              		.loc 1 336 0
 223 00fc FFF7FEFF 		bl	HAL_GetTick
 224              	.LVL11:
 225 0100 401B     		subs	r0, r0, r5
 226 0102 0228     		cmp	r0, #2
 227 0104 F5D9     		bls	.L24
 337:Drivers/STM32F4xx_HAL_Driver/Src/stm32f4xx_hal_rcc.c ****           {
 338:Drivers/STM32F4xx_HAL_Driver/Src/stm32f4xx_hal_rcc.c ****             return HAL_TIMEOUT;
ARM GAS  C:\Users\n-is\AppData\Local\Temp\ccbtDXWy.s 			page 11


 228              		.loc 1 338 0
 229 0106 0320     		movs	r0, #3
 230 0108 BEE1     		b	.L3
 231              	.LVL12:
 232              	.L88:
 266:Drivers/STM32F4xx_HAL_Driver/Src/stm32f4xx_hal_rcc.c **** 
 233              		.loc 1 266 0 discriminator 1
 234 010a 6D4A     		ldr	r2, .L110
 235 010c 1368     		ldr	r3, [r2]
 236 010e 43F48033 		orr	r3, r3, #65536
 237 0112 1360     		str	r3, [r2]
 238 0114 A5E7     		b	.L10
 239              	.L89:
 266:Drivers/STM32F4xx_HAL_Driver/Src/stm32f4xx_hal_rcc.c **** 
 240              		.loc 1 266 0 is_stmt 0 discriminator 3
 241 0116 6A4B     		ldr	r3, .L110
 242 0118 1A68     		ldr	r2, [r3]
 243 011a 42F48022 		orr	r2, r2, #262144
 244 011e 1A60     		str	r2, [r3]
 245 0120 1A68     		ldr	r2, [r3]
 246 0122 42F48032 		orr	r2, r2, #65536
 247 0126 1A60     		str	r2, [r3]
 248 0128 9BE7     		b	.L10
 249              	.L12:
 286:Drivers/STM32F4xx_HAL_Driver/Src/stm32f4xx_hal_rcc.c **** 
 250              		.loc 1 286 0 is_stmt 1
 251 012a FFF7FEFF 		bl	HAL_GetTick
 252              	.LVL13:
 253 012e 0546     		mov	r5, r0
 254              	.LVL14:
 255              	.L15:
 289:Drivers/STM32F4xx_HAL_Driver/Src/stm32f4xx_hal_rcc.c ****         {
 256              		.loc 1 289 0
 257 0130 634B     		ldr	r3, .L110
 258 0132 1B68     		ldr	r3, [r3]
 259 0134 13F4003F 		tst	r3, #131072
 260 0138 BDD0     		beq	.L5
 291:Drivers/STM32F4xx_HAL_Driver/Src/stm32f4xx_hal_rcc.c ****           {
 261              		.loc 1 291 0
 262 013a FFF7FEFF 		bl	HAL_GetTick
 263              	.LVL15:
 264 013e 401B     		subs	r0, r0, r5
 265 0140 6428     		cmp	r0, #100
 266 0142 F5D9     		bls	.L15
 293:Drivers/STM32F4xx_HAL_Driver/Src/stm32f4xx_hal_rcc.c ****           }
 267              		.loc 1 293 0
 268 0144 0320     		movs	r0, #3
 269 0146 9FE1     		b	.L3
 270              	.LVL16:
 271              	.L91:
 303:Drivers/STM32F4xx_HAL_Driver/Src/stm32f4xx_hal_rcc.c ****     assert_param(IS_RCC_CALIBRATION_VALUE(RCC_OscInitStruct->HSICalibrationValue));
 272              		.loc 1 303 0 discriminator 1
 273 0148 40F22F11 		movw	r1, #303
 274 014c 5D48     		ldr	r0, .L110+4
 275 014e FFF7FEFF 		bl	assert_failed
 276              	.LVL17:
 277 0152 B7E7     		b	.L18
ARM GAS  C:\Users\n-is\AppData\Local\Temp\ccbtDXWy.s 			page 12


 278              	.L92:
 304:Drivers/STM32F4xx_HAL_Driver/Src/stm32f4xx_hal_rcc.c **** 
 279              		.loc 1 304 0 discriminator 1
 280 0154 4FF49871 		mov	r1, #304
 281 0158 5A48     		ldr	r0, .L110+4
 282 015a FFF7FEFF 		bl	assert_failed
 283              	.LVL18:
 284 015e B4E7     		b	.L19
 285              	.L93:
 308:Drivers/STM32F4xx_HAL_Driver/Src/stm32f4xx_hal_rcc.c ****     {
 286              		.loc 1 308 0
 287 0160 574B     		ldr	r3, .L110
 288 0162 5B68     		ldr	r3, [r3, #4]
 289 0164 13F4800F 		tst	r3, #4194304
 290 0168 BAD1     		bne	.L21
 291              	.L20:
 311:Drivers/STM32F4xx_HAL_Driver/Src/stm32f4xx_hal_rcc.c ****       {
 292              		.loc 1 311 0
 293 016a 554B     		ldr	r3, .L110
 294 016c 1B68     		ldr	r3, [r3]
 295 016e 13F0020F 		tst	r3, #2
 296 0172 04D0     		beq	.L22
 311:Drivers/STM32F4xx_HAL_Driver/Src/stm32f4xx_hal_rcc.c ****       {
 297              		.loc 1 311 0 is_stmt 0 discriminator 1
 298 0174 E368     		ldr	r3, [r4, #12]
 299 0176 012B     		cmp	r3, #1
 300 0178 01D0     		beq	.L22
 313:Drivers/STM32F4xx_HAL_Driver/Src/stm32f4xx_hal_rcc.c ****       }
 301              		.loc 1 313 0 is_stmt 1
 302 017a 0120     		movs	r0, #1
 303 017c 84E1     		b	.L3
 304              	.L22:
 319:Drivers/STM32F4xx_HAL_Driver/Src/stm32f4xx_hal_rcc.c ****       }
 305              		.loc 1 319 0
 306 017e 504A     		ldr	r2, .L110
 307 0180 1368     		ldr	r3, [r2]
 308 0182 23F0F803 		bic	r3, r3, #248
 309 0186 2169     		ldr	r1, [r4, #16]
 310 0188 43EAC103 		orr	r3, r3, r1, lsl #3
 311 018c 1360     		str	r3, [r2]
 312              	.L17:
 339:Drivers/STM32F4xx_HAL_Driver/Src/stm32f4xx_hal_rcc.c ****           }
 340:Drivers/STM32F4xx_HAL_Driver/Src/stm32f4xx_hal_rcc.c ****         }
 341:Drivers/STM32F4xx_HAL_Driver/Src/stm32f4xx_hal_rcc.c **** 
 342:Drivers/STM32F4xx_HAL_Driver/Src/stm32f4xx_hal_rcc.c ****         /* Adjusts the Internal High Speed oscillator (HSI) calibration value. */
 343:Drivers/STM32F4xx_HAL_Driver/Src/stm32f4xx_hal_rcc.c ****         __HAL_RCC_HSI_CALIBRATIONVALUE_ADJUST(RCC_OscInitStruct->HSICalibrationValue);
 344:Drivers/STM32F4xx_HAL_Driver/Src/stm32f4xx_hal_rcc.c ****       }
 345:Drivers/STM32F4xx_HAL_Driver/Src/stm32f4xx_hal_rcc.c ****       else
 346:Drivers/STM32F4xx_HAL_Driver/Src/stm32f4xx_hal_rcc.c ****       {
 347:Drivers/STM32F4xx_HAL_Driver/Src/stm32f4xx_hal_rcc.c ****         /* Disable the Internal High Speed oscillator (HSI). */
 348:Drivers/STM32F4xx_HAL_Driver/Src/stm32f4xx_hal_rcc.c ****         __HAL_RCC_HSI_DISABLE();
 349:Drivers/STM32F4xx_HAL_Driver/Src/stm32f4xx_hal_rcc.c **** 
 350:Drivers/STM32F4xx_HAL_Driver/Src/stm32f4xx_hal_rcc.c ****         /* Get Start Tick*/
 351:Drivers/STM32F4xx_HAL_Driver/Src/stm32f4xx_hal_rcc.c ****         tickstart = HAL_GetTick();
 352:Drivers/STM32F4xx_HAL_Driver/Src/stm32f4xx_hal_rcc.c **** 
 353:Drivers/STM32F4xx_HAL_Driver/Src/stm32f4xx_hal_rcc.c ****         /* Wait till HSI is ready */
 354:Drivers/STM32F4xx_HAL_Driver/Src/stm32f4xx_hal_rcc.c ****         while(__HAL_RCC_GET_FLAG(RCC_FLAG_HSIRDY) != RESET)
ARM GAS  C:\Users\n-is\AppData\Local\Temp\ccbtDXWy.s 			page 13


 355:Drivers/STM32F4xx_HAL_Driver/Src/stm32f4xx_hal_rcc.c ****         {
 356:Drivers/STM32F4xx_HAL_Driver/Src/stm32f4xx_hal_rcc.c ****           if((HAL_GetTick() - tickstart ) > HSI_TIMEOUT_VALUE)
 357:Drivers/STM32F4xx_HAL_Driver/Src/stm32f4xx_hal_rcc.c ****           {
 358:Drivers/STM32F4xx_HAL_Driver/Src/stm32f4xx_hal_rcc.c ****             return HAL_TIMEOUT;
 359:Drivers/STM32F4xx_HAL_Driver/Src/stm32f4xx_hal_rcc.c ****           }
 360:Drivers/STM32F4xx_HAL_Driver/Src/stm32f4xx_hal_rcc.c ****         }
 361:Drivers/STM32F4xx_HAL_Driver/Src/stm32f4xx_hal_rcc.c ****       }
 362:Drivers/STM32F4xx_HAL_Driver/Src/stm32f4xx_hal_rcc.c ****     }
 363:Drivers/STM32F4xx_HAL_Driver/Src/stm32f4xx_hal_rcc.c ****   }
 364:Drivers/STM32F4xx_HAL_Driver/Src/stm32f4xx_hal_rcc.c ****   /*------------------------------ LSI Configuration -------------------------*/
 365:Drivers/STM32F4xx_HAL_Driver/Src/stm32f4xx_hal_rcc.c ****   if(((RCC_OscInitStruct->OscillatorType) & RCC_OSCILLATORTYPE_LSI) == RCC_OSCILLATORTYPE_LSI)
 313              		.loc 1 365 0
 314 018e 2368     		ldr	r3, [r4]
 315 0190 13F0080F 		tst	r3, #8
 316 0194 49D0     		beq	.L28
 366:Drivers/STM32F4xx_HAL_Driver/Src/stm32f4xx_hal_rcc.c ****   {
 367:Drivers/STM32F4xx_HAL_Driver/Src/stm32f4xx_hal_rcc.c ****     /* Check the parameters */
 368:Drivers/STM32F4xx_HAL_Driver/Src/stm32f4xx_hal_rcc.c ****     assert_param(IS_RCC_LSI(RCC_OscInitStruct->LSIState));
 317              		.loc 1 368 0
 318 0196 6369     		ldr	r3, [r4, #20]
 319 0198 012B     		cmp	r3, #1
 320 019a 2ED8     		bhi	.L95
 321              	.L29:
 369:Drivers/STM32F4xx_HAL_Driver/Src/stm32f4xx_hal_rcc.c **** 
 370:Drivers/STM32F4xx_HAL_Driver/Src/stm32f4xx_hal_rcc.c ****     /* Check the LSI State */
 371:Drivers/STM32F4xx_HAL_Driver/Src/stm32f4xx_hal_rcc.c ****     if((RCC_OscInitStruct->LSIState)!= RCC_LSI_OFF)
 322              		.loc 1 371 0
 323 019c 6369     		ldr	r3, [r4, #20]
 324 019e 93B3     		cbz	r3, .L30
 372:Drivers/STM32F4xx_HAL_Driver/Src/stm32f4xx_hal_rcc.c ****     {
 373:Drivers/STM32F4xx_HAL_Driver/Src/stm32f4xx_hal_rcc.c ****       /* Enable the Internal Low Speed oscillator (LSI). */
 374:Drivers/STM32F4xx_HAL_Driver/Src/stm32f4xx_hal_rcc.c ****       __HAL_RCC_LSI_ENABLE();
 325              		.loc 1 374 0
 326 01a0 4A4B     		ldr	r3, .L110+12
 327 01a2 0122     		movs	r2, #1
 328 01a4 1A60     		str	r2, [r3]
 375:Drivers/STM32F4xx_HAL_Driver/Src/stm32f4xx_hal_rcc.c **** 
 376:Drivers/STM32F4xx_HAL_Driver/Src/stm32f4xx_hal_rcc.c ****       /* Get Start Tick*/
 377:Drivers/STM32F4xx_HAL_Driver/Src/stm32f4xx_hal_rcc.c ****       tickstart = HAL_GetTick();
 329              		.loc 1 377 0
 330 01a6 FFF7FEFF 		bl	HAL_GetTick
 331              	.LVL19:
 332 01aa 0546     		mov	r5, r0
 333              	.LVL20:
 334              	.L31:
 378:Drivers/STM32F4xx_HAL_Driver/Src/stm32f4xx_hal_rcc.c **** 
 379:Drivers/STM32F4xx_HAL_Driver/Src/stm32f4xx_hal_rcc.c ****       /* Wait till LSI is ready */
 380:Drivers/STM32F4xx_HAL_Driver/Src/stm32f4xx_hal_rcc.c ****       while(__HAL_RCC_GET_FLAG(RCC_FLAG_LSIRDY) == RESET)
 335              		.loc 1 380 0
 336 01ac 444B     		ldr	r3, .L110
 337 01ae 5B6F     		ldr	r3, [r3, #116]
 338 01b0 13F0020F 		tst	r3, #2
 339 01b4 39D1     		bne	.L28
 381:Drivers/STM32F4xx_HAL_Driver/Src/stm32f4xx_hal_rcc.c ****       {
 382:Drivers/STM32F4xx_HAL_Driver/Src/stm32f4xx_hal_rcc.c ****         if((HAL_GetTick() - tickstart ) > LSI_TIMEOUT_VALUE)
 340              		.loc 1 382 0
 341 01b6 FFF7FEFF 		bl	HAL_GetTick
ARM GAS  C:\Users\n-is\AppData\Local\Temp\ccbtDXWy.s 			page 14


 342              	.LVL21:
 343 01ba 401B     		subs	r0, r0, r5
 344 01bc 0228     		cmp	r0, #2
 345 01be F5D9     		bls	.L31
 383:Drivers/STM32F4xx_HAL_Driver/Src/stm32f4xx_hal_rcc.c ****         {
 384:Drivers/STM32F4xx_HAL_Driver/Src/stm32f4xx_hal_rcc.c ****           return HAL_TIMEOUT;
 346              		.loc 1 384 0
 347 01c0 0320     		movs	r0, #3
 348 01c2 61E1     		b	.L3
 349              	.L94:
 343:Drivers/STM32F4xx_HAL_Driver/Src/stm32f4xx_hal_rcc.c ****       }
 350              		.loc 1 343 0
 351 01c4 3E4A     		ldr	r2, .L110
 352 01c6 1368     		ldr	r3, [r2]
 353 01c8 23F0F803 		bic	r3, r3, #248
 354 01cc 2169     		ldr	r1, [r4, #16]
 355 01ce 43EAC103 		orr	r3, r3, r1, lsl #3
 356 01d2 1360     		str	r3, [r2]
 357 01d4 DBE7     		b	.L17
 358              	.LVL22:
 359              	.L23:
 348:Drivers/STM32F4xx_HAL_Driver/Src/stm32f4xx_hal_rcc.c **** 
 360              		.loc 1 348 0
 361 01d6 3C4B     		ldr	r3, .L110+8
 362 01d8 0022     		movs	r2, #0
 363 01da 1A60     		str	r2, [r3]
 351:Drivers/STM32F4xx_HAL_Driver/Src/stm32f4xx_hal_rcc.c **** 
 364              		.loc 1 351 0
 365 01dc FFF7FEFF 		bl	HAL_GetTick
 366              	.LVL23:
 367 01e0 0546     		mov	r5, r0
 368              	.LVL24:
 369              	.L26:
 354:Drivers/STM32F4xx_HAL_Driver/Src/stm32f4xx_hal_rcc.c ****         {
 370              		.loc 1 354 0
 371 01e2 374B     		ldr	r3, .L110
 372 01e4 1B68     		ldr	r3, [r3]
 373 01e6 13F0020F 		tst	r3, #2
 374 01ea D0D0     		beq	.L17
 356:Drivers/STM32F4xx_HAL_Driver/Src/stm32f4xx_hal_rcc.c ****           {
 375              		.loc 1 356 0
 376 01ec FFF7FEFF 		bl	HAL_GetTick
 377              	.LVL25:
 378 01f0 401B     		subs	r0, r0, r5
 379 01f2 0228     		cmp	r0, #2
 380 01f4 F5D9     		bls	.L26
 358:Drivers/STM32F4xx_HAL_Driver/Src/stm32f4xx_hal_rcc.c ****           }
 381              		.loc 1 358 0
 382 01f6 0320     		movs	r0, #3
 383 01f8 46E1     		b	.L3
 384              	.LVL26:
 385              	.L95:
 368:Drivers/STM32F4xx_HAL_Driver/Src/stm32f4xx_hal_rcc.c **** 
 386              		.loc 1 368 0 discriminator 1
 387 01fa 4FF4B871 		mov	r1, #368
 388 01fe 3148     		ldr	r0, .L110+4
 389 0200 FFF7FEFF 		bl	assert_failed
ARM GAS  C:\Users\n-is\AppData\Local\Temp\ccbtDXWy.s 			page 15


 390              	.LVL27:
 391 0204 CAE7     		b	.L29
 392              	.L30:
 385:Drivers/STM32F4xx_HAL_Driver/Src/stm32f4xx_hal_rcc.c ****         }
 386:Drivers/STM32F4xx_HAL_Driver/Src/stm32f4xx_hal_rcc.c ****       }
 387:Drivers/STM32F4xx_HAL_Driver/Src/stm32f4xx_hal_rcc.c ****     }
 388:Drivers/STM32F4xx_HAL_Driver/Src/stm32f4xx_hal_rcc.c ****     else
 389:Drivers/STM32F4xx_HAL_Driver/Src/stm32f4xx_hal_rcc.c ****     {
 390:Drivers/STM32F4xx_HAL_Driver/Src/stm32f4xx_hal_rcc.c ****       /* Disable the Internal Low Speed oscillator (LSI). */
 391:Drivers/STM32F4xx_HAL_Driver/Src/stm32f4xx_hal_rcc.c ****       __HAL_RCC_LSI_DISABLE();
 393              		.loc 1 391 0
 394 0206 314B     		ldr	r3, .L110+12
 395 0208 0022     		movs	r2, #0
 396 020a 1A60     		str	r2, [r3]
 392:Drivers/STM32F4xx_HAL_Driver/Src/stm32f4xx_hal_rcc.c **** 
 393:Drivers/STM32F4xx_HAL_Driver/Src/stm32f4xx_hal_rcc.c ****       /* Get Start Tick */
 394:Drivers/STM32F4xx_HAL_Driver/Src/stm32f4xx_hal_rcc.c ****       tickstart = HAL_GetTick();
 397              		.loc 1 394 0
 398 020c FFF7FEFF 		bl	HAL_GetTick
 399              	.LVL28:
 400 0210 0546     		mov	r5, r0
 401              	.LVL29:
 402              	.L33:
 395:Drivers/STM32F4xx_HAL_Driver/Src/stm32f4xx_hal_rcc.c **** 
 396:Drivers/STM32F4xx_HAL_Driver/Src/stm32f4xx_hal_rcc.c ****       /* Wait till LSI is ready */
 397:Drivers/STM32F4xx_HAL_Driver/Src/stm32f4xx_hal_rcc.c ****       while(__HAL_RCC_GET_FLAG(RCC_FLAG_LSIRDY) != RESET)
 403              		.loc 1 397 0
 404 0212 2B4B     		ldr	r3, .L110
 405 0214 5B6F     		ldr	r3, [r3, #116]
 406 0216 13F0020F 		tst	r3, #2
 407 021a 06D0     		beq	.L28
 398:Drivers/STM32F4xx_HAL_Driver/Src/stm32f4xx_hal_rcc.c ****       {
 399:Drivers/STM32F4xx_HAL_Driver/Src/stm32f4xx_hal_rcc.c ****         if((HAL_GetTick() - tickstart ) > LSI_TIMEOUT_VALUE)
 408              		.loc 1 399 0
 409 021c FFF7FEFF 		bl	HAL_GetTick
 410              	.LVL30:
 411 0220 401B     		subs	r0, r0, r5
 412 0222 0228     		cmp	r0, #2
 413 0224 F5D9     		bls	.L33
 400:Drivers/STM32F4xx_HAL_Driver/Src/stm32f4xx_hal_rcc.c ****         {
 401:Drivers/STM32F4xx_HAL_Driver/Src/stm32f4xx_hal_rcc.c ****           return HAL_TIMEOUT;
 414              		.loc 1 401 0
 415 0226 0320     		movs	r0, #3
 416 0228 2EE1     		b	.L3
 417              	.LVL31:
 418              	.L28:
 402:Drivers/STM32F4xx_HAL_Driver/Src/stm32f4xx_hal_rcc.c ****         }
 403:Drivers/STM32F4xx_HAL_Driver/Src/stm32f4xx_hal_rcc.c ****       }
 404:Drivers/STM32F4xx_HAL_Driver/Src/stm32f4xx_hal_rcc.c ****     }
 405:Drivers/STM32F4xx_HAL_Driver/Src/stm32f4xx_hal_rcc.c ****   }
 406:Drivers/STM32F4xx_HAL_Driver/Src/stm32f4xx_hal_rcc.c ****   /*------------------------------ LSE Configuration -------------------------*/
 407:Drivers/STM32F4xx_HAL_Driver/Src/stm32f4xx_hal_rcc.c ****   if(((RCC_OscInitStruct->OscillatorType) & RCC_OSCILLATORTYPE_LSE) == RCC_OSCILLATORTYPE_LSE)
 419              		.loc 1 407 0
 420 022a 2368     		ldr	r3, [r4]
 421 022c 13F0040F 		tst	r3, #4
 422 0230 00F08780 		beq	.L35
 423              	.LVL32:
ARM GAS  C:\Users\n-is\AppData\Local\Temp\ccbtDXWy.s 			page 16


 424              	.LBB2:
 408:Drivers/STM32F4xx_HAL_Driver/Src/stm32f4xx_hal_rcc.c ****   {
 409:Drivers/STM32F4xx_HAL_Driver/Src/stm32f4xx_hal_rcc.c ****     FlagStatus       pwrclkchanged = RESET;
 410:Drivers/STM32F4xx_HAL_Driver/Src/stm32f4xx_hal_rcc.c **** 
 411:Drivers/STM32F4xx_HAL_Driver/Src/stm32f4xx_hal_rcc.c ****     /* Check the parameters */
 412:Drivers/STM32F4xx_HAL_Driver/Src/stm32f4xx_hal_rcc.c ****     assert_param(IS_RCC_LSE(RCC_OscInitStruct->LSEState));
 425              		.loc 1 412 0
 426 0234 A368     		ldr	r3, [r4, #8]
 427 0236 012B     		cmp	r3, #1
 428 0238 01D9     		bls	.L36
 429              		.loc 1 412 0 is_stmt 0 discriminator 1
 430 023a 052B     		cmp	r3, #5
 431 023c 38D1     		bne	.L96
 432              	.L36:
 413:Drivers/STM32F4xx_HAL_Driver/Src/stm32f4xx_hal_rcc.c **** 
 414:Drivers/STM32F4xx_HAL_Driver/Src/stm32f4xx_hal_rcc.c ****     /* Update LSE configuration in Backup Domain control register    */
 415:Drivers/STM32F4xx_HAL_Driver/Src/stm32f4xx_hal_rcc.c ****     /* Requires to enable write access to Backup Domain of necessary */
 416:Drivers/STM32F4xx_HAL_Driver/Src/stm32f4xx_hal_rcc.c ****     if(__HAL_RCC_PWR_IS_CLK_DISABLED())
 433              		.loc 1 416 0 is_stmt 1
 434 023e 204B     		ldr	r3, .L110
 435 0240 1B6C     		ldr	r3, [r3, #64]
 436 0242 13F0805F 		tst	r3, #268435456
 437 0246 39D1     		bne	.L72
 438              	.LBB3:
 417:Drivers/STM32F4xx_HAL_Driver/Src/stm32f4xx_hal_rcc.c ****     {
 418:Drivers/STM32F4xx_HAL_Driver/Src/stm32f4xx_hal_rcc.c ****       __HAL_RCC_PWR_CLK_ENABLE();
 439              		.loc 1 418 0
 440 0248 0023     		movs	r3, #0
 441 024a 0193     		str	r3, [sp, #4]
 442 024c 1C4B     		ldr	r3, .L110
 443 024e 1A6C     		ldr	r2, [r3, #64]
 444 0250 42F08052 		orr	r2, r2, #268435456
 445 0254 1A64     		str	r2, [r3, #64]
 446 0256 1B6C     		ldr	r3, [r3, #64]
 447 0258 03F08053 		and	r3, r3, #268435456
 448 025c 0193     		str	r3, [sp, #4]
 449 025e 019B     		ldr	r3, [sp, #4]
 450              	.LVL33:
 451              	.LBE3:
 419:Drivers/STM32F4xx_HAL_Driver/Src/stm32f4xx_hal_rcc.c ****       pwrclkchanged = SET;
 452              		.loc 1 419 0
 453 0260 0125     		movs	r5, #1
 454              	.LVL34:
 455              	.L37:
 420:Drivers/STM32F4xx_HAL_Driver/Src/stm32f4xx_hal_rcc.c ****     }
 421:Drivers/STM32F4xx_HAL_Driver/Src/stm32f4xx_hal_rcc.c **** 
 422:Drivers/STM32F4xx_HAL_Driver/Src/stm32f4xx_hal_rcc.c ****     if(HAL_IS_BIT_CLR(PWR->CR, PWR_CR_DBP))
 456              		.loc 1 422 0
 457 0262 1B4B     		ldr	r3, .L110+16
 458 0264 1B68     		ldr	r3, [r3]
 459 0266 13F4807F 		tst	r3, #256
 460 026a 33D0     		beq	.L97
 461              	.L38:
 423:Drivers/STM32F4xx_HAL_Driver/Src/stm32f4xx_hal_rcc.c ****     {
 424:Drivers/STM32F4xx_HAL_Driver/Src/stm32f4xx_hal_rcc.c ****       /* Enable write access to Backup domain */
 425:Drivers/STM32F4xx_HAL_Driver/Src/stm32f4xx_hal_rcc.c ****       SET_BIT(PWR->CR, PWR_CR_DBP);
 426:Drivers/STM32F4xx_HAL_Driver/Src/stm32f4xx_hal_rcc.c **** 
ARM GAS  C:\Users\n-is\AppData\Local\Temp\ccbtDXWy.s 			page 17


 427:Drivers/STM32F4xx_HAL_Driver/Src/stm32f4xx_hal_rcc.c ****       /* Wait for Backup domain Write protection disable */
 428:Drivers/STM32F4xx_HAL_Driver/Src/stm32f4xx_hal_rcc.c ****       tickstart = HAL_GetTick();
 429:Drivers/STM32F4xx_HAL_Driver/Src/stm32f4xx_hal_rcc.c **** 
 430:Drivers/STM32F4xx_HAL_Driver/Src/stm32f4xx_hal_rcc.c ****       while(HAL_IS_BIT_CLR(PWR->CR, PWR_CR_DBP))
 431:Drivers/STM32F4xx_HAL_Driver/Src/stm32f4xx_hal_rcc.c ****       {
 432:Drivers/STM32F4xx_HAL_Driver/Src/stm32f4xx_hal_rcc.c ****         if((HAL_GetTick() - tickstart) > RCC_DBP_TIMEOUT_VALUE)
 433:Drivers/STM32F4xx_HAL_Driver/Src/stm32f4xx_hal_rcc.c ****         {
 434:Drivers/STM32F4xx_HAL_Driver/Src/stm32f4xx_hal_rcc.c ****           return HAL_TIMEOUT;
 435:Drivers/STM32F4xx_HAL_Driver/Src/stm32f4xx_hal_rcc.c ****         }
 436:Drivers/STM32F4xx_HAL_Driver/Src/stm32f4xx_hal_rcc.c ****       }
 437:Drivers/STM32F4xx_HAL_Driver/Src/stm32f4xx_hal_rcc.c ****     }
 438:Drivers/STM32F4xx_HAL_Driver/Src/stm32f4xx_hal_rcc.c **** 
 439:Drivers/STM32F4xx_HAL_Driver/Src/stm32f4xx_hal_rcc.c ****     /* Set the new LSE configuration -----------------------------------------*/
 440:Drivers/STM32F4xx_HAL_Driver/Src/stm32f4xx_hal_rcc.c ****     __HAL_RCC_LSE_CONFIG(RCC_OscInitStruct->LSEState);
 462              		.loc 1 440 0
 463 026c A368     		ldr	r3, [r4, #8]
 464 026e 012B     		cmp	r3, #1
 465 0270 44D0     		beq	.L98
 466              		.loc 1 440 0 is_stmt 0 discriminator 2
 467 0272 052B     		cmp	r3, #5
 468 0274 48D0     		beq	.L99
 469              		.loc 1 440 0 discriminator 4
 470 0276 124B     		ldr	r3, .L110
 471 0278 1A6F     		ldr	r2, [r3, #112]
 472 027a 22F00102 		bic	r2, r2, #1
 473 027e 1A67     		str	r2, [r3, #112]
 474 0280 1A6F     		ldr	r2, [r3, #112]
 475 0282 22F00402 		bic	r2, r2, #4
 476 0286 1A67     		str	r2, [r3, #112]
 477              	.L42:
 441:Drivers/STM32F4xx_HAL_Driver/Src/stm32f4xx_hal_rcc.c ****     /* Check the LSE State */
 442:Drivers/STM32F4xx_HAL_Driver/Src/stm32f4xx_hal_rcc.c ****     if((RCC_OscInitStruct->LSEState) != RCC_LSE_OFF)
 478              		.loc 1 442 0 is_stmt 1
 479 0288 A368     		ldr	r3, [r4, #8]
 480 028a 002B     		cmp	r3, #0
 481 028c 46D0     		beq	.L44
 443:Drivers/STM32F4xx_HAL_Driver/Src/stm32f4xx_hal_rcc.c ****     {
 444:Drivers/STM32F4xx_HAL_Driver/Src/stm32f4xx_hal_rcc.c ****       /* Get Start Tick*/
 445:Drivers/STM32F4xx_HAL_Driver/Src/stm32f4xx_hal_rcc.c ****       tickstart = HAL_GetTick();
 482              		.loc 1 445 0
 483 028e FFF7FEFF 		bl	HAL_GetTick
 484              	.LVL35:
 485 0292 0646     		mov	r6, r0
 486              	.LVL36:
 487              	.L45:
 446:Drivers/STM32F4xx_HAL_Driver/Src/stm32f4xx_hal_rcc.c **** 
 447:Drivers/STM32F4xx_HAL_Driver/Src/stm32f4xx_hal_rcc.c ****       /* Wait till LSE is ready */
 448:Drivers/STM32F4xx_HAL_Driver/Src/stm32f4xx_hal_rcc.c ****       while(__HAL_RCC_GET_FLAG(RCC_FLAG_LSERDY) == RESET)
 488              		.loc 1 448 0
 489 0294 0A4B     		ldr	r3, .L110
 490 0296 1B6F     		ldr	r3, [r3, #112]
 491 0298 13F0020F 		tst	r3, #2
 492 029c 4FD1     		bne	.L47
 449:Drivers/STM32F4xx_HAL_Driver/Src/stm32f4xx_hal_rcc.c ****       {
 450:Drivers/STM32F4xx_HAL_Driver/Src/stm32f4xx_hal_rcc.c ****         if((HAL_GetTick() - tickstart ) > RCC_LSE_TIMEOUT_VALUE)
 493              		.loc 1 450 0
 494 029e FFF7FEFF 		bl	HAL_GetTick
ARM GAS  C:\Users\n-is\AppData\Local\Temp\ccbtDXWy.s 			page 18


 495              	.LVL37:
 496 02a2 801B     		subs	r0, r0, r6
 497 02a4 41F28833 		movw	r3, #5000
 498 02a8 9842     		cmp	r0, r3
 499 02aa F3D9     		bls	.L45
 451:Drivers/STM32F4xx_HAL_Driver/Src/stm32f4xx_hal_rcc.c ****         {
 452:Drivers/STM32F4xx_HAL_Driver/Src/stm32f4xx_hal_rcc.c ****           return HAL_TIMEOUT;
 500              		.loc 1 452 0
 501 02ac 0320     		movs	r0, #3
 502 02ae EBE0     		b	.L3
 503              	.LVL38:
 504              	.L96:
 412:Drivers/STM32F4xx_HAL_Driver/Src/stm32f4xx_hal_rcc.c **** 
 505              		.loc 1 412 0 discriminator 2
 506 02b0 4FF4CE71 		mov	r1, #412
 507 02b4 0348     		ldr	r0, .L110+4
 508 02b6 FFF7FEFF 		bl	assert_failed
 509              	.LVL39:
 510 02ba C0E7     		b	.L36
 511              	.L72:
 409:Drivers/STM32F4xx_HAL_Driver/Src/stm32f4xx_hal_rcc.c **** 
 512              		.loc 1 409 0
 513 02bc 0025     		movs	r5, #0
 514 02be D0E7     		b	.L37
 515              	.L111:
 516              		.align	2
 517              	.L110:
 518 02c0 00380240 		.word	1073887232
 519 02c4 00000000 		.word	.LC0
 520 02c8 00004742 		.word	1111949312
 521 02cc 800E4742 		.word	1111953024
 522 02d0 00700040 		.word	1073770496
 523              	.LVL40:
 524              	.L97:
 425:Drivers/STM32F4xx_HAL_Driver/Src/stm32f4xx_hal_rcc.c **** 
 525              		.loc 1 425 0
 526 02d4 6E4A     		ldr	r2, .L112
 527 02d6 1368     		ldr	r3, [r2]
 528 02d8 43F48073 		orr	r3, r3, #256
 529 02dc 1360     		str	r3, [r2]
 428:Drivers/STM32F4xx_HAL_Driver/Src/stm32f4xx_hal_rcc.c **** 
 530              		.loc 1 428 0
 531 02de FFF7FEFF 		bl	HAL_GetTick
 532              	.LVL41:
 533 02e2 0646     		mov	r6, r0
 534              	.LVL42:
 535              	.L39:
 430:Drivers/STM32F4xx_HAL_Driver/Src/stm32f4xx_hal_rcc.c ****       {
 536              		.loc 1 430 0
 537 02e4 6A4B     		ldr	r3, .L112
 538 02e6 1B68     		ldr	r3, [r3]
 539 02e8 13F4807F 		tst	r3, #256
 540 02ec BED1     		bne	.L38
 432:Drivers/STM32F4xx_HAL_Driver/Src/stm32f4xx_hal_rcc.c ****         {
 541              		.loc 1 432 0
 542 02ee FFF7FEFF 		bl	HAL_GetTick
 543              	.LVL43:
ARM GAS  C:\Users\n-is\AppData\Local\Temp\ccbtDXWy.s 			page 19


 544 02f2 801B     		subs	r0, r0, r6
 545 02f4 0228     		cmp	r0, #2
 546 02f6 F5D9     		bls	.L39
 434:Drivers/STM32F4xx_HAL_Driver/Src/stm32f4xx_hal_rcc.c ****         }
 547              		.loc 1 434 0
 548 02f8 0320     		movs	r0, #3
 549 02fa C5E0     		b	.L3
 550              	.LVL44:
 551              	.L98:
 440:Drivers/STM32F4xx_HAL_Driver/Src/stm32f4xx_hal_rcc.c ****     /* Check the LSE State */
 552              		.loc 1 440 0 discriminator 1
 553 02fc 654A     		ldr	r2, .L112+4
 554 02fe 136F     		ldr	r3, [r2, #112]
 555 0300 43F00103 		orr	r3, r3, #1
 556 0304 1367     		str	r3, [r2, #112]
 557 0306 BFE7     		b	.L42
 558              	.L99:
 440:Drivers/STM32F4xx_HAL_Driver/Src/stm32f4xx_hal_rcc.c ****     /* Check the LSE State */
 559              		.loc 1 440 0 is_stmt 0 discriminator 3
 560 0308 624B     		ldr	r3, .L112+4
 561 030a 1A6F     		ldr	r2, [r3, #112]
 562 030c 42F00402 		orr	r2, r2, #4
 563 0310 1A67     		str	r2, [r3, #112]
 564 0312 1A6F     		ldr	r2, [r3, #112]
 565 0314 42F00102 		orr	r2, r2, #1
 566 0318 1A67     		str	r2, [r3, #112]
 567 031a B5E7     		b	.L42
 568              	.L44:
 453:Drivers/STM32F4xx_HAL_Driver/Src/stm32f4xx_hal_rcc.c ****         }
 454:Drivers/STM32F4xx_HAL_Driver/Src/stm32f4xx_hal_rcc.c ****       }
 455:Drivers/STM32F4xx_HAL_Driver/Src/stm32f4xx_hal_rcc.c ****     }
 456:Drivers/STM32F4xx_HAL_Driver/Src/stm32f4xx_hal_rcc.c ****     else
 457:Drivers/STM32F4xx_HAL_Driver/Src/stm32f4xx_hal_rcc.c ****     {
 458:Drivers/STM32F4xx_HAL_Driver/Src/stm32f4xx_hal_rcc.c ****       /* Get Start Tick */
 459:Drivers/STM32F4xx_HAL_Driver/Src/stm32f4xx_hal_rcc.c ****       tickstart = HAL_GetTick();
 569              		.loc 1 459 0 is_stmt 1
 570 031c FFF7FEFF 		bl	HAL_GetTick
 571              	.LVL45:
 572 0320 0646     		mov	r6, r0
 573              	.LVL46:
 574              	.L48:
 460:Drivers/STM32F4xx_HAL_Driver/Src/stm32f4xx_hal_rcc.c **** 
 461:Drivers/STM32F4xx_HAL_Driver/Src/stm32f4xx_hal_rcc.c ****       /* Wait till LSE is ready */
 462:Drivers/STM32F4xx_HAL_Driver/Src/stm32f4xx_hal_rcc.c ****       while(__HAL_RCC_GET_FLAG(RCC_FLAG_LSERDY) != RESET)
 575              		.loc 1 462 0
 576 0322 5C4B     		ldr	r3, .L112+4
 577 0324 1B6F     		ldr	r3, [r3, #112]
 578 0326 13F0020F 		tst	r3, #2
 579 032a 08D0     		beq	.L47
 463:Drivers/STM32F4xx_HAL_Driver/Src/stm32f4xx_hal_rcc.c ****       {
 464:Drivers/STM32F4xx_HAL_Driver/Src/stm32f4xx_hal_rcc.c ****         if((HAL_GetTick() - tickstart ) > RCC_LSE_TIMEOUT_VALUE)
 580              		.loc 1 464 0
 581 032c FFF7FEFF 		bl	HAL_GetTick
 582              	.LVL47:
 583 0330 801B     		subs	r0, r0, r6
 584 0332 41F28833 		movw	r3, #5000
 585 0336 9842     		cmp	r0, r3
ARM GAS  C:\Users\n-is\AppData\Local\Temp\ccbtDXWy.s 			page 20


 586 0338 F3D9     		bls	.L48
 465:Drivers/STM32F4xx_HAL_Driver/Src/stm32f4xx_hal_rcc.c ****         {
 466:Drivers/STM32F4xx_HAL_Driver/Src/stm32f4xx_hal_rcc.c ****           return HAL_TIMEOUT;
 587              		.loc 1 466 0
 588 033a 0320     		movs	r0, #3
 589 033c A4E0     		b	.L3
 590              	.L47:
 467:Drivers/STM32F4xx_HAL_Driver/Src/stm32f4xx_hal_rcc.c ****         }
 468:Drivers/STM32F4xx_HAL_Driver/Src/stm32f4xx_hal_rcc.c ****       }
 469:Drivers/STM32F4xx_HAL_Driver/Src/stm32f4xx_hal_rcc.c ****     }
 470:Drivers/STM32F4xx_HAL_Driver/Src/stm32f4xx_hal_rcc.c **** 
 471:Drivers/STM32F4xx_HAL_Driver/Src/stm32f4xx_hal_rcc.c ****     /* Restore clock configuration if changed */
 472:Drivers/STM32F4xx_HAL_Driver/Src/stm32f4xx_hal_rcc.c ****     if(pwrclkchanged == SET)
 591              		.loc 1 472 0
 592 033e 002D     		cmp	r5, #0
 593 0340 3BD1     		bne	.L100
 594              	.LVL48:
 595              	.L35:
 596              	.LBE2:
 473:Drivers/STM32F4xx_HAL_Driver/Src/stm32f4xx_hal_rcc.c ****     {
 474:Drivers/STM32F4xx_HAL_Driver/Src/stm32f4xx_hal_rcc.c ****       __HAL_RCC_PWR_CLK_DISABLE();
 475:Drivers/STM32F4xx_HAL_Driver/Src/stm32f4xx_hal_rcc.c ****     }
 476:Drivers/STM32F4xx_HAL_Driver/Src/stm32f4xx_hal_rcc.c ****   }
 477:Drivers/STM32F4xx_HAL_Driver/Src/stm32f4xx_hal_rcc.c ****   /*-------------------------------- PLL Configuration -----------------------*/
 478:Drivers/STM32F4xx_HAL_Driver/Src/stm32f4xx_hal_rcc.c ****   /* Check the parameters */
 479:Drivers/STM32F4xx_HAL_Driver/Src/stm32f4xx_hal_rcc.c ****   assert_param(IS_RCC_PLL(RCC_OscInitStruct->PLL.PLLState));
 597              		.loc 1 479 0
 598 0342 A369     		ldr	r3, [r4, #24]
 599 0344 022B     		cmp	r3, #2
 600 0346 3ED8     		bhi	.L101
 601              	.L50:
 480:Drivers/STM32F4xx_HAL_Driver/Src/stm32f4xx_hal_rcc.c ****   if ((RCC_OscInitStruct->PLL.PLLState) != RCC_PLL_NONE)
 602              		.loc 1 480 0
 603 0348 A369     		ldr	r3, [r4, #24]
 604 034a 002B     		cmp	r3, #0
 605 034c 00F09B80 		beq	.L76
 481:Drivers/STM32F4xx_HAL_Driver/Src/stm32f4xx_hal_rcc.c ****   {
 482:Drivers/STM32F4xx_HAL_Driver/Src/stm32f4xx_hal_rcc.c ****     /* Check if the PLL is used as system clock or not */
 483:Drivers/STM32F4xx_HAL_Driver/Src/stm32f4xx_hal_rcc.c ****     if(__HAL_RCC_GET_SYSCLK_SOURCE() != RCC_CFGR_SWS_PLL)
 606              		.loc 1 483 0
 607 0350 504A     		ldr	r2, .L112+4
 608 0352 9268     		ldr	r2, [r2, #8]
 609 0354 02F00C02 		and	r2, r2, #12
 610 0358 082A     		cmp	r2, #8
 611 035a 00F09780 		beq	.L77
 484:Drivers/STM32F4xx_HAL_Driver/Src/stm32f4xx_hal_rcc.c ****     {
 485:Drivers/STM32F4xx_HAL_Driver/Src/stm32f4xx_hal_rcc.c ****       if((RCC_OscInitStruct->PLL.PLLState) == RCC_PLL_ON)
 612              		.loc 1 485 0
 613 035e 022B     		cmp	r3, #2
 614 0360 79D1     		bne	.L51
 486:Drivers/STM32F4xx_HAL_Driver/Src/stm32f4xx_hal_rcc.c ****       {
 487:Drivers/STM32F4xx_HAL_Driver/Src/stm32f4xx_hal_rcc.c ****         /* Check the parameters */
 488:Drivers/STM32F4xx_HAL_Driver/Src/stm32f4xx_hal_rcc.c ****         assert_param(IS_RCC_PLLSOURCE(RCC_OscInitStruct->PLL.PLLSource));
 615              		.loc 1 488 0
 616 0362 E369     		ldr	r3, [r4, #28]
 617 0364 13B1     		cbz	r3, .L52
 618              		.loc 1 488 0 is_stmt 0 discriminator 1
ARM GAS  C:\Users\n-is\AppData\Local\Temp\ccbtDXWy.s 			page 21


 619 0366 B3F5800F 		cmp	r3, #4194304
 620 036a 32D1     		bne	.L102
 621              	.L52:
 489:Drivers/STM32F4xx_HAL_Driver/Src/stm32f4xx_hal_rcc.c ****         assert_param(IS_RCC_PLLM_VALUE(RCC_OscInitStruct->PLL.PLLM));
 622              		.loc 1 489 0 is_stmt 1
 623 036c 236A     		ldr	r3, [r4, #32]
 624 036e 3F2B     		cmp	r3, #63
 625 0370 35D8     		bhi	.L103
 626              	.L53:
 490:Drivers/STM32F4xx_HAL_Driver/Src/stm32f4xx_hal_rcc.c ****         assert_param(IS_RCC_PLLN_VALUE(RCC_OscInitStruct->PLL.PLLN));
 627              		.loc 1 490 0
 628 0372 636A     		ldr	r3, [r4, #36]
 629 0374 323B     		subs	r3, r3, #50
 630 0376 B3F5BF7F 		cmp	r3, #382
 631 037a 36D8     		bhi	.L104
 632              	.L54:
 491:Drivers/STM32F4xx_HAL_Driver/Src/stm32f4xx_hal_rcc.c ****         assert_param(IS_RCC_PLLP_VALUE(RCC_OscInitStruct->PLL.PLLP));
 633              		.loc 1 491 0
 634 037c A36A     		ldr	r3, [r4, #40]
 635 037e 022B     		cmp	r3, #2
 636 0380 05D0     		beq	.L55
 637              		.loc 1 491 0 is_stmt 0 discriminator 1
 638 0382 042B     		cmp	r3, #4
 639 0384 03D0     		beq	.L55
 640              		.loc 1 491 0 discriminator 2
 641 0386 062B     		cmp	r3, #6
 642 0388 01D0     		beq	.L55
 643              		.loc 1 491 0 discriminator 3
 644 038a 082B     		cmp	r3, #8
 645 038c 33D1     		bne	.L105
 646              	.L55:
 492:Drivers/STM32F4xx_HAL_Driver/Src/stm32f4xx_hal_rcc.c ****         assert_param(IS_RCC_PLLQ_VALUE(RCC_OscInitStruct->PLL.PLLQ));
 647              		.loc 1 492 0 is_stmt 1
 648 038e E36A     		ldr	r3, [r4, #44]
 649 0390 023B     		subs	r3, r3, #2
 650 0392 0D2B     		cmp	r3, #13
 651 0394 35D8     		bhi	.L106
 652              	.L56:
 493:Drivers/STM32F4xx_HAL_Driver/Src/stm32f4xx_hal_rcc.c **** 
 494:Drivers/STM32F4xx_HAL_Driver/Src/stm32f4xx_hal_rcc.c ****         /* Disable the main PLL. */
 495:Drivers/STM32F4xx_HAL_Driver/Src/stm32f4xx_hal_rcc.c ****         __HAL_RCC_PLL_DISABLE();
 653              		.loc 1 495 0
 654 0396 404B     		ldr	r3, .L112+8
 655 0398 0022     		movs	r2, #0
 656 039a 1A60     		str	r2, [r3]
 496:Drivers/STM32F4xx_HAL_Driver/Src/stm32f4xx_hal_rcc.c **** 
 497:Drivers/STM32F4xx_HAL_Driver/Src/stm32f4xx_hal_rcc.c ****         /* Get Start Tick */
 498:Drivers/STM32F4xx_HAL_Driver/Src/stm32f4xx_hal_rcc.c ****         tickstart = HAL_GetTick();
 657              		.loc 1 498 0
 658 039c FFF7FEFF 		bl	HAL_GetTick
 659              	.LVL49:
 660 03a0 0546     		mov	r5, r0
 661              	.LVL50:
 662              	.L57:
 499:Drivers/STM32F4xx_HAL_Driver/Src/stm32f4xx_hal_rcc.c **** 
 500:Drivers/STM32F4xx_HAL_Driver/Src/stm32f4xx_hal_rcc.c ****         /* Wait till PLL is ready */
 501:Drivers/STM32F4xx_HAL_Driver/Src/stm32f4xx_hal_rcc.c ****         while(__HAL_RCC_GET_FLAG(RCC_FLAG_PLLRDY) != RESET)
ARM GAS  C:\Users\n-is\AppData\Local\Temp\ccbtDXWy.s 			page 22


 663              		.loc 1 501 0
 664 03a2 3C4B     		ldr	r3, .L112+4
 665 03a4 1B68     		ldr	r3, [r3]
 666 03a6 13F0007F 		tst	r3, #33554432
 667 03aa 30D0     		beq	.L107
 502:Drivers/STM32F4xx_HAL_Driver/Src/stm32f4xx_hal_rcc.c ****         {
 503:Drivers/STM32F4xx_HAL_Driver/Src/stm32f4xx_hal_rcc.c ****           if((HAL_GetTick() - tickstart ) > PLL_TIMEOUT_VALUE)
 668              		.loc 1 503 0
 669 03ac FFF7FEFF 		bl	HAL_GetTick
 670              	.LVL51:
 671 03b0 401B     		subs	r0, r0, r5
 672 03b2 0228     		cmp	r0, #2
 673 03b4 F5D9     		bls	.L57
 504:Drivers/STM32F4xx_HAL_Driver/Src/stm32f4xx_hal_rcc.c ****           {
 505:Drivers/STM32F4xx_HAL_Driver/Src/stm32f4xx_hal_rcc.c ****             return HAL_TIMEOUT;
 674              		.loc 1 505 0
 675 03b6 0320     		movs	r0, #3
 676 03b8 66E0     		b	.L3
 677              	.LVL52:
 678              	.L100:
 679              	.LBB4:
 474:Drivers/STM32F4xx_HAL_Driver/Src/stm32f4xx_hal_rcc.c ****     }
 680              		.loc 1 474 0
 681 03ba 364A     		ldr	r2, .L112+4
 682 03bc 136C     		ldr	r3, [r2, #64]
 683 03be 23F08053 		bic	r3, r3, #268435456
 684 03c2 1364     		str	r3, [r2, #64]
 685 03c4 BDE7     		b	.L35
 686              	.LVL53:
 687              	.L101:
 688              	.LBE4:
 479:Drivers/STM32F4xx_HAL_Driver/Src/stm32f4xx_hal_rcc.c ****   if ((RCC_OscInitStruct->PLL.PLLState) != RCC_PLL_NONE)
 689              		.loc 1 479 0 discriminator 1
 690 03c6 40F2DF11 		movw	r1, #479
 691 03ca 3448     		ldr	r0, .L112+12
 692 03cc FFF7FEFF 		bl	assert_failed
 693              	.LVL54:
 694 03d0 BAE7     		b	.L50
 695              	.L102:
 488:Drivers/STM32F4xx_HAL_Driver/Src/stm32f4xx_hal_rcc.c ****         assert_param(IS_RCC_PLLM_VALUE(RCC_OscInitStruct->PLL.PLLM));
 696              		.loc 1 488 0 discriminator 2
 697 03d2 4FF4F471 		mov	r1, #488
 698 03d6 3148     		ldr	r0, .L112+12
 699 03d8 FFF7FEFF 		bl	assert_failed
 700              	.LVL55:
 701 03dc C6E7     		b	.L52
 702              	.L103:
 489:Drivers/STM32F4xx_HAL_Driver/Src/stm32f4xx_hal_rcc.c ****         assert_param(IS_RCC_PLLN_VALUE(RCC_OscInitStruct->PLL.PLLN));
 703              		.loc 1 489 0 discriminator 1
 704 03de 40F2E911 		movw	r1, #489
 705 03e2 2E48     		ldr	r0, .L112+12
 706 03e4 FFF7FEFF 		bl	assert_failed
 707              	.LVL56:
 708 03e8 C3E7     		b	.L53
 709              	.L104:
 490:Drivers/STM32F4xx_HAL_Driver/Src/stm32f4xx_hal_rcc.c ****         assert_param(IS_RCC_PLLP_VALUE(RCC_OscInitStruct->PLL.PLLP));
 710              		.loc 1 490 0 discriminator 1
ARM GAS  C:\Users\n-is\AppData\Local\Temp\ccbtDXWy.s 			page 23


 711 03ea 4FF4F571 		mov	r1, #490
 712 03ee 2B48     		ldr	r0, .L112+12
 713 03f0 FFF7FEFF 		bl	assert_failed
 714              	.LVL57:
 715 03f4 C2E7     		b	.L54
 716              	.L105:
 491:Drivers/STM32F4xx_HAL_Driver/Src/stm32f4xx_hal_rcc.c ****         assert_param(IS_RCC_PLLQ_VALUE(RCC_OscInitStruct->PLL.PLLQ));
 717              		.loc 1 491 0 discriminator 4
 718 03f6 40F2EB11 		movw	r1, #491
 719 03fa 2848     		ldr	r0, .L112+12
 720 03fc FFF7FEFF 		bl	assert_failed
 721              	.LVL58:
 722 0400 C5E7     		b	.L55
 723              	.L106:
 492:Drivers/STM32F4xx_HAL_Driver/Src/stm32f4xx_hal_rcc.c **** 
 724              		.loc 1 492 0 discriminator 1
 725 0402 4FF4F671 		mov	r1, #492
 726 0406 2548     		ldr	r0, .L112+12
 727 0408 FFF7FEFF 		bl	assert_failed
 728              	.LVL59:
 729 040c C3E7     		b	.L56
 730              	.LVL60:
 731              	.L107:
 506:Drivers/STM32F4xx_HAL_Driver/Src/stm32f4xx_hal_rcc.c ****           }
 507:Drivers/STM32F4xx_HAL_Driver/Src/stm32f4xx_hal_rcc.c ****         }
 508:Drivers/STM32F4xx_HAL_Driver/Src/stm32f4xx_hal_rcc.c **** 
 509:Drivers/STM32F4xx_HAL_Driver/Src/stm32f4xx_hal_rcc.c ****         /* Configure the main PLL clock source, multiplication and division factors. */
 510:Drivers/STM32F4xx_HAL_Driver/Src/stm32f4xx_hal_rcc.c ****         WRITE_REG(RCC->PLLCFGR, (RCC_OscInitStruct->PLL.PLLSource                                  
 732              		.loc 1 510 0
 733 040e E369     		ldr	r3, [r4, #28]
 734 0410 226A     		ldr	r2, [r4, #32]
 735 0412 1343     		orrs	r3, r3, r2
 736 0414 626A     		ldr	r2, [r4, #36]
 737 0416 43EA8213 		orr	r3, r3, r2, lsl #6
 738 041a A26A     		ldr	r2, [r4, #40]
 739 041c 5208     		lsrs	r2, r2, #1
 740 041e 013A     		subs	r2, r2, #1
 741 0420 43EA0243 		orr	r3, r3, r2, lsl #16
 742 0424 E26A     		ldr	r2, [r4, #44]
 743 0426 43EA0263 		orr	r3, r3, r2, lsl #24
 744 042a 1A4A     		ldr	r2, .L112+4
 745 042c 5360     		str	r3, [r2, #4]
 511:Drivers/STM32F4xx_HAL_Driver/Src/stm32f4xx_hal_rcc.c ****                                  RCC_OscInitStruct->PLL.PLLM                                       
 512:Drivers/STM32F4xx_HAL_Driver/Src/stm32f4xx_hal_rcc.c ****                                  (RCC_OscInitStruct->PLL.PLLN << RCC_PLLCFGR_PLLN_Pos)             
 513:Drivers/STM32F4xx_HAL_Driver/Src/stm32f4xx_hal_rcc.c ****                                  (((RCC_OscInitStruct->PLL.PLLP >> 1U) - 1U) << RCC_PLLCFGR_PLLP_Po
 514:Drivers/STM32F4xx_HAL_Driver/Src/stm32f4xx_hal_rcc.c ****                                  (RCC_OscInitStruct->PLL.PLLQ << RCC_PLLCFGR_PLLQ_Pos)));
 515:Drivers/STM32F4xx_HAL_Driver/Src/stm32f4xx_hal_rcc.c ****         /* Enable the main PLL. */
 516:Drivers/STM32F4xx_HAL_Driver/Src/stm32f4xx_hal_rcc.c ****         __HAL_RCC_PLL_ENABLE();
 746              		.loc 1 516 0
 747 042e 1A4B     		ldr	r3, .L112+8
 748 0430 0122     		movs	r2, #1
 749 0432 1A60     		str	r2, [r3]
 517:Drivers/STM32F4xx_HAL_Driver/Src/stm32f4xx_hal_rcc.c **** 
 518:Drivers/STM32F4xx_HAL_Driver/Src/stm32f4xx_hal_rcc.c ****         /* Get Start Tick */
 519:Drivers/STM32F4xx_HAL_Driver/Src/stm32f4xx_hal_rcc.c ****         tickstart = HAL_GetTick();
 750              		.loc 1 519 0
 751 0434 FFF7FEFF 		bl	HAL_GetTick
ARM GAS  C:\Users\n-is\AppData\Local\Temp\ccbtDXWy.s 			page 24


 752              	.LVL61:
 753 0438 0446     		mov	r4, r0
 754              	.LVL62:
 755              	.L59:
 520:Drivers/STM32F4xx_HAL_Driver/Src/stm32f4xx_hal_rcc.c **** 
 521:Drivers/STM32F4xx_HAL_Driver/Src/stm32f4xx_hal_rcc.c ****         /* Wait till PLL is ready */
 522:Drivers/STM32F4xx_HAL_Driver/Src/stm32f4xx_hal_rcc.c ****         while(__HAL_RCC_GET_FLAG(RCC_FLAG_PLLRDY) == RESET)
 756              		.loc 1 522 0
 757 043a 164B     		ldr	r3, .L112+4
 758 043c 1B68     		ldr	r3, [r3]
 759 043e 13F0007F 		tst	r3, #33554432
 760 0442 06D1     		bne	.L108
 523:Drivers/STM32F4xx_HAL_Driver/Src/stm32f4xx_hal_rcc.c ****         {
 524:Drivers/STM32F4xx_HAL_Driver/Src/stm32f4xx_hal_rcc.c ****           if((HAL_GetTick() - tickstart ) > PLL_TIMEOUT_VALUE)
 761              		.loc 1 524 0
 762 0444 FFF7FEFF 		bl	HAL_GetTick
 763              	.LVL63:
 764 0448 001B     		subs	r0, r0, r4
 765 044a 0228     		cmp	r0, #2
 766 044c F5D9     		bls	.L59
 525:Drivers/STM32F4xx_HAL_Driver/Src/stm32f4xx_hal_rcc.c ****           {
 526:Drivers/STM32F4xx_HAL_Driver/Src/stm32f4xx_hal_rcc.c ****             return HAL_TIMEOUT;
 767              		.loc 1 526 0
 768 044e 0320     		movs	r0, #3
 769 0450 1AE0     		b	.L3
 770              	.L108:
 527:Drivers/STM32F4xx_HAL_Driver/Src/stm32f4xx_hal_rcc.c ****           }
 528:Drivers/STM32F4xx_HAL_Driver/Src/stm32f4xx_hal_rcc.c ****         }
 529:Drivers/STM32F4xx_HAL_Driver/Src/stm32f4xx_hal_rcc.c ****       }
 530:Drivers/STM32F4xx_HAL_Driver/Src/stm32f4xx_hal_rcc.c ****       else
 531:Drivers/STM32F4xx_HAL_Driver/Src/stm32f4xx_hal_rcc.c ****       {
 532:Drivers/STM32F4xx_HAL_Driver/Src/stm32f4xx_hal_rcc.c ****         /* Disable the main PLL. */
 533:Drivers/STM32F4xx_HAL_Driver/Src/stm32f4xx_hal_rcc.c ****         __HAL_RCC_PLL_DISABLE();
 534:Drivers/STM32F4xx_HAL_Driver/Src/stm32f4xx_hal_rcc.c **** 
 535:Drivers/STM32F4xx_HAL_Driver/Src/stm32f4xx_hal_rcc.c ****         /* Get Start Tick */
 536:Drivers/STM32F4xx_HAL_Driver/Src/stm32f4xx_hal_rcc.c ****         tickstart = HAL_GetTick();
 537:Drivers/STM32F4xx_HAL_Driver/Src/stm32f4xx_hal_rcc.c **** 
 538:Drivers/STM32F4xx_HAL_Driver/Src/stm32f4xx_hal_rcc.c ****         /* Wait till PLL is ready */
 539:Drivers/STM32F4xx_HAL_Driver/Src/stm32f4xx_hal_rcc.c ****         while(__HAL_RCC_GET_FLAG(RCC_FLAG_PLLRDY) != RESET)
 540:Drivers/STM32F4xx_HAL_Driver/Src/stm32f4xx_hal_rcc.c ****         {
 541:Drivers/STM32F4xx_HAL_Driver/Src/stm32f4xx_hal_rcc.c ****           if((HAL_GetTick() - tickstart ) > PLL_TIMEOUT_VALUE)
 542:Drivers/STM32F4xx_HAL_Driver/Src/stm32f4xx_hal_rcc.c ****           {
 543:Drivers/STM32F4xx_HAL_Driver/Src/stm32f4xx_hal_rcc.c ****             return HAL_TIMEOUT;
 544:Drivers/STM32F4xx_HAL_Driver/Src/stm32f4xx_hal_rcc.c ****           }
 545:Drivers/STM32F4xx_HAL_Driver/Src/stm32f4xx_hal_rcc.c ****         }
 546:Drivers/STM32F4xx_HAL_Driver/Src/stm32f4xx_hal_rcc.c ****       }
 547:Drivers/STM32F4xx_HAL_Driver/Src/stm32f4xx_hal_rcc.c ****     }
 548:Drivers/STM32F4xx_HAL_Driver/Src/stm32f4xx_hal_rcc.c ****     else
 549:Drivers/STM32F4xx_HAL_Driver/Src/stm32f4xx_hal_rcc.c ****     {
 550:Drivers/STM32F4xx_HAL_Driver/Src/stm32f4xx_hal_rcc.c ****       return HAL_ERROR;
 551:Drivers/STM32F4xx_HAL_Driver/Src/stm32f4xx_hal_rcc.c ****     }
 552:Drivers/STM32F4xx_HAL_Driver/Src/stm32f4xx_hal_rcc.c ****   }
 553:Drivers/STM32F4xx_HAL_Driver/Src/stm32f4xx_hal_rcc.c ****   return HAL_OK;
 771              		.loc 1 553 0
 772 0452 0020     		movs	r0, #0
 773 0454 18E0     		b	.L3
 774              	.LVL64:
ARM GAS  C:\Users\n-is\AppData\Local\Temp\ccbtDXWy.s 			page 25


 775              	.L51:
 533:Drivers/STM32F4xx_HAL_Driver/Src/stm32f4xx_hal_rcc.c **** 
 776              		.loc 1 533 0
 777 0456 104B     		ldr	r3, .L112+8
 778 0458 0022     		movs	r2, #0
 779 045a 1A60     		str	r2, [r3]
 536:Drivers/STM32F4xx_HAL_Driver/Src/stm32f4xx_hal_rcc.c **** 
 780              		.loc 1 536 0
 781 045c FFF7FEFF 		bl	HAL_GetTick
 782              	.LVL65:
 783 0460 0446     		mov	r4, r0
 784              	.LVL66:
 785              	.L61:
 539:Drivers/STM32F4xx_HAL_Driver/Src/stm32f4xx_hal_rcc.c ****         {
 786              		.loc 1 539 0
 787 0462 0C4B     		ldr	r3, .L112+4
 788 0464 1B68     		ldr	r3, [r3]
 789 0466 13F0007F 		tst	r3, #33554432
 790 046a 06D0     		beq	.L109
 541:Drivers/STM32F4xx_HAL_Driver/Src/stm32f4xx_hal_rcc.c ****           {
 791              		.loc 1 541 0
 792 046c FFF7FEFF 		bl	HAL_GetTick
 793              	.LVL67:
 794 0470 001B     		subs	r0, r0, r4
 795 0472 0228     		cmp	r0, #2
 796 0474 F5D9     		bls	.L61
 543:Drivers/STM32F4xx_HAL_Driver/Src/stm32f4xx_hal_rcc.c ****           }
 797              		.loc 1 543 0
 798 0476 0320     		movs	r0, #3
 799 0478 06E0     		b	.L3
 800              	.L109:
 801              		.loc 1 553 0
 802 047a 0020     		movs	r0, #0
 803 047c 04E0     		b	.L3
 804              	.LVL68:
 805              	.L63:
 806              	.LCFI2:
 807              		.cfi_def_cfa_offset 0
 808              		.cfi_restore 4
 809              		.cfi_restore 5
 810              		.cfi_restore 6
 811              		.cfi_restore 14
 244:Drivers/STM32F4xx_HAL_Driver/Src/stm32f4xx_hal_rcc.c ****   }
 812              		.loc 1 244 0
 813 047e 0120     		movs	r0, #1
 814              	.LVL69:
 554:Drivers/STM32F4xx_HAL_Driver/Src/stm32f4xx_hal_rcc.c **** }
 815              		.loc 1 554 0
 816 0480 7047     		bx	lr
 817              	.LVL70:
 818              	.L90:
 819              	.LCFI3:
 820              		.cfi_def_cfa_offset 24
 821              		.cfi_offset 4, -16
 822              		.cfi_offset 5, -12
 823              		.cfi_offset 6, -8
 824              		.cfi_offset 14, -4
ARM GAS  C:\Users\n-is\AppData\Local\Temp\ccbtDXWy.s 			page 26


 260:Drivers/STM32F4xx_HAL_Driver/Src/stm32f4xx_hal_rcc.c ****       }
 825              		.loc 1 260 0
 826 0482 0120     		movs	r0, #1
 827 0484 00E0     		b	.L3
 828              	.L76:
 553:Drivers/STM32F4xx_HAL_Driver/Src/stm32f4xx_hal_rcc.c **** }
 829              		.loc 1 553 0
 830 0486 0020     		movs	r0, #0
 831              	.LVL71:
 832              	.L3:
 833              		.loc 1 554 0
 834 0488 02B0     		add	sp, sp, #8
 835              	.LCFI4:
 836              		.cfi_remember_state
 837              		.cfi_def_cfa_offset 16
 838              		@ sp needed
 839 048a 70BD     		pop	{r4, r5, r6, pc}
 840              	.LVL72:
 841              	.L77:
 842              	.LCFI5:
 843              		.cfi_restore_state
 550:Drivers/STM32F4xx_HAL_Driver/Src/stm32f4xx_hal_rcc.c ****     }
 844              		.loc 1 550 0
 845 048c 0120     		movs	r0, #1
 846 048e FBE7     		b	.L3
 847              	.L113:
 848              		.align	2
 849              	.L112:
 850 0490 00700040 		.word	1073770496
 851 0494 00380240 		.word	1073887232
 852 0498 60004742 		.word	1111949408
 853 049c 00000000 		.word	.LC0
 854              		.cfi_endproc
 855              	.LFE127:
 857              		.section	.text.HAL_RCC_MCOConfig,"ax",%progbits
 858              		.align	1
 859              		.global	HAL_RCC_MCOConfig
 860              		.syntax unified
 861              		.thumb
 862              		.thumb_func
 863              		.fpu fpv4-sp-d16
 865              	HAL_RCC_MCOConfig:
 866              	.LFB129:
 555:Drivers/STM32F4xx_HAL_Driver/Src/stm32f4xx_hal_rcc.c **** 
 556:Drivers/STM32F4xx_HAL_Driver/Src/stm32f4xx_hal_rcc.c **** /**
 557:Drivers/STM32F4xx_HAL_Driver/Src/stm32f4xx_hal_rcc.c ****   * @brief  Initializes the CPU, AHB and APB busses clocks according to the specified
 558:Drivers/STM32F4xx_HAL_Driver/Src/stm32f4xx_hal_rcc.c ****   *         parameters in the RCC_ClkInitStruct.
 559:Drivers/STM32F4xx_HAL_Driver/Src/stm32f4xx_hal_rcc.c ****   * @param  RCC_ClkInitStruct pointer to an RCC_OscInitTypeDef structure that
 560:Drivers/STM32F4xx_HAL_Driver/Src/stm32f4xx_hal_rcc.c ****   *         contains the configuration information for the RCC peripheral.
 561:Drivers/STM32F4xx_HAL_Driver/Src/stm32f4xx_hal_rcc.c ****   * @param  FLatency FLASH Latency, this parameter depend on device selected
 562:Drivers/STM32F4xx_HAL_Driver/Src/stm32f4xx_hal_rcc.c ****   *
 563:Drivers/STM32F4xx_HAL_Driver/Src/stm32f4xx_hal_rcc.c ****   * @note   The SystemCoreClock CMSIS variable is used to store System Clock Frequency
 564:Drivers/STM32F4xx_HAL_Driver/Src/stm32f4xx_hal_rcc.c ****   *         and updated by HAL_RCC_GetHCLKFreq() function called within this function
 565:Drivers/STM32F4xx_HAL_Driver/Src/stm32f4xx_hal_rcc.c ****   *
 566:Drivers/STM32F4xx_HAL_Driver/Src/stm32f4xx_hal_rcc.c ****   * @note   The HSI is used (enabled by hardware) as system clock source after
 567:Drivers/STM32F4xx_HAL_Driver/Src/stm32f4xx_hal_rcc.c ****   *         startup from Reset, wake-up from STOP and STANDBY mode, or in case
 568:Drivers/STM32F4xx_HAL_Driver/Src/stm32f4xx_hal_rcc.c ****   *         of failure of the HSE used directly or indirectly as system clock
ARM GAS  C:\Users\n-is\AppData\Local\Temp\ccbtDXWy.s 			page 27


 569:Drivers/STM32F4xx_HAL_Driver/Src/stm32f4xx_hal_rcc.c ****   *         (if the Clock Security System CSS is enabled).
 570:Drivers/STM32F4xx_HAL_Driver/Src/stm32f4xx_hal_rcc.c ****   *
 571:Drivers/STM32F4xx_HAL_Driver/Src/stm32f4xx_hal_rcc.c ****   * @note   A switch from one clock source to another occurs only if the target
 572:Drivers/STM32F4xx_HAL_Driver/Src/stm32f4xx_hal_rcc.c ****   *         clock source is ready (clock stable after startup delay or PLL locked).
 573:Drivers/STM32F4xx_HAL_Driver/Src/stm32f4xx_hal_rcc.c ****   *         If a clock source which is not yet ready is selected, the switch will
 574:Drivers/STM32F4xx_HAL_Driver/Src/stm32f4xx_hal_rcc.c ****   *         occur when the clock source will be ready.
 575:Drivers/STM32F4xx_HAL_Driver/Src/stm32f4xx_hal_rcc.c ****   *
 576:Drivers/STM32F4xx_HAL_Driver/Src/stm32f4xx_hal_rcc.c ****   * @note   Depending on the device voltage range, the software has to set correctly
 577:Drivers/STM32F4xx_HAL_Driver/Src/stm32f4xx_hal_rcc.c ****   *         HPRE[3:0] bits to ensure that HCLK not exceed the maximum allowed frequency
 578:Drivers/STM32F4xx_HAL_Driver/Src/stm32f4xx_hal_rcc.c ****   *         (for more details refer to section above "Initialization/de-initialization functions")
 579:Drivers/STM32F4xx_HAL_Driver/Src/stm32f4xx_hal_rcc.c ****   * @retval None
 580:Drivers/STM32F4xx_HAL_Driver/Src/stm32f4xx_hal_rcc.c ****   */
 581:Drivers/STM32F4xx_HAL_Driver/Src/stm32f4xx_hal_rcc.c **** HAL_StatusTypeDef HAL_RCC_ClockConfig(RCC_ClkInitTypeDef  *RCC_ClkInitStruct, uint32_t FLatency)
 582:Drivers/STM32F4xx_HAL_Driver/Src/stm32f4xx_hal_rcc.c **** {
 583:Drivers/STM32F4xx_HAL_Driver/Src/stm32f4xx_hal_rcc.c ****   uint32_t tickstart;
 584:Drivers/STM32F4xx_HAL_Driver/Src/stm32f4xx_hal_rcc.c **** 
 585:Drivers/STM32F4xx_HAL_Driver/Src/stm32f4xx_hal_rcc.c ****   /* Check Null pointer */
 586:Drivers/STM32F4xx_HAL_Driver/Src/stm32f4xx_hal_rcc.c ****   if(RCC_ClkInitStruct == NULL)
 587:Drivers/STM32F4xx_HAL_Driver/Src/stm32f4xx_hal_rcc.c ****   {
 588:Drivers/STM32F4xx_HAL_Driver/Src/stm32f4xx_hal_rcc.c ****     return HAL_ERROR;
 589:Drivers/STM32F4xx_HAL_Driver/Src/stm32f4xx_hal_rcc.c ****   }
 590:Drivers/STM32F4xx_HAL_Driver/Src/stm32f4xx_hal_rcc.c **** 
 591:Drivers/STM32F4xx_HAL_Driver/Src/stm32f4xx_hal_rcc.c ****   /* Check the parameters */
 592:Drivers/STM32F4xx_HAL_Driver/Src/stm32f4xx_hal_rcc.c ****   assert_param(IS_RCC_CLOCKTYPE(RCC_ClkInitStruct->ClockType));
 593:Drivers/STM32F4xx_HAL_Driver/Src/stm32f4xx_hal_rcc.c ****   assert_param(IS_FLASH_LATENCY(FLatency));
 594:Drivers/STM32F4xx_HAL_Driver/Src/stm32f4xx_hal_rcc.c **** 
 595:Drivers/STM32F4xx_HAL_Driver/Src/stm32f4xx_hal_rcc.c ****   /* To correctly read data from FLASH memory, the number of wait states (LATENCY)
 596:Drivers/STM32F4xx_HAL_Driver/Src/stm32f4xx_hal_rcc.c ****     must be correctly programmed according to the frequency of the CPU clock
 597:Drivers/STM32F4xx_HAL_Driver/Src/stm32f4xx_hal_rcc.c ****     (HCLK) and the supply voltage of the device. */
 598:Drivers/STM32F4xx_HAL_Driver/Src/stm32f4xx_hal_rcc.c **** 
 599:Drivers/STM32F4xx_HAL_Driver/Src/stm32f4xx_hal_rcc.c ****   /* Increasing the number of wait states because of higher CPU frequency */
 600:Drivers/STM32F4xx_HAL_Driver/Src/stm32f4xx_hal_rcc.c ****   if(FLatency > __HAL_FLASH_GET_LATENCY())
 601:Drivers/STM32F4xx_HAL_Driver/Src/stm32f4xx_hal_rcc.c ****   {
 602:Drivers/STM32F4xx_HAL_Driver/Src/stm32f4xx_hal_rcc.c ****     /* Program the new number of wait states to the LATENCY bits in the FLASH_ACR register */
 603:Drivers/STM32F4xx_HAL_Driver/Src/stm32f4xx_hal_rcc.c ****     __HAL_FLASH_SET_LATENCY(FLatency);
 604:Drivers/STM32F4xx_HAL_Driver/Src/stm32f4xx_hal_rcc.c **** 
 605:Drivers/STM32F4xx_HAL_Driver/Src/stm32f4xx_hal_rcc.c ****     /* Check that the new number of wait states is taken into account to access the Flash
 606:Drivers/STM32F4xx_HAL_Driver/Src/stm32f4xx_hal_rcc.c ****     memory by reading the FLASH_ACR register */
 607:Drivers/STM32F4xx_HAL_Driver/Src/stm32f4xx_hal_rcc.c ****     if(__HAL_FLASH_GET_LATENCY() != FLatency)
 608:Drivers/STM32F4xx_HAL_Driver/Src/stm32f4xx_hal_rcc.c ****     {
 609:Drivers/STM32F4xx_HAL_Driver/Src/stm32f4xx_hal_rcc.c ****       return HAL_ERROR;
 610:Drivers/STM32F4xx_HAL_Driver/Src/stm32f4xx_hal_rcc.c ****     }
 611:Drivers/STM32F4xx_HAL_Driver/Src/stm32f4xx_hal_rcc.c ****   }
 612:Drivers/STM32F4xx_HAL_Driver/Src/stm32f4xx_hal_rcc.c **** 
 613:Drivers/STM32F4xx_HAL_Driver/Src/stm32f4xx_hal_rcc.c ****   /*-------------------------- HCLK Configuration --------------------------*/
 614:Drivers/STM32F4xx_HAL_Driver/Src/stm32f4xx_hal_rcc.c ****   if(((RCC_ClkInitStruct->ClockType) & RCC_CLOCKTYPE_HCLK) == RCC_CLOCKTYPE_HCLK)
 615:Drivers/STM32F4xx_HAL_Driver/Src/stm32f4xx_hal_rcc.c ****   {
 616:Drivers/STM32F4xx_HAL_Driver/Src/stm32f4xx_hal_rcc.c ****     /* Set the highest APBx dividers in order to ensure that we do not go through
 617:Drivers/STM32F4xx_HAL_Driver/Src/stm32f4xx_hal_rcc.c ****        a non-spec phase whatever we decrease or increase HCLK. */
 618:Drivers/STM32F4xx_HAL_Driver/Src/stm32f4xx_hal_rcc.c ****     if(((RCC_ClkInitStruct->ClockType) & RCC_CLOCKTYPE_PCLK1) == RCC_CLOCKTYPE_PCLK1)
 619:Drivers/STM32F4xx_HAL_Driver/Src/stm32f4xx_hal_rcc.c ****     {
 620:Drivers/STM32F4xx_HAL_Driver/Src/stm32f4xx_hal_rcc.c ****       MODIFY_REG(RCC->CFGR, RCC_CFGR_PPRE1, RCC_HCLK_DIV16);
 621:Drivers/STM32F4xx_HAL_Driver/Src/stm32f4xx_hal_rcc.c ****     }
 622:Drivers/STM32F4xx_HAL_Driver/Src/stm32f4xx_hal_rcc.c **** 
 623:Drivers/STM32F4xx_HAL_Driver/Src/stm32f4xx_hal_rcc.c ****     if(((RCC_ClkInitStruct->ClockType) & RCC_CLOCKTYPE_PCLK2) == RCC_CLOCKTYPE_PCLK2)
 624:Drivers/STM32F4xx_HAL_Driver/Src/stm32f4xx_hal_rcc.c ****     {
 625:Drivers/STM32F4xx_HAL_Driver/Src/stm32f4xx_hal_rcc.c ****       MODIFY_REG(RCC->CFGR, RCC_CFGR_PPRE2, (RCC_HCLK_DIV16 << 3));
ARM GAS  C:\Users\n-is\AppData\Local\Temp\ccbtDXWy.s 			page 28


 626:Drivers/STM32F4xx_HAL_Driver/Src/stm32f4xx_hal_rcc.c ****     }
 627:Drivers/STM32F4xx_HAL_Driver/Src/stm32f4xx_hal_rcc.c **** 
 628:Drivers/STM32F4xx_HAL_Driver/Src/stm32f4xx_hal_rcc.c ****     assert_param(IS_RCC_HCLK(RCC_ClkInitStruct->AHBCLKDivider));
 629:Drivers/STM32F4xx_HAL_Driver/Src/stm32f4xx_hal_rcc.c ****     MODIFY_REG(RCC->CFGR, RCC_CFGR_HPRE, RCC_ClkInitStruct->AHBCLKDivider);
 630:Drivers/STM32F4xx_HAL_Driver/Src/stm32f4xx_hal_rcc.c ****   }
 631:Drivers/STM32F4xx_HAL_Driver/Src/stm32f4xx_hal_rcc.c **** 
 632:Drivers/STM32F4xx_HAL_Driver/Src/stm32f4xx_hal_rcc.c ****   /*------------------------- SYSCLK Configuration ---------------------------*/
 633:Drivers/STM32F4xx_HAL_Driver/Src/stm32f4xx_hal_rcc.c ****   if(((RCC_ClkInitStruct->ClockType) & RCC_CLOCKTYPE_SYSCLK) == RCC_CLOCKTYPE_SYSCLK)
 634:Drivers/STM32F4xx_HAL_Driver/Src/stm32f4xx_hal_rcc.c ****   {
 635:Drivers/STM32F4xx_HAL_Driver/Src/stm32f4xx_hal_rcc.c ****     assert_param(IS_RCC_SYSCLKSOURCE(RCC_ClkInitStruct->SYSCLKSource));
 636:Drivers/STM32F4xx_HAL_Driver/Src/stm32f4xx_hal_rcc.c **** 
 637:Drivers/STM32F4xx_HAL_Driver/Src/stm32f4xx_hal_rcc.c ****     /* HSE is selected as System Clock Source */
 638:Drivers/STM32F4xx_HAL_Driver/Src/stm32f4xx_hal_rcc.c ****     if(RCC_ClkInitStruct->SYSCLKSource == RCC_SYSCLKSOURCE_HSE)
 639:Drivers/STM32F4xx_HAL_Driver/Src/stm32f4xx_hal_rcc.c ****     {
 640:Drivers/STM32F4xx_HAL_Driver/Src/stm32f4xx_hal_rcc.c ****       /* Check the HSE ready flag */
 641:Drivers/STM32F4xx_HAL_Driver/Src/stm32f4xx_hal_rcc.c ****       if(__HAL_RCC_GET_FLAG(RCC_FLAG_HSERDY) == RESET)
 642:Drivers/STM32F4xx_HAL_Driver/Src/stm32f4xx_hal_rcc.c ****       {
 643:Drivers/STM32F4xx_HAL_Driver/Src/stm32f4xx_hal_rcc.c ****         return HAL_ERROR;
 644:Drivers/STM32F4xx_HAL_Driver/Src/stm32f4xx_hal_rcc.c ****       }
 645:Drivers/STM32F4xx_HAL_Driver/Src/stm32f4xx_hal_rcc.c ****     }
 646:Drivers/STM32F4xx_HAL_Driver/Src/stm32f4xx_hal_rcc.c ****     /* PLL is selected as System Clock Source */
 647:Drivers/STM32F4xx_HAL_Driver/Src/stm32f4xx_hal_rcc.c ****     else if((RCC_ClkInitStruct->SYSCLKSource == RCC_SYSCLKSOURCE_PLLCLK)   ||
 648:Drivers/STM32F4xx_HAL_Driver/Src/stm32f4xx_hal_rcc.c ****             (RCC_ClkInitStruct->SYSCLKSource == RCC_SYSCLKSOURCE_PLLRCLK))
 649:Drivers/STM32F4xx_HAL_Driver/Src/stm32f4xx_hal_rcc.c ****     {
 650:Drivers/STM32F4xx_HAL_Driver/Src/stm32f4xx_hal_rcc.c ****       /* Check the PLL ready flag */
 651:Drivers/STM32F4xx_HAL_Driver/Src/stm32f4xx_hal_rcc.c ****       if(__HAL_RCC_GET_FLAG(RCC_FLAG_PLLRDY) == RESET)
 652:Drivers/STM32F4xx_HAL_Driver/Src/stm32f4xx_hal_rcc.c ****       {
 653:Drivers/STM32F4xx_HAL_Driver/Src/stm32f4xx_hal_rcc.c ****         return HAL_ERROR;
 654:Drivers/STM32F4xx_HAL_Driver/Src/stm32f4xx_hal_rcc.c ****       }
 655:Drivers/STM32F4xx_HAL_Driver/Src/stm32f4xx_hal_rcc.c ****     }
 656:Drivers/STM32F4xx_HAL_Driver/Src/stm32f4xx_hal_rcc.c ****     /* HSI is selected as System Clock Source */
 657:Drivers/STM32F4xx_HAL_Driver/Src/stm32f4xx_hal_rcc.c ****     else
 658:Drivers/STM32F4xx_HAL_Driver/Src/stm32f4xx_hal_rcc.c ****     {
 659:Drivers/STM32F4xx_HAL_Driver/Src/stm32f4xx_hal_rcc.c ****       /* Check the HSI ready flag */
 660:Drivers/STM32F4xx_HAL_Driver/Src/stm32f4xx_hal_rcc.c ****       if(__HAL_RCC_GET_FLAG(RCC_FLAG_HSIRDY) == RESET)
 661:Drivers/STM32F4xx_HAL_Driver/Src/stm32f4xx_hal_rcc.c ****       {
 662:Drivers/STM32F4xx_HAL_Driver/Src/stm32f4xx_hal_rcc.c ****         return HAL_ERROR;
 663:Drivers/STM32F4xx_HAL_Driver/Src/stm32f4xx_hal_rcc.c ****       }
 664:Drivers/STM32F4xx_HAL_Driver/Src/stm32f4xx_hal_rcc.c ****     }
 665:Drivers/STM32F4xx_HAL_Driver/Src/stm32f4xx_hal_rcc.c **** 
 666:Drivers/STM32F4xx_HAL_Driver/Src/stm32f4xx_hal_rcc.c ****     __HAL_RCC_SYSCLK_CONFIG(RCC_ClkInitStruct->SYSCLKSource);
 667:Drivers/STM32F4xx_HAL_Driver/Src/stm32f4xx_hal_rcc.c **** 
 668:Drivers/STM32F4xx_HAL_Driver/Src/stm32f4xx_hal_rcc.c ****     /* Get Start Tick */
 669:Drivers/STM32F4xx_HAL_Driver/Src/stm32f4xx_hal_rcc.c ****     tickstart = HAL_GetTick();
 670:Drivers/STM32F4xx_HAL_Driver/Src/stm32f4xx_hal_rcc.c **** 
 671:Drivers/STM32F4xx_HAL_Driver/Src/stm32f4xx_hal_rcc.c ****     while (__HAL_RCC_GET_SYSCLK_SOURCE() != (RCC_ClkInitStruct->SYSCLKSource << RCC_CFGR_SWS_Pos))
 672:Drivers/STM32F4xx_HAL_Driver/Src/stm32f4xx_hal_rcc.c ****     {
 673:Drivers/STM32F4xx_HAL_Driver/Src/stm32f4xx_hal_rcc.c ****       if ((HAL_GetTick() - tickstart) > CLOCKSWITCH_TIMEOUT_VALUE)
 674:Drivers/STM32F4xx_HAL_Driver/Src/stm32f4xx_hal_rcc.c ****       {
 675:Drivers/STM32F4xx_HAL_Driver/Src/stm32f4xx_hal_rcc.c ****         return HAL_TIMEOUT;
 676:Drivers/STM32F4xx_HAL_Driver/Src/stm32f4xx_hal_rcc.c ****       }
 677:Drivers/STM32F4xx_HAL_Driver/Src/stm32f4xx_hal_rcc.c ****     }
 678:Drivers/STM32F4xx_HAL_Driver/Src/stm32f4xx_hal_rcc.c ****   }
 679:Drivers/STM32F4xx_HAL_Driver/Src/stm32f4xx_hal_rcc.c **** 
 680:Drivers/STM32F4xx_HAL_Driver/Src/stm32f4xx_hal_rcc.c ****   /* Decreasing the number of wait states because of lower CPU frequency */
 681:Drivers/STM32F4xx_HAL_Driver/Src/stm32f4xx_hal_rcc.c ****   if(FLatency < __HAL_FLASH_GET_LATENCY())
 682:Drivers/STM32F4xx_HAL_Driver/Src/stm32f4xx_hal_rcc.c ****   {
ARM GAS  C:\Users\n-is\AppData\Local\Temp\ccbtDXWy.s 			page 29


 683:Drivers/STM32F4xx_HAL_Driver/Src/stm32f4xx_hal_rcc.c ****      /* Program the new number of wait states to the LATENCY bits in the FLASH_ACR register */
 684:Drivers/STM32F4xx_HAL_Driver/Src/stm32f4xx_hal_rcc.c ****     __HAL_FLASH_SET_LATENCY(FLatency);
 685:Drivers/STM32F4xx_HAL_Driver/Src/stm32f4xx_hal_rcc.c **** 
 686:Drivers/STM32F4xx_HAL_Driver/Src/stm32f4xx_hal_rcc.c ****     /* Check that the new number of wait states is taken into account to access the Flash
 687:Drivers/STM32F4xx_HAL_Driver/Src/stm32f4xx_hal_rcc.c ****     memory by reading the FLASH_ACR register */
 688:Drivers/STM32F4xx_HAL_Driver/Src/stm32f4xx_hal_rcc.c ****     if(__HAL_FLASH_GET_LATENCY() != FLatency)
 689:Drivers/STM32F4xx_HAL_Driver/Src/stm32f4xx_hal_rcc.c ****     {
 690:Drivers/STM32F4xx_HAL_Driver/Src/stm32f4xx_hal_rcc.c ****       return HAL_ERROR;
 691:Drivers/STM32F4xx_HAL_Driver/Src/stm32f4xx_hal_rcc.c ****     }
 692:Drivers/STM32F4xx_HAL_Driver/Src/stm32f4xx_hal_rcc.c ****   }
 693:Drivers/STM32F4xx_HAL_Driver/Src/stm32f4xx_hal_rcc.c **** 
 694:Drivers/STM32F4xx_HAL_Driver/Src/stm32f4xx_hal_rcc.c ****   /*-------------------------- PCLK1 Configuration ---------------------------*/
 695:Drivers/STM32F4xx_HAL_Driver/Src/stm32f4xx_hal_rcc.c ****   if(((RCC_ClkInitStruct->ClockType) & RCC_CLOCKTYPE_PCLK1) == RCC_CLOCKTYPE_PCLK1)
 696:Drivers/STM32F4xx_HAL_Driver/Src/stm32f4xx_hal_rcc.c ****   {
 697:Drivers/STM32F4xx_HAL_Driver/Src/stm32f4xx_hal_rcc.c ****     assert_param(IS_RCC_PCLK(RCC_ClkInitStruct->APB1CLKDivider));
 698:Drivers/STM32F4xx_HAL_Driver/Src/stm32f4xx_hal_rcc.c ****     MODIFY_REG(RCC->CFGR, RCC_CFGR_PPRE1, RCC_ClkInitStruct->APB1CLKDivider);
 699:Drivers/STM32F4xx_HAL_Driver/Src/stm32f4xx_hal_rcc.c ****   }
 700:Drivers/STM32F4xx_HAL_Driver/Src/stm32f4xx_hal_rcc.c **** 
 701:Drivers/STM32F4xx_HAL_Driver/Src/stm32f4xx_hal_rcc.c ****   /*-------------------------- PCLK2 Configuration ---------------------------*/
 702:Drivers/STM32F4xx_HAL_Driver/Src/stm32f4xx_hal_rcc.c ****   if(((RCC_ClkInitStruct->ClockType) & RCC_CLOCKTYPE_PCLK2) == RCC_CLOCKTYPE_PCLK2)
 703:Drivers/STM32F4xx_HAL_Driver/Src/stm32f4xx_hal_rcc.c ****   {
 704:Drivers/STM32F4xx_HAL_Driver/Src/stm32f4xx_hal_rcc.c ****     assert_param(IS_RCC_PCLK(RCC_ClkInitStruct->APB2CLKDivider));
 705:Drivers/STM32F4xx_HAL_Driver/Src/stm32f4xx_hal_rcc.c ****     MODIFY_REG(RCC->CFGR, RCC_CFGR_PPRE2, ((RCC_ClkInitStruct->APB2CLKDivider) << 3U));
 706:Drivers/STM32F4xx_HAL_Driver/Src/stm32f4xx_hal_rcc.c ****   }
 707:Drivers/STM32F4xx_HAL_Driver/Src/stm32f4xx_hal_rcc.c **** 
 708:Drivers/STM32F4xx_HAL_Driver/Src/stm32f4xx_hal_rcc.c ****   /* Update the SystemCoreClock global variable */
 709:Drivers/STM32F4xx_HAL_Driver/Src/stm32f4xx_hal_rcc.c ****   SystemCoreClock = HAL_RCC_GetSysClockFreq() >> AHBPrescTable[(RCC->CFGR & RCC_CFGR_HPRE)>> RCC_CF
 710:Drivers/STM32F4xx_HAL_Driver/Src/stm32f4xx_hal_rcc.c **** 
 711:Drivers/STM32F4xx_HAL_Driver/Src/stm32f4xx_hal_rcc.c ****   /* Configure the source of time base considering new system clocks settings */
 712:Drivers/STM32F4xx_HAL_Driver/Src/stm32f4xx_hal_rcc.c ****   HAL_InitTick (TICK_INT_PRIORITY);
 713:Drivers/STM32F4xx_HAL_Driver/Src/stm32f4xx_hal_rcc.c **** 
 714:Drivers/STM32F4xx_HAL_Driver/Src/stm32f4xx_hal_rcc.c ****   return HAL_OK;
 715:Drivers/STM32F4xx_HAL_Driver/Src/stm32f4xx_hal_rcc.c **** }
 716:Drivers/STM32F4xx_HAL_Driver/Src/stm32f4xx_hal_rcc.c **** 
 717:Drivers/STM32F4xx_HAL_Driver/Src/stm32f4xx_hal_rcc.c **** /**
 718:Drivers/STM32F4xx_HAL_Driver/Src/stm32f4xx_hal_rcc.c ****   * @}
 719:Drivers/STM32F4xx_HAL_Driver/Src/stm32f4xx_hal_rcc.c ****   */
 720:Drivers/STM32F4xx_HAL_Driver/Src/stm32f4xx_hal_rcc.c **** 
 721:Drivers/STM32F4xx_HAL_Driver/Src/stm32f4xx_hal_rcc.c **** /** @defgroup RCC_Exported_Functions_Group2 Peripheral Control functions
 722:Drivers/STM32F4xx_HAL_Driver/Src/stm32f4xx_hal_rcc.c ****  *  @brief   RCC clocks control functions
 723:Drivers/STM32F4xx_HAL_Driver/Src/stm32f4xx_hal_rcc.c ****  *
 724:Drivers/STM32F4xx_HAL_Driver/Src/stm32f4xx_hal_rcc.c **** @verbatim
 725:Drivers/STM32F4xx_HAL_Driver/Src/stm32f4xx_hal_rcc.c ****  ===============================================================================
 726:Drivers/STM32F4xx_HAL_Driver/Src/stm32f4xx_hal_rcc.c ****                       ##### Peripheral Control functions #####
 727:Drivers/STM32F4xx_HAL_Driver/Src/stm32f4xx_hal_rcc.c ****  ===============================================================================
 728:Drivers/STM32F4xx_HAL_Driver/Src/stm32f4xx_hal_rcc.c ****     [..]
 729:Drivers/STM32F4xx_HAL_Driver/Src/stm32f4xx_hal_rcc.c ****     This subsection provides a set of functions allowing to control the RCC Clocks
 730:Drivers/STM32F4xx_HAL_Driver/Src/stm32f4xx_hal_rcc.c ****     frequencies.
 731:Drivers/STM32F4xx_HAL_Driver/Src/stm32f4xx_hal_rcc.c **** 
 732:Drivers/STM32F4xx_HAL_Driver/Src/stm32f4xx_hal_rcc.c **** @endverbatim
 733:Drivers/STM32F4xx_HAL_Driver/Src/stm32f4xx_hal_rcc.c ****   * @{
 734:Drivers/STM32F4xx_HAL_Driver/Src/stm32f4xx_hal_rcc.c ****   */
 735:Drivers/STM32F4xx_HAL_Driver/Src/stm32f4xx_hal_rcc.c **** 
 736:Drivers/STM32F4xx_HAL_Driver/Src/stm32f4xx_hal_rcc.c **** /**
 737:Drivers/STM32F4xx_HAL_Driver/Src/stm32f4xx_hal_rcc.c ****   * @brief  Selects the clock source to output on MCO1 pin(PA8) or on MCO2 pin(PC9).
 738:Drivers/STM32F4xx_HAL_Driver/Src/stm32f4xx_hal_rcc.c ****   * @note   PA8/PC9 should be configured in alternate function mode.
 739:Drivers/STM32F4xx_HAL_Driver/Src/stm32f4xx_hal_rcc.c ****   * @param  RCC_MCOx specifies the output direction for the clock source.
ARM GAS  C:\Users\n-is\AppData\Local\Temp\ccbtDXWy.s 			page 30


 740:Drivers/STM32F4xx_HAL_Driver/Src/stm32f4xx_hal_rcc.c ****   *          This parameter can be one of the following values:
 741:Drivers/STM32F4xx_HAL_Driver/Src/stm32f4xx_hal_rcc.c ****   *            @arg RCC_MCO1: Clock source to output on MCO1 pin(PA8).
 742:Drivers/STM32F4xx_HAL_Driver/Src/stm32f4xx_hal_rcc.c ****   *            @arg RCC_MCO2: Clock source to output on MCO2 pin(PC9).
 743:Drivers/STM32F4xx_HAL_Driver/Src/stm32f4xx_hal_rcc.c ****   * @param  RCC_MCOSource specifies the clock source to output.
 744:Drivers/STM32F4xx_HAL_Driver/Src/stm32f4xx_hal_rcc.c ****   *          This parameter can be one of the following values:
 745:Drivers/STM32F4xx_HAL_Driver/Src/stm32f4xx_hal_rcc.c ****   *            @arg RCC_MCO1SOURCE_HSI: HSI clock selected as MCO1 source
 746:Drivers/STM32F4xx_HAL_Driver/Src/stm32f4xx_hal_rcc.c ****   *            @arg RCC_MCO1SOURCE_LSE: LSE clock selected as MCO1 source
 747:Drivers/STM32F4xx_HAL_Driver/Src/stm32f4xx_hal_rcc.c ****   *            @arg RCC_MCO1SOURCE_HSE: HSE clock selected as MCO1 source
 748:Drivers/STM32F4xx_HAL_Driver/Src/stm32f4xx_hal_rcc.c ****   *            @arg RCC_MCO1SOURCE_PLLCLK: main PLL clock selected as MCO1 source
 749:Drivers/STM32F4xx_HAL_Driver/Src/stm32f4xx_hal_rcc.c ****   *            @arg RCC_MCO2SOURCE_SYSCLK: System clock (SYSCLK) selected as MCO2 source
 750:Drivers/STM32F4xx_HAL_Driver/Src/stm32f4xx_hal_rcc.c ****   *            @arg RCC_MCO2SOURCE_PLLI2SCLK: PLLI2S clock selected as MCO2 source, available for a
 751:Drivers/STM32F4xx_HAL_Driver/Src/stm32f4xx_hal_rcc.c ****   *            @arg RCC_MCO2SOURCE_I2SCLK: I2SCLK clock selected as MCO2 source, available only for
 752:Drivers/STM32F4xx_HAL_Driver/Src/stm32f4xx_hal_rcc.c ****   *            @arg RCC_MCO2SOURCE_HSE: HSE clock selected as MCO2 source
 753:Drivers/STM32F4xx_HAL_Driver/Src/stm32f4xx_hal_rcc.c ****   *            @arg RCC_MCO2SOURCE_PLLCLK: main PLL clock selected as MCO2 source
 754:Drivers/STM32F4xx_HAL_Driver/Src/stm32f4xx_hal_rcc.c ****   * @param  RCC_MCODiv specifies the MCOx prescaler.
 755:Drivers/STM32F4xx_HAL_Driver/Src/stm32f4xx_hal_rcc.c ****   *          This parameter can be one of the following values:
 756:Drivers/STM32F4xx_HAL_Driver/Src/stm32f4xx_hal_rcc.c ****   *            @arg RCC_MCODIV_1: no division applied to MCOx clock
 757:Drivers/STM32F4xx_HAL_Driver/Src/stm32f4xx_hal_rcc.c ****   *            @arg RCC_MCODIV_2: division by 2 applied to MCOx clock
 758:Drivers/STM32F4xx_HAL_Driver/Src/stm32f4xx_hal_rcc.c ****   *            @arg RCC_MCODIV_3: division by 3 applied to MCOx clock
 759:Drivers/STM32F4xx_HAL_Driver/Src/stm32f4xx_hal_rcc.c ****   *            @arg RCC_MCODIV_4: division by 4 applied to MCOx clock
 760:Drivers/STM32F4xx_HAL_Driver/Src/stm32f4xx_hal_rcc.c ****   *            @arg RCC_MCODIV_5: division by 5 applied to MCOx clock
 761:Drivers/STM32F4xx_HAL_Driver/Src/stm32f4xx_hal_rcc.c ****   * @note  For STM32F410Rx devices to output I2SCLK clock on MCO2 you should have
 762:Drivers/STM32F4xx_HAL_Driver/Src/stm32f4xx_hal_rcc.c ****   *        at last one of the SPI clocks enabled (SPI1, SPI2 or SPI5).
 763:Drivers/STM32F4xx_HAL_Driver/Src/stm32f4xx_hal_rcc.c ****   * @retval None
 764:Drivers/STM32F4xx_HAL_Driver/Src/stm32f4xx_hal_rcc.c ****   */
 765:Drivers/STM32F4xx_HAL_Driver/Src/stm32f4xx_hal_rcc.c **** void HAL_RCC_MCOConfig(uint32_t RCC_MCOx, uint32_t RCC_MCOSource, uint32_t RCC_MCODiv)
 766:Drivers/STM32F4xx_HAL_Driver/Src/stm32f4xx_hal_rcc.c **** {
 867              		.loc 1 766 0
 868              		.cfi_startproc
 869              		@ args = 0, pretend = 0, frame = 32
 870              		@ frame_needed = 0, uses_anonymous_args = 0
 871              	.LVL73:
 872 0000 70B5     		push	{r4, r5, r6, lr}
 873              	.LCFI6:
 874              		.cfi_def_cfa_offset 16
 875              		.cfi_offset 4, -16
 876              		.cfi_offset 5, -12
 877              		.cfi_offset 6, -8
 878              		.cfi_offset 14, -4
 879 0002 88B0     		sub	sp, sp, #32
 880              	.LCFI7:
 881              		.cfi_def_cfa_offset 48
 882 0004 0646     		mov	r6, r0
 883 0006 0C46     		mov	r4, r1
 884 0008 1546     		mov	r5, r2
 767:Drivers/STM32F4xx_HAL_Driver/Src/stm32f4xx_hal_rcc.c ****   GPIO_InitTypeDef GPIO_InitStruct;
 768:Drivers/STM32F4xx_HAL_Driver/Src/stm32f4xx_hal_rcc.c ****   /* Check the parameters */
 769:Drivers/STM32F4xx_HAL_Driver/Src/stm32f4xx_hal_rcc.c ****   assert_param(IS_RCC_MCO(RCC_MCOx));
 885              		.loc 1 769 0
 886 000a 0128     		cmp	r0, #1
 887 000c 3ED8     		bhi	.L122
 888              	.LVL74:
 889              	.L115:
 770:Drivers/STM32F4xx_HAL_Driver/Src/stm32f4xx_hal_rcc.c ****   assert_param(IS_RCC_MCODIV(RCC_MCODiv));
 890              		.loc 1 770 0
 891 000e 5DB1     		cbz	r5, .L116
 892              		.loc 1 770 0 is_stmt 0 discriminator 1
ARM GAS  C:\Users\n-is\AppData\Local\Temp\ccbtDXWy.s 			page 31


 893 0010 B5F1806F 		cmp	r5, #67108864
 894 0014 08D0     		beq	.L116
 895              		.loc 1 770 0 discriminator 2
 896 0016 B5F1A06F 		cmp	r5, #83886080
 897 001a 05D0     		beq	.L116
 898              		.loc 1 770 0 discriminator 3
 899 001c B5F1C06F 		cmp	r5, #100663296
 900 0020 02D0     		beq	.L116
 901              		.loc 1 770 0 discriminator 4
 902 0022 B5F1E06F 		cmp	r5, #117440512
 903 0026 37D1     		bne	.L123
 904              	.L116:
 771:Drivers/STM32F4xx_HAL_Driver/Src/stm32f4xx_hal_rcc.c ****   /* RCC_MCO1 */
 772:Drivers/STM32F4xx_HAL_Driver/Src/stm32f4xx_hal_rcc.c ****   if(RCC_MCOx == RCC_MCO1)
 905              		.loc 1 772 0 is_stmt 1
 906 0028 002E     		cmp	r6, #0
 907 002a 3BD1     		bne	.L117
 773:Drivers/STM32F4xx_HAL_Driver/Src/stm32f4xx_hal_rcc.c ****   {
 774:Drivers/STM32F4xx_HAL_Driver/Src/stm32f4xx_hal_rcc.c ****     assert_param(IS_RCC_MCO1SOURCE(RCC_MCOSource));
 908              		.loc 1 774 0
 909 002c 6CB1     		cbz	r4, .L118
 910              		.loc 1 774 0 is_stmt 0 discriminator 1
 911 002e B4F5001F 		cmp	r4, #2097152
 912 0032 0AD0     		beq	.L118
 913              		.loc 1 774 0 discriminator 2
 914 0034 B4F5800F 		cmp	r4, #4194304
 915 0038 07D0     		beq	.L118
 916              		.loc 1 774 0 discriminator 3
 917 003a B4F5C00F 		cmp	r4, #6291456
 918 003e 04D0     		beq	.L118
 919              		.loc 1 774 0 discriminator 4
 920 0040 40F20631 		movw	r1, #774
 921 0044 3048     		ldr	r0, .L125
 922 0046 FFF7FEFF 		bl	assert_failed
 923              	.LVL75:
 924              	.L118:
 925              	.LBB5:
 775:Drivers/STM32F4xx_HAL_Driver/Src/stm32f4xx_hal_rcc.c **** 
 776:Drivers/STM32F4xx_HAL_Driver/Src/stm32f4xx_hal_rcc.c ****     /* MCO1 Clock Enable */
 777:Drivers/STM32F4xx_HAL_Driver/Src/stm32f4xx_hal_rcc.c ****     __MCO1_CLK_ENABLE();
 926              		.loc 1 777 0 is_stmt 1
 927 004a 0023     		movs	r3, #0
 928 004c 0193     		str	r3, [sp, #4]
 929 004e 2F4E     		ldr	r6, .L125+4
 930              	.LVL76:
 931 0050 326B     		ldr	r2, [r6, #48]
 932 0052 42F00102 		orr	r2, r2, #1
 933 0056 3263     		str	r2, [r6, #48]
 934 0058 326B     		ldr	r2, [r6, #48]
 935 005a 02F00102 		and	r2, r2, #1
 936 005e 0192     		str	r2, [sp, #4]
 937 0060 019A     		ldr	r2, [sp, #4]
 938              	.LBE5:
 778:Drivers/STM32F4xx_HAL_Driver/Src/stm32f4xx_hal_rcc.c **** 
 779:Drivers/STM32F4xx_HAL_Driver/Src/stm32f4xx_hal_rcc.c ****     /* Configure the MCO1 pin in alternate function mode */
 780:Drivers/STM32F4xx_HAL_Driver/Src/stm32f4xx_hal_rcc.c ****     GPIO_InitStruct.Pin = MCO1_PIN;
 939              		.loc 1 780 0
ARM GAS  C:\Users\n-is\AppData\Local\Temp\ccbtDXWy.s 			page 32


 940 0062 4FF48072 		mov	r2, #256
 941 0066 0392     		str	r2, [sp, #12]
 781:Drivers/STM32F4xx_HAL_Driver/Src/stm32f4xx_hal_rcc.c ****     GPIO_InitStruct.Mode = GPIO_MODE_AF_PP;
 942              		.loc 1 781 0
 943 0068 0222     		movs	r2, #2
 944 006a 0492     		str	r2, [sp, #16]
 782:Drivers/STM32F4xx_HAL_Driver/Src/stm32f4xx_hal_rcc.c ****     GPIO_InitStruct.Speed = GPIO_SPEED_FREQ_VERY_HIGH;
 945              		.loc 1 782 0
 946 006c 0322     		movs	r2, #3
 947 006e 0692     		str	r2, [sp, #24]
 783:Drivers/STM32F4xx_HAL_Driver/Src/stm32f4xx_hal_rcc.c ****     GPIO_InitStruct.Pull = GPIO_NOPULL;
 948              		.loc 1 783 0
 949 0070 0593     		str	r3, [sp, #20]
 784:Drivers/STM32F4xx_HAL_Driver/Src/stm32f4xx_hal_rcc.c ****     GPIO_InitStruct.Alternate = GPIO_AF0_MCO;
 950              		.loc 1 784 0
 951 0072 0793     		str	r3, [sp, #28]
 785:Drivers/STM32F4xx_HAL_Driver/Src/stm32f4xx_hal_rcc.c ****     HAL_GPIO_Init(MCO1_GPIO_PORT, &GPIO_InitStruct);
 952              		.loc 1 785 0
 953 0074 03A9     		add	r1, sp, #12
 954 0076 2648     		ldr	r0, .L125+8
 955 0078 FFF7FEFF 		bl	HAL_GPIO_Init
 956              	.LVL77:
 786:Drivers/STM32F4xx_HAL_Driver/Src/stm32f4xx_hal_rcc.c **** 
 787:Drivers/STM32F4xx_HAL_Driver/Src/stm32f4xx_hal_rcc.c ****     /* Mask MCO1 and MCO1PRE[2:0] bits then Select MCO1 clock source and prescaler */
 788:Drivers/STM32F4xx_HAL_Driver/Src/stm32f4xx_hal_rcc.c ****     MODIFY_REG(RCC->CFGR, (RCC_CFGR_MCO1 | RCC_CFGR_MCO1PRE), (RCC_MCOSource | RCC_MCODiv));
 957              		.loc 1 788 0
 958 007c B368     		ldr	r3, [r6, #8]
 959 007e 23F0EC63 		bic	r3, r3, #123731968
 960 0082 2C43     		orrs	r4, r4, r5
 961              	.LVL78:
 962 0084 1C43     		orrs	r4, r4, r3
 963 0086 B460     		str	r4, [r6, #8]
 964              	.L114:
 789:Drivers/STM32F4xx_HAL_Driver/Src/stm32f4xx_hal_rcc.c **** 
 790:Drivers/STM32F4xx_HAL_Driver/Src/stm32f4xx_hal_rcc.c ****    /* This RCC MCO1 enable feature is available only on STM32F410xx devices */
 791:Drivers/STM32F4xx_HAL_Driver/Src/stm32f4xx_hal_rcc.c **** #if defined(RCC_CFGR_MCO1EN)
 792:Drivers/STM32F4xx_HAL_Driver/Src/stm32f4xx_hal_rcc.c ****     __HAL_RCC_MCO1_ENABLE();
 793:Drivers/STM32F4xx_HAL_Driver/Src/stm32f4xx_hal_rcc.c **** #endif /* RCC_CFGR_MCO1EN */
 794:Drivers/STM32F4xx_HAL_Driver/Src/stm32f4xx_hal_rcc.c ****   }
 795:Drivers/STM32F4xx_HAL_Driver/Src/stm32f4xx_hal_rcc.c **** #if defined(RCC_CFGR_MCO2)
 796:Drivers/STM32F4xx_HAL_Driver/Src/stm32f4xx_hal_rcc.c ****   else
 797:Drivers/STM32F4xx_HAL_Driver/Src/stm32f4xx_hal_rcc.c ****   {
 798:Drivers/STM32F4xx_HAL_Driver/Src/stm32f4xx_hal_rcc.c ****     assert_param(IS_RCC_MCO2SOURCE(RCC_MCOSource));
 799:Drivers/STM32F4xx_HAL_Driver/Src/stm32f4xx_hal_rcc.c **** 
 800:Drivers/STM32F4xx_HAL_Driver/Src/stm32f4xx_hal_rcc.c ****     /* MCO2 Clock Enable */
 801:Drivers/STM32F4xx_HAL_Driver/Src/stm32f4xx_hal_rcc.c ****     __MCO2_CLK_ENABLE();
 802:Drivers/STM32F4xx_HAL_Driver/Src/stm32f4xx_hal_rcc.c **** 
 803:Drivers/STM32F4xx_HAL_Driver/Src/stm32f4xx_hal_rcc.c ****     /* Configure the MCO2 pin in alternate function mode */
 804:Drivers/STM32F4xx_HAL_Driver/Src/stm32f4xx_hal_rcc.c ****     GPIO_InitStruct.Pin = MCO2_PIN;
 805:Drivers/STM32F4xx_HAL_Driver/Src/stm32f4xx_hal_rcc.c ****     GPIO_InitStruct.Mode = GPIO_MODE_AF_PP;
 806:Drivers/STM32F4xx_HAL_Driver/Src/stm32f4xx_hal_rcc.c ****     GPIO_InitStruct.Speed = GPIO_SPEED_FREQ_VERY_HIGH;
 807:Drivers/STM32F4xx_HAL_Driver/Src/stm32f4xx_hal_rcc.c ****     GPIO_InitStruct.Pull = GPIO_NOPULL;
 808:Drivers/STM32F4xx_HAL_Driver/Src/stm32f4xx_hal_rcc.c ****     GPIO_InitStruct.Alternate = GPIO_AF0_MCO;
 809:Drivers/STM32F4xx_HAL_Driver/Src/stm32f4xx_hal_rcc.c ****     HAL_GPIO_Init(MCO2_GPIO_PORT, &GPIO_InitStruct);
 810:Drivers/STM32F4xx_HAL_Driver/Src/stm32f4xx_hal_rcc.c **** 
 811:Drivers/STM32F4xx_HAL_Driver/Src/stm32f4xx_hal_rcc.c ****     /* Mask MCO2 and MCO2PRE[2:0] bits then Select MCO2 clock source and prescaler */
 812:Drivers/STM32F4xx_HAL_Driver/Src/stm32f4xx_hal_rcc.c ****     MODIFY_REG(RCC->CFGR, (RCC_CFGR_MCO2 | RCC_CFGR_MCO2PRE), (RCC_MCOSource | (RCC_MCODiv << 3U)))
ARM GAS  C:\Users\n-is\AppData\Local\Temp\ccbtDXWy.s 			page 33


 813:Drivers/STM32F4xx_HAL_Driver/Src/stm32f4xx_hal_rcc.c **** 
 814:Drivers/STM32F4xx_HAL_Driver/Src/stm32f4xx_hal_rcc.c ****    /* This RCC MCO2 enable feature is available only on STM32F410Rx devices */
 815:Drivers/STM32F4xx_HAL_Driver/Src/stm32f4xx_hal_rcc.c **** #if defined(RCC_CFGR_MCO2EN)
 816:Drivers/STM32F4xx_HAL_Driver/Src/stm32f4xx_hal_rcc.c ****     __HAL_RCC_MCO2_ENABLE();
 817:Drivers/STM32F4xx_HAL_Driver/Src/stm32f4xx_hal_rcc.c **** #endif /* RCC_CFGR_MCO2EN */
 818:Drivers/STM32F4xx_HAL_Driver/Src/stm32f4xx_hal_rcc.c ****   }
 819:Drivers/STM32F4xx_HAL_Driver/Src/stm32f4xx_hal_rcc.c **** #endif /* RCC_CFGR_MCO2 */
 820:Drivers/STM32F4xx_HAL_Driver/Src/stm32f4xx_hal_rcc.c **** }
 965              		.loc 1 820 0
 966 0088 08B0     		add	sp, sp, #32
 967              	.LCFI8:
 968              		.cfi_remember_state
 969              		.cfi_def_cfa_offset 16
 970              		@ sp needed
 971 008a 70BD     		pop	{r4, r5, r6, pc}
 972              	.LVL79:
 973              	.L122:
 974              	.LCFI9:
 975              		.cfi_restore_state
 769:Drivers/STM32F4xx_HAL_Driver/Src/stm32f4xx_hal_rcc.c ****   assert_param(IS_RCC_MCODIV(RCC_MCODiv));
 976              		.loc 1 769 0 discriminator 1
 977 008c 40F20131 		movw	r1, #769
 978              	.LVL80:
 979 0090 1D48     		ldr	r0, .L125
 980              	.LVL81:
 981 0092 FFF7FEFF 		bl	assert_failed
 982              	.LVL82:
 983 0096 BAE7     		b	.L115
 984              	.L123:
 770:Drivers/STM32F4xx_HAL_Driver/Src/stm32f4xx_hal_rcc.c ****   /* RCC_MCO1 */
 985              		.loc 1 770 0 discriminator 5
 986 0098 40F20231 		movw	r1, #770
 987 009c 1A48     		ldr	r0, .L125
 988 009e FFF7FEFF 		bl	assert_failed
 989              	.LVL83:
 990 00a2 C1E7     		b	.L116
 991              	.L117:
 798:Drivers/STM32F4xx_HAL_Driver/Src/stm32f4xx_hal_rcc.c **** 
 992              		.loc 1 798 0
 993 00a4 44B1     		cbz	r4, .L120
 798:Drivers/STM32F4xx_HAL_Driver/Src/stm32f4xx_hal_rcc.c **** 
 994              		.loc 1 798 0 is_stmt 0 discriminator 1
 995 00a6 B4F1804F 		cmp	r4, #1073741824
 996 00aa 05D0     		beq	.L120
 798:Drivers/STM32F4xx_HAL_Driver/Src/stm32f4xx_hal_rcc.c **** 
 997              		.loc 1 798 0 discriminator 2
 998 00ac B4F1004F 		cmp	r4, #-2147483648
 999 00b0 02D0     		beq	.L120
 798:Drivers/STM32F4xx_HAL_Driver/Src/stm32f4xx_hal_rcc.c **** 
 1000              		.loc 1 798 0 discriminator 3
 1001 00b2 B4F1404F 		cmp	r4, #-1073741824
 1002 00b6 20D1     		bne	.L124
 1003              	.L120:
 1004              	.LBB6:
 801:Drivers/STM32F4xx_HAL_Driver/Src/stm32f4xx_hal_rcc.c **** 
 1005              		.loc 1 801 0 is_stmt 1
 1006 00b8 0023     		movs	r3, #0
ARM GAS  C:\Users\n-is\AppData\Local\Temp\ccbtDXWy.s 			page 34


 1007 00ba 0293     		str	r3, [sp, #8]
 1008 00bc 134E     		ldr	r6, .L125+4
 1009              	.LVL84:
 1010 00be 326B     		ldr	r2, [r6, #48]
 1011 00c0 42F00402 		orr	r2, r2, #4
 1012 00c4 3263     		str	r2, [r6, #48]
 1013 00c6 326B     		ldr	r2, [r6, #48]
 1014 00c8 02F00402 		and	r2, r2, #4
 1015 00cc 0292     		str	r2, [sp, #8]
 1016 00ce 029A     		ldr	r2, [sp, #8]
 1017              	.LBE6:
 804:Drivers/STM32F4xx_HAL_Driver/Src/stm32f4xx_hal_rcc.c ****     GPIO_InitStruct.Mode = GPIO_MODE_AF_PP;
 1018              		.loc 1 804 0
 1019 00d0 4FF40072 		mov	r2, #512
 1020 00d4 0392     		str	r2, [sp, #12]
 805:Drivers/STM32F4xx_HAL_Driver/Src/stm32f4xx_hal_rcc.c ****     GPIO_InitStruct.Speed = GPIO_SPEED_FREQ_VERY_HIGH;
 1021              		.loc 1 805 0
 1022 00d6 0222     		movs	r2, #2
 1023 00d8 0492     		str	r2, [sp, #16]
 806:Drivers/STM32F4xx_HAL_Driver/Src/stm32f4xx_hal_rcc.c ****     GPIO_InitStruct.Pull = GPIO_NOPULL;
 1024              		.loc 1 806 0
 1025 00da 0322     		movs	r2, #3
 1026 00dc 0692     		str	r2, [sp, #24]
 807:Drivers/STM32F4xx_HAL_Driver/Src/stm32f4xx_hal_rcc.c ****     GPIO_InitStruct.Alternate = GPIO_AF0_MCO;
 1027              		.loc 1 807 0
 1028 00de 0593     		str	r3, [sp, #20]
 808:Drivers/STM32F4xx_HAL_Driver/Src/stm32f4xx_hal_rcc.c ****     HAL_GPIO_Init(MCO2_GPIO_PORT, &GPIO_InitStruct);
 1029              		.loc 1 808 0
 1030 00e0 0793     		str	r3, [sp, #28]
 809:Drivers/STM32F4xx_HAL_Driver/Src/stm32f4xx_hal_rcc.c **** 
 1031              		.loc 1 809 0
 1032 00e2 03A9     		add	r1, sp, #12
 1033 00e4 0B48     		ldr	r0, .L125+12
 1034 00e6 FFF7FEFF 		bl	HAL_GPIO_Init
 1035              	.LVL85:
 812:Drivers/STM32F4xx_HAL_Driver/Src/stm32f4xx_hal_rcc.c **** 
 1036              		.loc 1 812 0
 1037 00ea B368     		ldr	r3, [r6, #8]
 1038 00ec 23F07843 		bic	r3, r3, #-134217728
 1039 00f0 44EAC504 		orr	r4, r4, r5, lsl #3
 1040              	.LVL86:
 1041 00f4 1C43     		orrs	r4, r4, r3
 1042 00f6 B460     		str	r4, [r6, #8]
 1043              		.loc 1 820 0
 1044 00f8 C6E7     		b	.L114
 1045              	.LVL87:
 1046              	.L124:
 798:Drivers/STM32F4xx_HAL_Driver/Src/stm32f4xx_hal_rcc.c **** 
 1047              		.loc 1 798 0 discriminator 4
 1048 00fa 40F21E31 		movw	r1, #798
 1049 00fe 0248     		ldr	r0, .L125
 1050 0100 FFF7FEFF 		bl	assert_failed
 1051              	.LVL88:
 1052 0104 D8E7     		b	.L120
 1053              	.L126:
 1054 0106 00BF     		.align	2
 1055              	.L125:
ARM GAS  C:\Users\n-is\AppData\Local\Temp\ccbtDXWy.s 			page 35


 1056 0108 00000000 		.word	.LC0
 1057 010c 00380240 		.word	1073887232
 1058 0110 00000240 		.word	1073872896
 1059 0114 00080240 		.word	1073874944
 1060              		.cfi_endproc
 1061              	.LFE129:
 1063              		.section	.text.HAL_RCC_EnableCSS,"ax",%progbits
 1064              		.align	1
 1065              		.global	HAL_RCC_EnableCSS
 1066              		.syntax unified
 1067              		.thumb
 1068              		.thumb_func
 1069              		.fpu fpv4-sp-d16
 1071              	HAL_RCC_EnableCSS:
 1072              	.LFB130:
 821:Drivers/STM32F4xx_HAL_Driver/Src/stm32f4xx_hal_rcc.c **** 
 822:Drivers/STM32F4xx_HAL_Driver/Src/stm32f4xx_hal_rcc.c **** /**
 823:Drivers/STM32F4xx_HAL_Driver/Src/stm32f4xx_hal_rcc.c ****   * @brief  Enables the Clock Security System.
 824:Drivers/STM32F4xx_HAL_Driver/Src/stm32f4xx_hal_rcc.c ****   * @note   If a failure is detected on the HSE oscillator clock, this oscillator
 825:Drivers/STM32F4xx_HAL_Driver/Src/stm32f4xx_hal_rcc.c ****   *         is automatically disabled and an interrupt is generated to inform the
 826:Drivers/STM32F4xx_HAL_Driver/Src/stm32f4xx_hal_rcc.c ****   *         software about the failure (Clock Security System Interrupt, CSSI),
 827:Drivers/STM32F4xx_HAL_Driver/Src/stm32f4xx_hal_rcc.c ****   *         allowing the MCU to perform rescue operations. The CSSI is linked to
 828:Drivers/STM32F4xx_HAL_Driver/Src/stm32f4xx_hal_rcc.c ****   *         the Cortex-M4 NMI (Non-Maskable Interrupt) exception vector.
 829:Drivers/STM32F4xx_HAL_Driver/Src/stm32f4xx_hal_rcc.c ****   * @retval None
 830:Drivers/STM32F4xx_HAL_Driver/Src/stm32f4xx_hal_rcc.c ****   */
 831:Drivers/STM32F4xx_HAL_Driver/Src/stm32f4xx_hal_rcc.c **** void HAL_RCC_EnableCSS(void)
 832:Drivers/STM32F4xx_HAL_Driver/Src/stm32f4xx_hal_rcc.c **** {
 1073              		.loc 1 832 0
 1074              		.cfi_startproc
 1075              		@ args = 0, pretend = 0, frame = 0
 1076              		@ frame_needed = 0, uses_anonymous_args = 0
 1077              		@ link register save eliminated.
 833:Drivers/STM32F4xx_HAL_Driver/Src/stm32f4xx_hal_rcc.c ****   *(__IO uint32_t *) RCC_CR_CSSON_BB = (uint32_t)ENABLE;
 1078              		.loc 1 833 0
 1079 0000 014B     		ldr	r3, .L128
 1080 0002 0122     		movs	r2, #1
 1081 0004 1A60     		str	r2, [r3]
 834:Drivers/STM32F4xx_HAL_Driver/Src/stm32f4xx_hal_rcc.c **** }
 1082              		.loc 1 834 0
 1083 0006 7047     		bx	lr
 1084              	.L129:
 1085              		.align	2
 1086              	.L128:
 1087 0008 4C004742 		.word	1111949388
 1088              		.cfi_endproc
 1089              	.LFE130:
 1091              		.section	.text.HAL_RCC_DisableCSS,"ax",%progbits
 1092              		.align	1
 1093              		.global	HAL_RCC_DisableCSS
 1094              		.syntax unified
 1095              		.thumb
 1096              		.thumb_func
 1097              		.fpu fpv4-sp-d16
 1099              	HAL_RCC_DisableCSS:
 1100              	.LFB131:
 835:Drivers/STM32F4xx_HAL_Driver/Src/stm32f4xx_hal_rcc.c **** 
 836:Drivers/STM32F4xx_HAL_Driver/Src/stm32f4xx_hal_rcc.c **** /**
ARM GAS  C:\Users\n-is\AppData\Local\Temp\ccbtDXWy.s 			page 36


 837:Drivers/STM32F4xx_HAL_Driver/Src/stm32f4xx_hal_rcc.c ****   * @brief  Disables the Clock Security System.
 838:Drivers/STM32F4xx_HAL_Driver/Src/stm32f4xx_hal_rcc.c ****   * @retval None
 839:Drivers/STM32F4xx_HAL_Driver/Src/stm32f4xx_hal_rcc.c ****   */
 840:Drivers/STM32F4xx_HAL_Driver/Src/stm32f4xx_hal_rcc.c **** void HAL_RCC_DisableCSS(void)
 841:Drivers/STM32F4xx_HAL_Driver/Src/stm32f4xx_hal_rcc.c **** {
 1101              		.loc 1 841 0
 1102              		.cfi_startproc
 1103              		@ args = 0, pretend = 0, frame = 0
 1104              		@ frame_needed = 0, uses_anonymous_args = 0
 1105              		@ link register save eliminated.
 842:Drivers/STM32F4xx_HAL_Driver/Src/stm32f4xx_hal_rcc.c ****   *(__IO uint32_t *) RCC_CR_CSSON_BB = (uint32_t)DISABLE;
 1106              		.loc 1 842 0
 1107 0000 014B     		ldr	r3, .L131
 1108 0002 0022     		movs	r2, #0
 1109 0004 1A60     		str	r2, [r3]
 843:Drivers/STM32F4xx_HAL_Driver/Src/stm32f4xx_hal_rcc.c **** }
 1110              		.loc 1 843 0
 1111 0006 7047     		bx	lr
 1112              	.L132:
 1113              		.align	2
 1114              	.L131:
 1115 0008 4C004742 		.word	1111949388
 1116              		.cfi_endproc
 1117              	.LFE131:
 1119              		.global	__aeabi_uldivmod
 1120              		.section	.text.HAL_RCC_GetSysClockFreq,"ax",%progbits
 1121              		.align	1
 1122              		.weak	HAL_RCC_GetSysClockFreq
 1123              		.syntax unified
 1124              		.thumb
 1125              		.thumb_func
 1126              		.fpu fpv4-sp-d16
 1128              	HAL_RCC_GetSysClockFreq:
 1129              	.LFB132:
 844:Drivers/STM32F4xx_HAL_Driver/Src/stm32f4xx_hal_rcc.c **** 
 845:Drivers/STM32F4xx_HAL_Driver/Src/stm32f4xx_hal_rcc.c **** /**
 846:Drivers/STM32F4xx_HAL_Driver/Src/stm32f4xx_hal_rcc.c ****   * @brief  Returns the SYSCLK frequency
 847:Drivers/STM32F4xx_HAL_Driver/Src/stm32f4xx_hal_rcc.c ****   *
 848:Drivers/STM32F4xx_HAL_Driver/Src/stm32f4xx_hal_rcc.c ****   * @note   The system frequency computed by this function is not the real
 849:Drivers/STM32F4xx_HAL_Driver/Src/stm32f4xx_hal_rcc.c ****   *         frequency in the chip. It is calculated based on the predefined
 850:Drivers/STM32F4xx_HAL_Driver/Src/stm32f4xx_hal_rcc.c ****   *         constant and the selected clock source:
 851:Drivers/STM32F4xx_HAL_Driver/Src/stm32f4xx_hal_rcc.c ****   * @note     If SYSCLK source is HSI, function returns values based on HSI_VALUE(*)
 852:Drivers/STM32F4xx_HAL_Driver/Src/stm32f4xx_hal_rcc.c ****   * @note     If SYSCLK source is HSE, function returns values based on HSE_VALUE(**)
 853:Drivers/STM32F4xx_HAL_Driver/Src/stm32f4xx_hal_rcc.c ****   * @note     If SYSCLK source is PLL, function returns values based on HSE_VALUE(**)
 854:Drivers/STM32F4xx_HAL_Driver/Src/stm32f4xx_hal_rcc.c ****   *           or HSI_VALUE(*) multiplied/divided by the PLL factors.
 855:Drivers/STM32F4xx_HAL_Driver/Src/stm32f4xx_hal_rcc.c ****   * @note     (*) HSI_VALUE is a constant defined in stm32f4xx_hal_conf.h file (default value
 856:Drivers/STM32F4xx_HAL_Driver/Src/stm32f4xx_hal_rcc.c ****   *               16 MHz) but the real value may vary depending on the variations
 857:Drivers/STM32F4xx_HAL_Driver/Src/stm32f4xx_hal_rcc.c ****   *               in voltage and temperature.
 858:Drivers/STM32F4xx_HAL_Driver/Src/stm32f4xx_hal_rcc.c ****   * @note     (**) HSE_VALUE is a constant defined in stm32f4xx_hal_conf.h file (default value
 859:Drivers/STM32F4xx_HAL_Driver/Src/stm32f4xx_hal_rcc.c ****   *                25 MHz), user has to ensure that HSE_VALUE is same as the real
 860:Drivers/STM32F4xx_HAL_Driver/Src/stm32f4xx_hal_rcc.c ****   *                frequency of the crystal used. Otherwise, this function may
 861:Drivers/STM32F4xx_HAL_Driver/Src/stm32f4xx_hal_rcc.c ****   *                have wrong result.
 862:Drivers/STM32F4xx_HAL_Driver/Src/stm32f4xx_hal_rcc.c ****   *
 863:Drivers/STM32F4xx_HAL_Driver/Src/stm32f4xx_hal_rcc.c ****   * @note   The result of this function could be not correct when using fractional
 864:Drivers/STM32F4xx_HAL_Driver/Src/stm32f4xx_hal_rcc.c ****   *         value for HSE crystal.
 865:Drivers/STM32F4xx_HAL_Driver/Src/stm32f4xx_hal_rcc.c ****   *
 866:Drivers/STM32F4xx_HAL_Driver/Src/stm32f4xx_hal_rcc.c ****   * @note   This function can be used by the user application to compute the
ARM GAS  C:\Users\n-is\AppData\Local\Temp\ccbtDXWy.s 			page 37


 867:Drivers/STM32F4xx_HAL_Driver/Src/stm32f4xx_hal_rcc.c ****   *         baudrate for the communication peripherals or configure other parameters.
 868:Drivers/STM32F4xx_HAL_Driver/Src/stm32f4xx_hal_rcc.c ****   *
 869:Drivers/STM32F4xx_HAL_Driver/Src/stm32f4xx_hal_rcc.c ****   * @note   Each time SYSCLK changes, this function must be called to update the
 870:Drivers/STM32F4xx_HAL_Driver/Src/stm32f4xx_hal_rcc.c ****   *         right SYSCLK value. Otherwise, any configuration based on this function will be incorre
 871:Drivers/STM32F4xx_HAL_Driver/Src/stm32f4xx_hal_rcc.c ****   *
 872:Drivers/STM32F4xx_HAL_Driver/Src/stm32f4xx_hal_rcc.c ****   *
 873:Drivers/STM32F4xx_HAL_Driver/Src/stm32f4xx_hal_rcc.c ****   * @retval SYSCLK frequency
 874:Drivers/STM32F4xx_HAL_Driver/Src/stm32f4xx_hal_rcc.c ****   */
 875:Drivers/STM32F4xx_HAL_Driver/Src/stm32f4xx_hal_rcc.c **** __weak uint32_t HAL_RCC_GetSysClockFreq(void)
 876:Drivers/STM32F4xx_HAL_Driver/Src/stm32f4xx_hal_rcc.c **** {
 1130              		.loc 1 876 0
 1131              		.cfi_startproc
 1132              		@ args = 0, pretend = 0, frame = 0
 1133              		@ frame_needed = 0, uses_anonymous_args = 0
 1134              	.LVL89:
 877:Drivers/STM32F4xx_HAL_Driver/Src/stm32f4xx_hal_rcc.c ****   uint32_t pllm = 0U, pllvco = 0U, pllp = 0U;
 878:Drivers/STM32F4xx_HAL_Driver/Src/stm32f4xx_hal_rcc.c ****   uint32_t sysclockfreq = 0U;
 879:Drivers/STM32F4xx_HAL_Driver/Src/stm32f4xx_hal_rcc.c **** 
 880:Drivers/STM32F4xx_HAL_Driver/Src/stm32f4xx_hal_rcc.c ****   /* Get SYSCLK source -------------------------------------------------------*/
 881:Drivers/STM32F4xx_HAL_Driver/Src/stm32f4xx_hal_rcc.c ****   switch (RCC->CFGR & RCC_CFGR_SWS)
 1135              		.loc 1 881 0
 1136 0000 324B     		ldr	r3, .L143
 1137 0002 9B68     		ldr	r3, [r3, #8]
 1138 0004 03F00C03 		and	r3, r3, #12
 1139 0008 042B     		cmp	r3, #4
 1140 000a 5CD0     		beq	.L139
 1141 000c 082B     		cmp	r3, #8
 1142 000e 01D0     		beq	.L136
 882:Drivers/STM32F4xx_HAL_Driver/Src/stm32f4xx_hal_rcc.c ****   {
 883:Drivers/STM32F4xx_HAL_Driver/Src/stm32f4xx_hal_rcc.c ****     case RCC_CFGR_SWS_HSI:  /* HSI used as system clock source */
 884:Drivers/STM32F4xx_HAL_Driver/Src/stm32f4xx_hal_rcc.c ****     {
 885:Drivers/STM32F4xx_HAL_Driver/Src/stm32f4xx_hal_rcc.c ****       sysclockfreq = HSI_VALUE;
 1143              		.loc 1 885 0
 1144 0010 2F48     		ldr	r0, .L143+4
 1145 0012 7047     		bx	lr
 1146              	.L136:
 876:Drivers/STM32F4xx_HAL_Driver/Src/stm32f4xx_hal_rcc.c ****   uint32_t pllm = 0U, pllvco = 0U, pllp = 0U;
 1147              		.loc 1 876 0
 1148 0014 2DE9F04B 		push	{r4, r5, r6, r7, r8, r9, fp, lr}
 1149              	.LCFI10:
 1150              		.cfi_def_cfa_offset 32
 1151              		.cfi_offset 4, -32
 1152              		.cfi_offset 5, -28
 1153              		.cfi_offset 6, -24
 1154              		.cfi_offset 7, -20
 1155              		.cfi_offset 8, -16
 1156              		.cfi_offset 9, -12
 1157              		.cfi_offset 11, -8
 1158              		.cfi_offset 14, -4
 886:Drivers/STM32F4xx_HAL_Driver/Src/stm32f4xx_hal_rcc.c ****        break;
 887:Drivers/STM32F4xx_HAL_Driver/Src/stm32f4xx_hal_rcc.c ****     }
 888:Drivers/STM32F4xx_HAL_Driver/Src/stm32f4xx_hal_rcc.c ****     case RCC_CFGR_SWS_HSE:  /* HSE used as system clock  source */
 889:Drivers/STM32F4xx_HAL_Driver/Src/stm32f4xx_hal_rcc.c ****     {
 890:Drivers/STM32F4xx_HAL_Driver/Src/stm32f4xx_hal_rcc.c ****       sysclockfreq = HSE_VALUE;
 891:Drivers/STM32F4xx_HAL_Driver/Src/stm32f4xx_hal_rcc.c ****       break;
 892:Drivers/STM32F4xx_HAL_Driver/Src/stm32f4xx_hal_rcc.c ****     }
 893:Drivers/STM32F4xx_HAL_Driver/Src/stm32f4xx_hal_rcc.c ****     case RCC_CFGR_SWS_PLL:  /* PLL used as system clock  source */
ARM GAS  C:\Users\n-is\AppData\Local\Temp\ccbtDXWy.s 			page 38


 894:Drivers/STM32F4xx_HAL_Driver/Src/stm32f4xx_hal_rcc.c ****     {
 895:Drivers/STM32F4xx_HAL_Driver/Src/stm32f4xx_hal_rcc.c ****       /* PLL_VCO = (HSE_VALUE or HSI_VALUE / PLLM) * PLLN
 896:Drivers/STM32F4xx_HAL_Driver/Src/stm32f4xx_hal_rcc.c ****       SYSCLK = PLL_VCO / PLLP */
 897:Drivers/STM32F4xx_HAL_Driver/Src/stm32f4xx_hal_rcc.c ****       pllm = RCC->PLLCFGR & RCC_PLLCFGR_PLLM;
 1159              		.loc 1 897 0
 1160 0018 2C4B     		ldr	r3, .L143
 1161 001a 5A68     		ldr	r2, [r3, #4]
 1162 001c 02F03F02 		and	r2, r2, #63
 1163              	.LVL90:
 898:Drivers/STM32F4xx_HAL_Driver/Src/stm32f4xx_hal_rcc.c ****       if(__HAL_RCC_GET_PLL_OSCSOURCE() != RCC_PLLSOURCE_HSI)
 1164              		.loc 1 898 0
 1165 0020 5B68     		ldr	r3, [r3, #4]
 1166 0022 13F4800F 		tst	r3, #4194304
 1167 0026 2BD0     		beq	.L137
 899:Drivers/STM32F4xx_HAL_Driver/Src/stm32f4xx_hal_rcc.c ****       {
 900:Drivers/STM32F4xx_HAL_Driver/Src/stm32f4xx_hal_rcc.c ****         /* HSE used as PLL clock source */
 901:Drivers/STM32F4xx_HAL_Driver/Src/stm32f4xx_hal_rcc.c ****         pllvco = (uint32_t) ((((uint64_t) HSE_VALUE * ((uint64_t) ((RCC->PLLCFGR & RCC_PLLCFGR_PLLN
 1168              		.loc 1 901 0
 1169 0028 284B     		ldr	r3, .L143
 1170 002a 5B68     		ldr	r3, [r3, #4]
 1171 002c C3F38813 		ubfx	r3, r3, #6, #9
 1172 0030 1E46     		mov	r6, r3
 1173 0032 0027     		movs	r7, #0
 1174 0034 5C01     		lsls	r4, r3, #5
 1175 0036 0025     		movs	r5, #0
 1176 0038 E41A     		subs	r4, r4, r3
 1177 003a 65EB0705 		sbc	r5, r5, r7
 1178 003e A901     		lsls	r1, r5, #6
 1179 0040 41EA9461 		orr	r1, r1, r4, lsr #26
 1180 0044 A001     		lsls	r0, r4, #6
 1181 0046 001B     		subs	r0, r0, r4
 1182 0048 61EB0501 		sbc	r1, r1, r5
 1183 004c CB00     		lsls	r3, r1, #3
 1184 004e 43EA5073 		orr	r3, r3, r0, lsr #29
 1185 0052 C400     		lsls	r4, r0, #3
 1186 0054 A019     		adds	r0, r4, r6
 1187 0056 43EB0701 		adc	r1, r3, r7
 1188 005a 4B02     		lsls	r3, r1, #9
 1189 005c 43EAD053 		orr	r3, r3, r0, lsr #23
 1190 0060 4402     		lsls	r4, r0, #9
 1191 0062 2046     		mov	r0, r4
 1192 0064 1946     		mov	r1, r3
 1193 0066 0023     		movs	r3, #0
 1194 0068 FFF7FEFF 		bl	__aeabi_uldivmod
 1195              	.LVL91:
 1196              	.L138:
 902:Drivers/STM32F4xx_HAL_Driver/Src/stm32f4xx_hal_rcc.c ****       }
 903:Drivers/STM32F4xx_HAL_Driver/Src/stm32f4xx_hal_rcc.c ****       else
 904:Drivers/STM32F4xx_HAL_Driver/Src/stm32f4xx_hal_rcc.c ****       {
 905:Drivers/STM32F4xx_HAL_Driver/Src/stm32f4xx_hal_rcc.c ****         /* HSI used as PLL clock source */
 906:Drivers/STM32F4xx_HAL_Driver/Src/stm32f4xx_hal_rcc.c ****         pllvco = (uint32_t) ((((uint64_t) HSI_VALUE * ((uint64_t) ((RCC->PLLCFGR & RCC_PLLCFGR_PLLN
 907:Drivers/STM32F4xx_HAL_Driver/Src/stm32f4xx_hal_rcc.c ****       }
 908:Drivers/STM32F4xx_HAL_Driver/Src/stm32f4xx_hal_rcc.c ****       pllp = ((((RCC->PLLCFGR & RCC_PLLCFGR_PLLP) >> RCC_PLLCFGR_PLLP_Pos) + 1U) *2U);
 1197              		.loc 1 908 0
 1198 006c 174B     		ldr	r3, .L143
 1199 006e 5B68     		ldr	r3, [r3, #4]
 1200 0070 C3F30143 		ubfx	r3, r3, #16, #2
ARM GAS  C:\Users\n-is\AppData\Local\Temp\ccbtDXWy.s 			page 39


 1201 0074 0133     		adds	r3, r3, #1
 1202 0076 5B00     		lsls	r3, r3, #1
 1203              	.LVL92:
 909:Drivers/STM32F4xx_HAL_Driver/Src/stm32f4xx_hal_rcc.c **** 
 910:Drivers/STM32F4xx_HAL_Driver/Src/stm32f4xx_hal_rcc.c ****       sysclockfreq = pllvco/pllp;
 1204              		.loc 1 910 0
 1205 0078 B0FBF3F0 		udiv	r0, r0, r3
 1206              	.LVL93:
 911:Drivers/STM32F4xx_HAL_Driver/Src/stm32f4xx_hal_rcc.c ****       break;
 912:Drivers/STM32F4xx_HAL_Driver/Src/stm32f4xx_hal_rcc.c ****     }
 913:Drivers/STM32F4xx_HAL_Driver/Src/stm32f4xx_hal_rcc.c ****     default:
 914:Drivers/STM32F4xx_HAL_Driver/Src/stm32f4xx_hal_rcc.c ****     {
 915:Drivers/STM32F4xx_HAL_Driver/Src/stm32f4xx_hal_rcc.c ****       sysclockfreq = HSI_VALUE;
 916:Drivers/STM32F4xx_HAL_Driver/Src/stm32f4xx_hal_rcc.c ****       break;
 917:Drivers/STM32F4xx_HAL_Driver/Src/stm32f4xx_hal_rcc.c ****     }
 918:Drivers/STM32F4xx_HAL_Driver/Src/stm32f4xx_hal_rcc.c ****   }
 919:Drivers/STM32F4xx_HAL_Driver/Src/stm32f4xx_hal_rcc.c ****   return sysclockfreq;
 920:Drivers/STM32F4xx_HAL_Driver/Src/stm32f4xx_hal_rcc.c **** }
 1207              		.loc 1 920 0
 1208 007c BDE8F08B 		pop	{r4, r5, r6, r7, r8, r9, fp, pc}
 1209              	.LVL94:
 1210              	.L137:
 906:Drivers/STM32F4xx_HAL_Driver/Src/stm32f4xx_hal_rcc.c ****       }
 1211              		.loc 1 906 0
 1212 0080 124B     		ldr	r3, .L143
 1213 0082 5B68     		ldr	r3, [r3, #4]
 1214 0084 C3F38813 		ubfx	r3, r3, #6, #9
 1215 0088 1E46     		mov	r6, r3
 1216 008a 0027     		movs	r7, #0
 1217 008c 5C01     		lsls	r4, r3, #5
 1218 008e 0025     		movs	r5, #0
 1219 0090 E41A     		subs	r4, r4, r3
 1220 0092 65EB0705 		sbc	r5, r5, r7
 1221 0096 A901     		lsls	r1, r5, #6
 1222 0098 41EA9461 		orr	r1, r1, r4, lsr #26
 1223 009c A001     		lsls	r0, r4, #6
 1224 009e 001B     		subs	r0, r0, r4
 1225 00a0 61EB0501 		sbc	r1, r1, r5
 1226 00a4 CB00     		lsls	r3, r1, #3
 1227 00a6 43EA5073 		orr	r3, r3, r0, lsr #29
 1228 00aa C400     		lsls	r4, r0, #3
 1229 00ac A019     		adds	r0, r4, r6
 1230 00ae 43EB0701 		adc	r1, r3, r7
 1231 00b2 8B02     		lsls	r3, r1, #10
 1232 00b4 43EA9053 		orr	r3, r3, r0, lsr #22
 1233 00b8 8402     		lsls	r4, r0, #10
 1234 00ba 2046     		mov	r0, r4
 1235 00bc 1946     		mov	r1, r3
 1236 00be 0023     		movs	r3, #0
 1237 00c0 FFF7FEFF 		bl	__aeabi_uldivmod
 1238              	.LVL95:
 1239 00c4 D2E7     		b	.L138
 1240              	.LVL96:
 1241              	.L139:
 1242              	.LCFI11:
 1243              		.cfi_def_cfa_offset 0
 1244              		.cfi_restore 4
ARM GAS  C:\Users\n-is\AppData\Local\Temp\ccbtDXWy.s 			page 40


 1245              		.cfi_restore 5
 1246              		.cfi_restore 6
 1247              		.cfi_restore 7
 1248              		.cfi_restore 8
 1249              		.cfi_restore 9
 1250              		.cfi_restore 11
 1251              		.cfi_restore 14
 890:Drivers/STM32F4xx_HAL_Driver/Src/stm32f4xx_hal_rcc.c ****       break;
 1252              		.loc 1 890 0
 1253 00c6 0348     		ldr	r0, .L143+8
 1254              	.LVL97:
 1255              		.loc 1 920 0
 1256 00c8 7047     		bx	lr
 1257              	.L144:
 1258 00ca 00BF     		.align	2
 1259              	.L143:
 1260 00cc 00380240 		.word	1073887232
 1261 00d0 0024F400 		.word	16000000
 1262 00d4 00127A00 		.word	8000000
 1263              		.cfi_endproc
 1264              	.LFE132:
 1266              		.section	.text.HAL_RCC_ClockConfig,"ax",%progbits
 1267              		.align	1
 1268              		.global	HAL_RCC_ClockConfig
 1269              		.syntax unified
 1270              		.thumb
 1271              		.thumb_func
 1272              		.fpu fpv4-sp-d16
 1274              	HAL_RCC_ClockConfig:
 1275              	.LFB128:
 582:Drivers/STM32F4xx_HAL_Driver/Src/stm32f4xx_hal_rcc.c ****   uint32_t tickstart;
 1276              		.loc 1 582 0
 1277              		.cfi_startproc
 1278              		@ args = 0, pretend = 0, frame = 0
 1279              		@ frame_needed = 0, uses_anonymous_args = 0
 1280              	.LVL98:
 586:Drivers/STM32F4xx_HAL_Driver/Src/stm32f4xx_hal_rcc.c ****   {
 1281              		.loc 1 586 0
 1282 0000 0028     		cmp	r0, #0
 1283 0002 00F0F980 		beq	.L166
 582:Drivers/STM32F4xx_HAL_Driver/Src/stm32f4xx_hal_rcc.c ****   uint32_t tickstart;
 1284              		.loc 1 582 0
 1285 0006 70B5     		push	{r4, r5, r6, lr}
 1286              	.LCFI12:
 1287              		.cfi_def_cfa_offset 16
 1288              		.cfi_offset 4, -16
 1289              		.cfi_offset 5, -12
 1290              		.cfi_offset 6, -8
 1291              		.cfi_offset 14, -4
 1292 0008 0446     		mov	r4, r0
 1293 000a 0D46     		mov	r5, r1
 592:Drivers/STM32F4xx_HAL_Driver/Src/stm32f4xx_hal_rcc.c ****   assert_param(IS_FLASH_LATENCY(FLatency));
 1294              		.loc 1 592 0
 1295 000c 0368     		ldr	r3, [r0]
 1296 000e 013B     		subs	r3, r3, #1
 1297 0010 0E2B     		cmp	r3, #14
 1298 0012 11D8     		bhi	.L177
ARM GAS  C:\Users\n-is\AppData\Local\Temp\ccbtDXWy.s 			page 41


 1299              	.LVL99:
 1300              	.L147:
 593:Drivers/STM32F4xx_HAL_Driver/Src/stm32f4xx_hal_rcc.c **** 
 1301              		.loc 1 593 0
 1302 0014 072D     		cmp	r5, #7
 1303 0016 15D8     		bhi	.L178
 1304              	.L148:
 600:Drivers/STM32F4xx_HAL_Driver/Src/stm32f4xx_hal_rcc.c ****   {
 1305              		.loc 1 600 0
 1306 0018 794B     		ldr	r3, .L185
 1307 001a 1B68     		ldr	r3, [r3]
 1308 001c 03F00F03 		and	r3, r3, #15
 1309 0020 AB42     		cmp	r3, r5
 1310 0022 15D2     		bcs	.L149
 603:Drivers/STM32F4xx_HAL_Driver/Src/stm32f4xx_hal_rcc.c **** 
 1311              		.loc 1 603 0
 1312 0024 EBB2     		uxtb	r3, r5
 1313 0026 764A     		ldr	r2, .L185
 1314 0028 1370     		strb	r3, [r2]
 607:Drivers/STM32F4xx_HAL_Driver/Src/stm32f4xx_hal_rcc.c ****     {
 1315              		.loc 1 607 0
 1316 002a 1368     		ldr	r3, [r2]
 1317 002c 03F00F03 		and	r3, r3, #15
 1318 0030 AB42     		cmp	r3, r5
 1319 0032 0DD0     		beq	.L149
 609:Drivers/STM32F4xx_HAL_Driver/Src/stm32f4xx_hal_rcc.c ****     }
 1320              		.loc 1 609 0
 1321 0034 0120     		movs	r0, #1
 1322              	.L146:
 715:Drivers/STM32F4xx_HAL_Driver/Src/stm32f4xx_hal_rcc.c **** 
 1323              		.loc 1 715 0
 1324 0036 70BD     		pop	{r4, r5, r6, pc}
 1325              	.LVL100:
 1326              	.L177:
 592:Drivers/STM32F4xx_HAL_Driver/Src/stm32f4xx_hal_rcc.c ****   assert_param(IS_FLASH_LATENCY(FLatency));
 1327              		.loc 1 592 0 discriminator 1
 1328 0038 4FF41471 		mov	r1, #592
 1329              	.LVL101:
 1330 003c 7148     		ldr	r0, .L185+4
 1331              	.LVL102:
 1332 003e FFF7FEFF 		bl	assert_failed
 1333              	.LVL103:
 1334 0042 E7E7     		b	.L147
 1335              	.L178:
 593:Drivers/STM32F4xx_HAL_Driver/Src/stm32f4xx_hal_rcc.c **** 
 1336              		.loc 1 593 0 discriminator 1
 1337 0044 40F25121 		movw	r1, #593
 1338 0048 6E48     		ldr	r0, .L185+4
 1339 004a FFF7FEFF 		bl	assert_failed
 1340              	.LVL104:
 1341 004e E3E7     		b	.L148
 1342              	.L149:
 614:Drivers/STM32F4xx_HAL_Driver/Src/stm32f4xx_hal_rcc.c ****   {
 1343              		.loc 1 614 0
 1344 0050 2368     		ldr	r3, [r4]
 1345 0052 13F0020F 		tst	r3, #2
 1346 0056 29D0     		beq	.L150
ARM GAS  C:\Users\n-is\AppData\Local\Temp\ccbtDXWy.s 			page 42


 618:Drivers/STM32F4xx_HAL_Driver/Src/stm32f4xx_hal_rcc.c ****     {
 1347              		.loc 1 618 0
 1348 0058 13F0040F 		tst	r3, #4
 1349 005c 04D0     		beq	.L151
 620:Drivers/STM32F4xx_HAL_Driver/Src/stm32f4xx_hal_rcc.c ****     }
 1350              		.loc 1 620 0
 1351 005e 6A4A     		ldr	r2, .L185+8
 1352 0060 9368     		ldr	r3, [r2, #8]
 1353 0062 43F4E053 		orr	r3, r3, #7168
 1354 0066 9360     		str	r3, [r2, #8]
 1355              	.L151:
 623:Drivers/STM32F4xx_HAL_Driver/Src/stm32f4xx_hal_rcc.c ****     {
 1356              		.loc 1 623 0
 1357 0068 2368     		ldr	r3, [r4]
 1358 006a 13F0080F 		tst	r3, #8
 1359 006e 04D0     		beq	.L152
 625:Drivers/STM32F4xx_HAL_Driver/Src/stm32f4xx_hal_rcc.c ****     }
 1360              		.loc 1 625 0
 1361 0070 654A     		ldr	r2, .L185+8
 1362 0072 9368     		ldr	r3, [r2, #8]
 1363 0074 43F46043 		orr	r3, r3, #57344
 1364 0078 9360     		str	r3, [r2, #8]
 1365              	.L152:
 628:Drivers/STM32F4xx_HAL_Driver/Src/stm32f4xx_hal_rcc.c ****     MODIFY_REG(RCC->CFGR, RCC_CFGR_HPRE, RCC_ClkInitStruct->AHBCLKDivider);
 1366              		.loc 1 628 0
 1367 007a A368     		ldr	r3, [r4, #8]
 1368 007c 7BB1     		cbz	r3, .L153
 628:Drivers/STM32F4xx_HAL_Driver/Src/stm32f4xx_hal_rcc.c ****     MODIFY_REG(RCC->CFGR, RCC_CFGR_HPRE, RCC_ClkInitStruct->AHBCLKDivider);
 1369              		.loc 1 628 0 is_stmt 0 discriminator 1
 1370 007e 802B     		cmp	r3, #128
 1371 0080 0DD0     		beq	.L153
 628:Drivers/STM32F4xx_HAL_Driver/Src/stm32f4xx_hal_rcc.c ****     MODIFY_REG(RCC->CFGR, RCC_CFGR_HPRE, RCC_ClkInitStruct->AHBCLKDivider);
 1372              		.loc 1 628 0 discriminator 2
 1373 0082 902B     		cmp	r3, #144
 1374 0084 0BD0     		beq	.L153
 628:Drivers/STM32F4xx_HAL_Driver/Src/stm32f4xx_hal_rcc.c ****     MODIFY_REG(RCC->CFGR, RCC_CFGR_HPRE, RCC_ClkInitStruct->AHBCLKDivider);
 1375              		.loc 1 628 0 discriminator 3
 1376 0086 A02B     		cmp	r3, #160
 1377 0088 09D0     		beq	.L153
 628:Drivers/STM32F4xx_HAL_Driver/Src/stm32f4xx_hal_rcc.c ****     MODIFY_REG(RCC->CFGR, RCC_CFGR_HPRE, RCC_ClkInitStruct->AHBCLKDivider);
 1378              		.loc 1 628 0 discriminator 4
 1379 008a B02B     		cmp	r3, #176
 1380 008c 07D0     		beq	.L153
 628:Drivers/STM32F4xx_HAL_Driver/Src/stm32f4xx_hal_rcc.c ****     MODIFY_REG(RCC->CFGR, RCC_CFGR_HPRE, RCC_ClkInitStruct->AHBCLKDivider);
 1381              		.loc 1 628 0 discriminator 5
 1382 008e C02B     		cmp	r3, #192
 1383 0090 05D0     		beq	.L153
 628:Drivers/STM32F4xx_HAL_Driver/Src/stm32f4xx_hal_rcc.c ****     MODIFY_REG(RCC->CFGR, RCC_CFGR_HPRE, RCC_ClkInitStruct->AHBCLKDivider);
 1384              		.loc 1 628 0 discriminator 6
 1385 0092 D02B     		cmp	r3, #208
 1386 0094 03D0     		beq	.L153
 628:Drivers/STM32F4xx_HAL_Driver/Src/stm32f4xx_hal_rcc.c ****     MODIFY_REG(RCC->CFGR, RCC_CFGR_HPRE, RCC_ClkInitStruct->AHBCLKDivider);
 1387              		.loc 1 628 0 discriminator 7
 1388 0096 E02B     		cmp	r3, #224
 1389 0098 01D0     		beq	.L153
 628:Drivers/STM32F4xx_HAL_Driver/Src/stm32f4xx_hal_rcc.c ****     MODIFY_REG(RCC->CFGR, RCC_CFGR_HPRE, RCC_ClkInitStruct->AHBCLKDivider);
 1390              		.loc 1 628 0 discriminator 8
ARM GAS  C:\Users\n-is\AppData\Local\Temp\ccbtDXWy.s 			page 43


 1391 009a F02B     		cmp	r3, #240
 1392 009c 33D1     		bne	.L179
 1393              	.L153:
 629:Drivers/STM32F4xx_HAL_Driver/Src/stm32f4xx_hal_rcc.c ****   }
 1394              		.loc 1 629 0 is_stmt 1
 1395 009e 5A4A     		ldr	r2, .L185+8
 1396 00a0 9368     		ldr	r3, [r2, #8]
 1397 00a2 23F0F003 		bic	r3, r3, #240
 1398 00a6 A168     		ldr	r1, [r4, #8]
 1399 00a8 0B43     		orrs	r3, r3, r1
 1400 00aa 9360     		str	r3, [r2, #8]
 1401              	.L150:
 633:Drivers/STM32F4xx_HAL_Driver/Src/stm32f4xx_hal_rcc.c ****   {
 1402              		.loc 1 633 0
 1403 00ac 2368     		ldr	r3, [r4]
 1404 00ae 13F0010F 		tst	r3, #1
 1405 00b2 42D0     		beq	.L154
 635:Drivers/STM32F4xx_HAL_Driver/Src/stm32f4xx_hal_rcc.c **** 
 1406              		.loc 1 635 0
 1407 00b4 6368     		ldr	r3, [r4, #4]
 1408 00b6 032B     		cmp	r3, #3
 1409 00b8 2BD8     		bhi	.L180
 1410              	.L155:
 638:Drivers/STM32F4xx_HAL_Driver/Src/stm32f4xx_hal_rcc.c ****     {
 1411              		.loc 1 638 0
 1412 00ba 6368     		ldr	r3, [r4, #4]
 1413 00bc 012B     		cmp	r3, #1
 1414 00be 2ED0     		beq	.L181
 647:Drivers/STM32F4xx_HAL_Driver/Src/stm32f4xx_hal_rcc.c ****             (RCC_ClkInitStruct->SYSCLKSource == RCC_SYSCLKSOURCE_PLLRCLK))
 1415              		.loc 1 647 0
 1416 00c0 9A1E     		subs	r2, r3, #2
 1417 00c2 012A     		cmp	r2, #1
 1418 00c4 32D9     		bls	.L182
 660:Drivers/STM32F4xx_HAL_Driver/Src/stm32f4xx_hal_rcc.c ****       {
 1419              		.loc 1 660 0
 1420 00c6 504A     		ldr	r2, .L185+8
 1421 00c8 1268     		ldr	r2, [r2]
 1422 00ca 12F0020F 		tst	r2, #2
 1423 00ce 00F09580 		beq	.L170
 1424              	.L157:
 666:Drivers/STM32F4xx_HAL_Driver/Src/stm32f4xx_hal_rcc.c **** 
 1425              		.loc 1 666 0
 1426 00d2 4D49     		ldr	r1, .L185+8
 1427 00d4 8A68     		ldr	r2, [r1, #8]
 1428 00d6 22F00302 		bic	r2, r2, #3
 1429 00da 1343     		orrs	r3, r3, r2
 1430 00dc 8B60     		str	r3, [r1, #8]
 669:Drivers/STM32F4xx_HAL_Driver/Src/stm32f4xx_hal_rcc.c **** 
 1431              		.loc 1 669 0
 1432 00de FFF7FEFF 		bl	HAL_GetTick
 1433              	.LVL105:
 1434 00e2 0646     		mov	r6, r0
 1435              	.LVL106:
 1436              	.L159:
 671:Drivers/STM32F4xx_HAL_Driver/Src/stm32f4xx_hal_rcc.c ****     {
 1437              		.loc 1 671 0
 1438 00e4 484B     		ldr	r3, .L185+8
ARM GAS  C:\Users\n-is\AppData\Local\Temp\ccbtDXWy.s 			page 44


 1439 00e6 9B68     		ldr	r3, [r3, #8]
 1440 00e8 03F00C03 		and	r3, r3, #12
 1441 00ec 6268     		ldr	r2, [r4, #4]
 1442 00ee B3EB820F 		cmp	r3, r2, lsl #2
 1443 00f2 22D0     		beq	.L154
 673:Drivers/STM32F4xx_HAL_Driver/Src/stm32f4xx_hal_rcc.c ****       {
 1444              		.loc 1 673 0
 1445 00f4 FFF7FEFF 		bl	HAL_GetTick
 1446              	.LVL107:
 1447 00f8 801B     		subs	r0, r0, r6
 1448 00fa 41F28833 		movw	r3, #5000
 1449 00fe 9842     		cmp	r0, r3
 1450 0100 F0D9     		bls	.L159
 675:Drivers/STM32F4xx_HAL_Driver/Src/stm32f4xx_hal_rcc.c ****       }
 1451              		.loc 1 675 0
 1452 0102 0320     		movs	r0, #3
 1453 0104 97E7     		b	.L146
 1454              	.LVL108:
 1455              	.L179:
 628:Drivers/STM32F4xx_HAL_Driver/Src/stm32f4xx_hal_rcc.c ****     MODIFY_REG(RCC->CFGR, RCC_CFGR_HPRE, RCC_ClkInitStruct->AHBCLKDivider);
 1456              		.loc 1 628 0 discriminator 9
 1457 0106 4FF41D71 		mov	r1, #628
 1458 010a 3E48     		ldr	r0, .L185+4
 1459 010c FFF7FEFF 		bl	assert_failed
 1460              	.LVL109:
 1461 0110 C5E7     		b	.L153
 1462              	.L180:
 635:Drivers/STM32F4xx_HAL_Driver/Src/stm32f4xx_hal_rcc.c **** 
 1463              		.loc 1 635 0 discriminator 1
 1464 0112 40F27B21 		movw	r1, #635
 1465 0116 3B48     		ldr	r0, .L185+4
 1466 0118 FFF7FEFF 		bl	assert_failed
 1467              	.LVL110:
 1468 011c CDE7     		b	.L155
 1469              	.L181:
 641:Drivers/STM32F4xx_HAL_Driver/Src/stm32f4xx_hal_rcc.c ****       {
 1470              		.loc 1 641 0
 1471 011e 3A4A     		ldr	r2, .L185+8
 1472 0120 1268     		ldr	r2, [r2]
 1473 0122 12F4003F 		tst	r2, #131072
 1474 0126 D4D1     		bne	.L157
 643:Drivers/STM32F4xx_HAL_Driver/Src/stm32f4xx_hal_rcc.c ****       }
 1475              		.loc 1 643 0
 1476 0128 0120     		movs	r0, #1
 1477 012a 84E7     		b	.L146
 1478              	.L182:
 651:Drivers/STM32F4xx_HAL_Driver/Src/stm32f4xx_hal_rcc.c ****       {
 1479              		.loc 1 651 0
 1480 012c 364A     		ldr	r2, .L185+8
 1481 012e 1268     		ldr	r2, [r2]
 1482 0130 12F0007F 		tst	r2, #33554432
 1483 0134 CDD1     		bne	.L157
 653:Drivers/STM32F4xx_HAL_Driver/Src/stm32f4xx_hal_rcc.c ****       }
 1484              		.loc 1 653 0
 1485 0136 0120     		movs	r0, #1
 1486 0138 7DE7     		b	.L146
 1487              	.L154:
ARM GAS  C:\Users\n-is\AppData\Local\Temp\ccbtDXWy.s 			page 45


 681:Drivers/STM32F4xx_HAL_Driver/Src/stm32f4xx_hal_rcc.c ****   {
 1488              		.loc 1 681 0
 1489 013a 314B     		ldr	r3, .L185
 1490 013c 1B68     		ldr	r3, [r3]
 1491 013e 03F00F03 		and	r3, r3, #15
 1492 0142 AB42     		cmp	r3, r5
 1493 0144 09D9     		bls	.L161
 684:Drivers/STM32F4xx_HAL_Driver/Src/stm32f4xx_hal_rcc.c **** 
 1494              		.loc 1 684 0
 1495 0146 EAB2     		uxtb	r2, r5
 1496 0148 2D4B     		ldr	r3, .L185
 1497 014a 1A70     		strb	r2, [r3]
 688:Drivers/STM32F4xx_HAL_Driver/Src/stm32f4xx_hal_rcc.c ****     {
 1498              		.loc 1 688 0
 1499 014c 1B68     		ldr	r3, [r3]
 1500 014e 03F00F03 		and	r3, r3, #15
 1501 0152 AB42     		cmp	r3, r5
 1502 0154 01D0     		beq	.L161
 690:Drivers/STM32F4xx_HAL_Driver/Src/stm32f4xx_hal_rcc.c ****     }
 1503              		.loc 1 690 0
 1504 0156 0120     		movs	r0, #1
 1505 0158 6DE7     		b	.L146
 1506              	.L161:
 695:Drivers/STM32F4xx_HAL_Driver/Src/stm32f4xx_hal_rcc.c ****   {
 1507              		.loc 1 695 0
 1508 015a 2368     		ldr	r3, [r4]
 1509 015c 13F0040F 		tst	r3, #4
 1510 0160 14D0     		beq	.L162
 697:Drivers/STM32F4xx_HAL_Driver/Src/stm32f4xx_hal_rcc.c ****     MODIFY_REG(RCC->CFGR, RCC_CFGR_PPRE1, RCC_ClkInitStruct->APB1CLKDivider);
 1511              		.loc 1 697 0
 1512 0162 E368     		ldr	r3, [r4, #12]
 1513 0164 5BB1     		cbz	r3, .L163
 697:Drivers/STM32F4xx_HAL_Driver/Src/stm32f4xx_hal_rcc.c ****     MODIFY_REG(RCC->CFGR, RCC_CFGR_PPRE1, RCC_ClkInitStruct->APB1CLKDivider);
 1514              		.loc 1 697 0 is_stmt 0 discriminator 1
 1515 0166 B3F5805F 		cmp	r3, #4096
 1516 016a 08D0     		beq	.L163
 697:Drivers/STM32F4xx_HAL_Driver/Src/stm32f4xx_hal_rcc.c ****     MODIFY_REG(RCC->CFGR, RCC_CFGR_PPRE1, RCC_ClkInitStruct->APB1CLKDivider);
 1517              		.loc 1 697 0 discriminator 2
 1518 016c B3F5A05F 		cmp	r3, #5120
 1519 0170 05D0     		beq	.L163
 697:Drivers/STM32F4xx_HAL_Driver/Src/stm32f4xx_hal_rcc.c ****     MODIFY_REG(RCC->CFGR, RCC_CFGR_PPRE1, RCC_ClkInitStruct->APB1CLKDivider);
 1520              		.loc 1 697 0 discriminator 3
 1521 0172 B3F5C05F 		cmp	r3, #6144
 1522 0176 02D0     		beq	.L163
 697:Drivers/STM32F4xx_HAL_Driver/Src/stm32f4xx_hal_rcc.c ****     MODIFY_REG(RCC->CFGR, RCC_CFGR_PPRE1, RCC_ClkInitStruct->APB1CLKDivider);
 1523              		.loc 1 697 0 discriminator 4
 1524 0178 B3F5E05F 		cmp	r3, #7168
 1525 017c 30D1     		bne	.L183
 1526              	.L163:
 698:Drivers/STM32F4xx_HAL_Driver/Src/stm32f4xx_hal_rcc.c ****   }
 1527              		.loc 1 698 0 is_stmt 1
 1528 017e 224A     		ldr	r2, .L185+8
 1529 0180 9368     		ldr	r3, [r2, #8]
 1530 0182 23F4E053 		bic	r3, r3, #7168
 1531 0186 E168     		ldr	r1, [r4, #12]
 1532 0188 0B43     		orrs	r3, r3, r1
 1533 018a 9360     		str	r3, [r2, #8]
ARM GAS  C:\Users\n-is\AppData\Local\Temp\ccbtDXWy.s 			page 46


 1534              	.L162:
 702:Drivers/STM32F4xx_HAL_Driver/Src/stm32f4xx_hal_rcc.c ****   {
 1535              		.loc 1 702 0
 1536 018c 2368     		ldr	r3, [r4]
 1537 018e 13F0080F 		tst	r3, #8
 1538 0192 15D0     		beq	.L164
 704:Drivers/STM32F4xx_HAL_Driver/Src/stm32f4xx_hal_rcc.c ****     MODIFY_REG(RCC->CFGR, RCC_CFGR_PPRE2, ((RCC_ClkInitStruct->APB2CLKDivider) << 3U));
 1539              		.loc 1 704 0
 1540 0194 2369     		ldr	r3, [r4, #16]
 1541 0196 5BB1     		cbz	r3, .L165
 704:Drivers/STM32F4xx_HAL_Driver/Src/stm32f4xx_hal_rcc.c ****     MODIFY_REG(RCC->CFGR, RCC_CFGR_PPRE2, ((RCC_ClkInitStruct->APB2CLKDivider) << 3U));
 1542              		.loc 1 704 0 is_stmt 0 discriminator 1
 1543 0198 B3F5805F 		cmp	r3, #4096
 1544 019c 08D0     		beq	.L165
 704:Drivers/STM32F4xx_HAL_Driver/Src/stm32f4xx_hal_rcc.c ****     MODIFY_REG(RCC->CFGR, RCC_CFGR_PPRE2, ((RCC_ClkInitStruct->APB2CLKDivider) << 3U));
 1545              		.loc 1 704 0 discriminator 2
 1546 019e B3F5A05F 		cmp	r3, #5120
 1547 01a2 05D0     		beq	.L165
 704:Drivers/STM32F4xx_HAL_Driver/Src/stm32f4xx_hal_rcc.c ****     MODIFY_REG(RCC->CFGR, RCC_CFGR_PPRE2, ((RCC_ClkInitStruct->APB2CLKDivider) << 3U));
 1548              		.loc 1 704 0 discriminator 3
 1549 01a4 B3F5C05F 		cmp	r3, #6144
 1550 01a8 02D0     		beq	.L165
 704:Drivers/STM32F4xx_HAL_Driver/Src/stm32f4xx_hal_rcc.c ****     MODIFY_REG(RCC->CFGR, RCC_CFGR_PPRE2, ((RCC_ClkInitStruct->APB2CLKDivider) << 3U));
 1551              		.loc 1 704 0 discriminator 4
 1552 01aa B3F5E05F 		cmp	r3, #7168
 1553 01ae 1DD1     		bne	.L184
 1554              	.L165:
 705:Drivers/STM32F4xx_HAL_Driver/Src/stm32f4xx_hal_rcc.c ****   }
 1555              		.loc 1 705 0 is_stmt 1
 1556 01b0 154A     		ldr	r2, .L185+8
 1557 01b2 9368     		ldr	r3, [r2, #8]
 1558 01b4 23F46043 		bic	r3, r3, #57344
 1559 01b8 2169     		ldr	r1, [r4, #16]
 1560 01ba 43EAC103 		orr	r3, r3, r1, lsl #3
 1561 01be 9360     		str	r3, [r2, #8]
 1562              	.L164:
 709:Drivers/STM32F4xx_HAL_Driver/Src/stm32f4xx_hal_rcc.c **** 
 1563              		.loc 1 709 0
 1564 01c0 FFF7FEFF 		bl	HAL_RCC_GetSysClockFreq
 1565              	.LVL111:
 1566 01c4 104B     		ldr	r3, .L185+8
 1567 01c6 9B68     		ldr	r3, [r3, #8]
 1568 01c8 C3F30313 		ubfx	r3, r3, #4, #4
 1569 01cc 0F4A     		ldr	r2, .L185+12
 1570 01ce D35C     		ldrb	r3, [r2, r3]	@ zero_extendqisi2
 1571 01d0 D840     		lsrs	r0, r0, r3
 1572 01d2 0F4B     		ldr	r3, .L185+16
 1573 01d4 1860     		str	r0, [r3]
 712:Drivers/STM32F4xx_HAL_Driver/Src/stm32f4xx_hal_rcc.c **** 
 1574              		.loc 1 712 0
 1575 01d6 0020     		movs	r0, #0
 1576 01d8 FFF7FEFF 		bl	HAL_InitTick
 1577              	.LVL112:
 714:Drivers/STM32F4xx_HAL_Driver/Src/stm32f4xx_hal_rcc.c **** }
 1578              		.loc 1 714 0
 1579 01dc 0020     		movs	r0, #0
 1580 01de 2AE7     		b	.L146
ARM GAS  C:\Users\n-is\AppData\Local\Temp\ccbtDXWy.s 			page 47


 1581              	.L183:
 697:Drivers/STM32F4xx_HAL_Driver/Src/stm32f4xx_hal_rcc.c ****     MODIFY_REG(RCC->CFGR, RCC_CFGR_PPRE1, RCC_ClkInitStruct->APB1CLKDivider);
 1582              		.loc 1 697 0 discriminator 5
 1583 01e0 40F2B921 		movw	r1, #697
 1584 01e4 0748     		ldr	r0, .L185+4
 1585 01e6 FFF7FEFF 		bl	assert_failed
 1586              	.LVL113:
 1587 01ea C8E7     		b	.L163
 1588              	.L184:
 704:Drivers/STM32F4xx_HAL_Driver/Src/stm32f4xx_hal_rcc.c ****     MODIFY_REG(RCC->CFGR, RCC_CFGR_PPRE2, ((RCC_ClkInitStruct->APB2CLKDivider) << 3U));
 1589              		.loc 1 704 0 discriminator 5
 1590 01ec 4FF43071 		mov	r1, #704
 1591 01f0 0448     		ldr	r0, .L185+4
 1592 01f2 FFF7FEFF 		bl	assert_failed
 1593              	.LVL114:
 1594 01f6 DBE7     		b	.L165
 1595              	.LVL115:
 1596              	.L166:
 1597              	.LCFI13:
 1598              		.cfi_def_cfa_offset 0
 1599              		.cfi_restore 4
 1600              		.cfi_restore 5
 1601              		.cfi_restore 6
 1602              		.cfi_restore 14
 588:Drivers/STM32F4xx_HAL_Driver/Src/stm32f4xx_hal_rcc.c ****   }
 1603              		.loc 1 588 0
 1604 01f8 0120     		movs	r0, #1
 1605              	.LVL116:
 715:Drivers/STM32F4xx_HAL_Driver/Src/stm32f4xx_hal_rcc.c **** 
 1606              		.loc 1 715 0
 1607 01fa 7047     		bx	lr
 1608              	.LVL117:
 1609              	.L170:
 1610              	.LCFI14:
 1611              		.cfi_def_cfa_offset 16
 1612              		.cfi_offset 4, -16
 1613              		.cfi_offset 5, -12
 1614              		.cfi_offset 6, -8
 1615              		.cfi_offset 14, -4
 662:Drivers/STM32F4xx_HAL_Driver/Src/stm32f4xx_hal_rcc.c ****       }
 1616              		.loc 1 662 0
 1617 01fc 0120     		movs	r0, #1
 1618 01fe 1AE7     		b	.L146
 1619              	.L186:
 1620              		.align	2
 1621              	.L185:
 1622 0200 003C0240 		.word	1073888256
 1623 0204 00000000 		.word	.LC0
 1624 0208 00380240 		.word	1073887232
 1625 020c 00000000 		.word	AHBPrescTable
 1626 0210 00000000 		.word	SystemCoreClock
 1627              		.cfi_endproc
 1628              	.LFE128:
 1630              		.section	.text.HAL_RCC_GetHCLKFreq,"ax",%progbits
 1631              		.align	1
 1632              		.global	HAL_RCC_GetHCLKFreq
 1633              		.syntax unified
ARM GAS  C:\Users\n-is\AppData\Local\Temp\ccbtDXWy.s 			page 48


 1634              		.thumb
 1635              		.thumb_func
 1636              		.fpu fpv4-sp-d16
 1638              	HAL_RCC_GetHCLKFreq:
 1639              	.LFB133:
 921:Drivers/STM32F4xx_HAL_Driver/Src/stm32f4xx_hal_rcc.c **** 
 922:Drivers/STM32F4xx_HAL_Driver/Src/stm32f4xx_hal_rcc.c **** /**
 923:Drivers/STM32F4xx_HAL_Driver/Src/stm32f4xx_hal_rcc.c ****   * @brief  Returns the HCLK frequency
 924:Drivers/STM32F4xx_HAL_Driver/Src/stm32f4xx_hal_rcc.c ****   * @note   Each time HCLK changes, this function must be called to update the
 925:Drivers/STM32F4xx_HAL_Driver/Src/stm32f4xx_hal_rcc.c ****   *         right HCLK value. Otherwise, any configuration based on this function will be incorrect
 926:Drivers/STM32F4xx_HAL_Driver/Src/stm32f4xx_hal_rcc.c ****   *
 927:Drivers/STM32F4xx_HAL_Driver/Src/stm32f4xx_hal_rcc.c ****   * @note   The SystemCoreClock CMSIS variable is used to store System Clock Frequency
 928:Drivers/STM32F4xx_HAL_Driver/Src/stm32f4xx_hal_rcc.c ****   *         and updated within this function
 929:Drivers/STM32F4xx_HAL_Driver/Src/stm32f4xx_hal_rcc.c ****   * @retval HCLK frequency
 930:Drivers/STM32F4xx_HAL_Driver/Src/stm32f4xx_hal_rcc.c ****   */
 931:Drivers/STM32F4xx_HAL_Driver/Src/stm32f4xx_hal_rcc.c **** uint32_t HAL_RCC_GetHCLKFreq(void)
 932:Drivers/STM32F4xx_HAL_Driver/Src/stm32f4xx_hal_rcc.c **** {
 1640              		.loc 1 932 0
 1641              		.cfi_startproc
 1642              		@ args = 0, pretend = 0, frame = 0
 1643              		@ frame_needed = 0, uses_anonymous_args = 0
 1644              		@ link register save eliminated.
 933:Drivers/STM32F4xx_HAL_Driver/Src/stm32f4xx_hal_rcc.c ****   return SystemCoreClock;
 934:Drivers/STM32F4xx_HAL_Driver/Src/stm32f4xx_hal_rcc.c **** }
 1645              		.loc 1 934 0
 1646 0000 014B     		ldr	r3, .L188
 1647 0002 1868     		ldr	r0, [r3]
 1648 0004 7047     		bx	lr
 1649              	.L189:
 1650 0006 00BF     		.align	2
 1651              	.L188:
 1652 0008 00000000 		.word	SystemCoreClock
 1653              		.cfi_endproc
 1654              	.LFE133:
 1656              		.section	.text.HAL_RCC_GetPCLK1Freq,"ax",%progbits
 1657              		.align	1
 1658              		.global	HAL_RCC_GetPCLK1Freq
 1659              		.syntax unified
 1660              		.thumb
 1661              		.thumb_func
 1662              		.fpu fpv4-sp-d16
 1664              	HAL_RCC_GetPCLK1Freq:
 1665              	.LFB134:
 935:Drivers/STM32F4xx_HAL_Driver/Src/stm32f4xx_hal_rcc.c **** 
 936:Drivers/STM32F4xx_HAL_Driver/Src/stm32f4xx_hal_rcc.c **** /**
 937:Drivers/STM32F4xx_HAL_Driver/Src/stm32f4xx_hal_rcc.c ****   * @brief  Returns the PCLK1 frequency
 938:Drivers/STM32F4xx_HAL_Driver/Src/stm32f4xx_hal_rcc.c ****   * @note   Each time PCLK1 changes, this function must be called to update the
 939:Drivers/STM32F4xx_HAL_Driver/Src/stm32f4xx_hal_rcc.c ****   *         right PCLK1 value. Otherwise, any configuration based on this function will be incorrec
 940:Drivers/STM32F4xx_HAL_Driver/Src/stm32f4xx_hal_rcc.c ****   * @retval PCLK1 frequency
 941:Drivers/STM32F4xx_HAL_Driver/Src/stm32f4xx_hal_rcc.c ****   */
 942:Drivers/STM32F4xx_HAL_Driver/Src/stm32f4xx_hal_rcc.c **** uint32_t HAL_RCC_GetPCLK1Freq(void)
 943:Drivers/STM32F4xx_HAL_Driver/Src/stm32f4xx_hal_rcc.c **** {
 1666              		.loc 1 943 0
 1667              		.cfi_startproc
 1668              		@ args = 0, pretend = 0, frame = 0
 1669              		@ frame_needed = 0, uses_anonymous_args = 0
 1670 0000 08B5     		push	{r3, lr}
ARM GAS  C:\Users\n-is\AppData\Local\Temp\ccbtDXWy.s 			page 49


 1671              	.LCFI15:
 1672              		.cfi_def_cfa_offset 8
 1673              		.cfi_offset 3, -8
 1674              		.cfi_offset 14, -4
 944:Drivers/STM32F4xx_HAL_Driver/Src/stm32f4xx_hal_rcc.c ****   /* Get HCLK source and Compute PCLK1 frequency ---------------------------*/
 945:Drivers/STM32F4xx_HAL_Driver/Src/stm32f4xx_hal_rcc.c ****   return (HAL_RCC_GetHCLKFreq() >> APBPrescTable[(RCC->CFGR & RCC_CFGR_PPRE1)>> RCC_CFGR_PPRE1_Pos]
 1675              		.loc 1 945 0
 1676 0002 FFF7FEFF 		bl	HAL_RCC_GetHCLKFreq
 1677              	.LVL118:
 1678 0006 044B     		ldr	r3, .L192
 1679 0008 9B68     		ldr	r3, [r3, #8]
 1680 000a C3F38223 		ubfx	r3, r3, #10, #3
 1681 000e 034A     		ldr	r2, .L192+4
 1682 0010 D35C     		ldrb	r3, [r2, r3]	@ zero_extendqisi2
 946:Drivers/STM32F4xx_HAL_Driver/Src/stm32f4xx_hal_rcc.c **** }
 1683              		.loc 1 946 0
 1684 0012 D840     		lsrs	r0, r0, r3
 1685 0014 08BD     		pop	{r3, pc}
 1686              	.L193:
 1687 0016 00BF     		.align	2
 1688              	.L192:
 1689 0018 00380240 		.word	1073887232
 1690 001c 00000000 		.word	APBPrescTable
 1691              		.cfi_endproc
 1692              	.LFE134:
 1694              		.section	.text.HAL_RCC_GetPCLK2Freq,"ax",%progbits
 1695              		.align	1
 1696              		.global	HAL_RCC_GetPCLK2Freq
 1697              		.syntax unified
 1698              		.thumb
 1699              		.thumb_func
 1700              		.fpu fpv4-sp-d16
 1702              	HAL_RCC_GetPCLK2Freq:
 1703              	.LFB135:
 947:Drivers/STM32F4xx_HAL_Driver/Src/stm32f4xx_hal_rcc.c **** 
 948:Drivers/STM32F4xx_HAL_Driver/Src/stm32f4xx_hal_rcc.c **** /**
 949:Drivers/STM32F4xx_HAL_Driver/Src/stm32f4xx_hal_rcc.c ****   * @brief  Returns the PCLK2 frequency
 950:Drivers/STM32F4xx_HAL_Driver/Src/stm32f4xx_hal_rcc.c ****   * @note   Each time PCLK2 changes, this function must be called to update the
 951:Drivers/STM32F4xx_HAL_Driver/Src/stm32f4xx_hal_rcc.c ****   *         right PCLK2 value. Otherwise, any configuration based on this function will be incorrec
 952:Drivers/STM32F4xx_HAL_Driver/Src/stm32f4xx_hal_rcc.c ****   * @retval PCLK2 frequency
 953:Drivers/STM32F4xx_HAL_Driver/Src/stm32f4xx_hal_rcc.c ****   */
 954:Drivers/STM32F4xx_HAL_Driver/Src/stm32f4xx_hal_rcc.c **** uint32_t HAL_RCC_GetPCLK2Freq(void)
 955:Drivers/STM32F4xx_HAL_Driver/Src/stm32f4xx_hal_rcc.c **** {
 1704              		.loc 1 955 0
 1705              		.cfi_startproc
 1706              		@ args = 0, pretend = 0, frame = 0
 1707              		@ frame_needed = 0, uses_anonymous_args = 0
 1708 0000 08B5     		push	{r3, lr}
 1709              	.LCFI16:
 1710              		.cfi_def_cfa_offset 8
 1711              		.cfi_offset 3, -8
 1712              		.cfi_offset 14, -4
 956:Drivers/STM32F4xx_HAL_Driver/Src/stm32f4xx_hal_rcc.c ****   /* Get HCLK source and Compute PCLK2 frequency ---------------------------*/
 957:Drivers/STM32F4xx_HAL_Driver/Src/stm32f4xx_hal_rcc.c ****   return (HAL_RCC_GetHCLKFreq()>> APBPrescTable[(RCC->CFGR & RCC_CFGR_PPRE2)>> RCC_CFGR_PPRE2_Pos])
 1713              		.loc 1 957 0
 1714 0002 FFF7FEFF 		bl	HAL_RCC_GetHCLKFreq
 1715              	.LVL119:
ARM GAS  C:\Users\n-is\AppData\Local\Temp\ccbtDXWy.s 			page 50


 1716 0006 044B     		ldr	r3, .L196
 1717 0008 9B68     		ldr	r3, [r3, #8]
 1718 000a C3F34233 		ubfx	r3, r3, #13, #3
 1719 000e 034A     		ldr	r2, .L196+4
 1720 0010 D35C     		ldrb	r3, [r2, r3]	@ zero_extendqisi2
 958:Drivers/STM32F4xx_HAL_Driver/Src/stm32f4xx_hal_rcc.c **** }
 1721              		.loc 1 958 0
 1722 0012 D840     		lsrs	r0, r0, r3
 1723 0014 08BD     		pop	{r3, pc}
 1724              	.L197:
 1725 0016 00BF     		.align	2
 1726              	.L196:
 1727 0018 00380240 		.word	1073887232
 1728 001c 00000000 		.word	APBPrescTable
 1729              		.cfi_endproc
 1730              	.LFE135:
 1732              		.section	.text.HAL_RCC_GetOscConfig,"ax",%progbits
 1733              		.align	1
 1734              		.weak	HAL_RCC_GetOscConfig
 1735              		.syntax unified
 1736              		.thumb
 1737              		.thumb_func
 1738              		.fpu fpv4-sp-d16
 1740              	HAL_RCC_GetOscConfig:
 1741              	.LFB136:
 959:Drivers/STM32F4xx_HAL_Driver/Src/stm32f4xx_hal_rcc.c **** 
 960:Drivers/STM32F4xx_HAL_Driver/Src/stm32f4xx_hal_rcc.c **** /**
 961:Drivers/STM32F4xx_HAL_Driver/Src/stm32f4xx_hal_rcc.c ****   * @brief  Configures the RCC_OscInitStruct according to the internal
 962:Drivers/STM32F4xx_HAL_Driver/Src/stm32f4xx_hal_rcc.c ****   * RCC configuration registers.
 963:Drivers/STM32F4xx_HAL_Driver/Src/stm32f4xx_hal_rcc.c ****   * @param  RCC_OscInitStruct pointer to an RCC_OscInitTypeDef structure that
 964:Drivers/STM32F4xx_HAL_Driver/Src/stm32f4xx_hal_rcc.c ****   * will be configured.
 965:Drivers/STM32F4xx_HAL_Driver/Src/stm32f4xx_hal_rcc.c ****   * @retval None
 966:Drivers/STM32F4xx_HAL_Driver/Src/stm32f4xx_hal_rcc.c ****   */
 967:Drivers/STM32F4xx_HAL_Driver/Src/stm32f4xx_hal_rcc.c **** __weak void HAL_RCC_GetOscConfig(RCC_OscInitTypeDef  *RCC_OscInitStruct)
 968:Drivers/STM32F4xx_HAL_Driver/Src/stm32f4xx_hal_rcc.c **** {
 1742              		.loc 1 968 0
 1743              		.cfi_startproc
 1744              		@ args = 0, pretend = 0, frame = 0
 1745              		@ frame_needed = 0, uses_anonymous_args = 0
 1746              		@ link register save eliminated.
 1747              	.LVL120:
 969:Drivers/STM32F4xx_HAL_Driver/Src/stm32f4xx_hal_rcc.c ****   /* Set all possible values for the Oscillator type parameter ---------------*/
 970:Drivers/STM32F4xx_HAL_Driver/Src/stm32f4xx_hal_rcc.c ****   RCC_OscInitStruct->OscillatorType = RCC_OSCILLATORTYPE_HSE | RCC_OSCILLATORTYPE_HSI | RCC_OSCILLA
 1748              		.loc 1 970 0
 1749 0000 0F23     		movs	r3, #15
 1750 0002 0360     		str	r3, [r0]
 971:Drivers/STM32F4xx_HAL_Driver/Src/stm32f4xx_hal_rcc.c **** 
 972:Drivers/STM32F4xx_HAL_Driver/Src/stm32f4xx_hal_rcc.c ****   /* Get the HSE configuration -----------------------------------------------*/
 973:Drivers/STM32F4xx_HAL_Driver/Src/stm32f4xx_hal_rcc.c ****   if((RCC->CR &RCC_CR_HSEBYP) == RCC_CR_HSEBYP)
 1751              		.loc 1 973 0
 1752 0004 304B     		ldr	r3, .L212
 1753 0006 1B68     		ldr	r3, [r3]
 1754 0008 13F4802F 		tst	r3, #262144
 1755 000c 3BD0     		beq	.L199
 974:Drivers/STM32F4xx_HAL_Driver/Src/stm32f4xx_hal_rcc.c ****   {
 975:Drivers/STM32F4xx_HAL_Driver/Src/stm32f4xx_hal_rcc.c ****     RCC_OscInitStruct->HSEState = RCC_HSE_BYPASS;
 1756              		.loc 1 975 0
ARM GAS  C:\Users\n-is\AppData\Local\Temp\ccbtDXWy.s 			page 51


 1757 000e 4FF4A023 		mov	r3, #327680
 1758 0012 4360     		str	r3, [r0, #4]
 1759              	.L200:
 976:Drivers/STM32F4xx_HAL_Driver/Src/stm32f4xx_hal_rcc.c ****   }
 977:Drivers/STM32F4xx_HAL_Driver/Src/stm32f4xx_hal_rcc.c ****   else if((RCC->CR &RCC_CR_HSEON) == RCC_CR_HSEON)
 978:Drivers/STM32F4xx_HAL_Driver/Src/stm32f4xx_hal_rcc.c ****   {
 979:Drivers/STM32F4xx_HAL_Driver/Src/stm32f4xx_hal_rcc.c ****     RCC_OscInitStruct->HSEState = RCC_HSE_ON;
 980:Drivers/STM32F4xx_HAL_Driver/Src/stm32f4xx_hal_rcc.c ****   }
 981:Drivers/STM32F4xx_HAL_Driver/Src/stm32f4xx_hal_rcc.c ****   else
 982:Drivers/STM32F4xx_HAL_Driver/Src/stm32f4xx_hal_rcc.c ****   {
 983:Drivers/STM32F4xx_HAL_Driver/Src/stm32f4xx_hal_rcc.c ****     RCC_OscInitStruct->HSEState = RCC_HSE_OFF;
 984:Drivers/STM32F4xx_HAL_Driver/Src/stm32f4xx_hal_rcc.c ****   }
 985:Drivers/STM32F4xx_HAL_Driver/Src/stm32f4xx_hal_rcc.c **** 
 986:Drivers/STM32F4xx_HAL_Driver/Src/stm32f4xx_hal_rcc.c ****   /* Get the HSI configuration -----------------------------------------------*/
 987:Drivers/STM32F4xx_HAL_Driver/Src/stm32f4xx_hal_rcc.c ****   if((RCC->CR &RCC_CR_HSION) == RCC_CR_HSION)
 1760              		.loc 1 987 0
 1761 0014 2C4B     		ldr	r3, .L212
 1762 0016 1B68     		ldr	r3, [r3]
 1763 0018 13F0010F 		tst	r3, #1
 1764 001c 3FD0     		beq	.L202
 988:Drivers/STM32F4xx_HAL_Driver/Src/stm32f4xx_hal_rcc.c ****   {
 989:Drivers/STM32F4xx_HAL_Driver/Src/stm32f4xx_hal_rcc.c ****     RCC_OscInitStruct->HSIState = RCC_HSI_ON;
 1765              		.loc 1 989 0
 1766 001e 0123     		movs	r3, #1
 1767 0020 C360     		str	r3, [r0, #12]
 1768              	.L203:
 990:Drivers/STM32F4xx_HAL_Driver/Src/stm32f4xx_hal_rcc.c ****   }
 991:Drivers/STM32F4xx_HAL_Driver/Src/stm32f4xx_hal_rcc.c ****   else
 992:Drivers/STM32F4xx_HAL_Driver/Src/stm32f4xx_hal_rcc.c ****   {
 993:Drivers/STM32F4xx_HAL_Driver/Src/stm32f4xx_hal_rcc.c ****     RCC_OscInitStruct->HSIState = RCC_HSI_OFF;
 994:Drivers/STM32F4xx_HAL_Driver/Src/stm32f4xx_hal_rcc.c ****   }
 995:Drivers/STM32F4xx_HAL_Driver/Src/stm32f4xx_hal_rcc.c **** 
 996:Drivers/STM32F4xx_HAL_Driver/Src/stm32f4xx_hal_rcc.c ****   RCC_OscInitStruct->HSICalibrationValue = (uint32_t)((RCC->CR &RCC_CR_HSITRIM) >> RCC_CR_HSITRIM_P
 1769              		.loc 1 996 0
 1770 0022 294A     		ldr	r2, .L212
 1771 0024 1368     		ldr	r3, [r2]
 1772 0026 C3F3C403 		ubfx	r3, r3, #3, #5
 1773 002a 0361     		str	r3, [r0, #16]
 997:Drivers/STM32F4xx_HAL_Driver/Src/stm32f4xx_hal_rcc.c **** 
 998:Drivers/STM32F4xx_HAL_Driver/Src/stm32f4xx_hal_rcc.c ****   /* Get the LSE configuration -----------------------------------------------*/
 999:Drivers/STM32F4xx_HAL_Driver/Src/stm32f4xx_hal_rcc.c ****   if((RCC->BDCR &RCC_BDCR_LSEBYP) == RCC_BDCR_LSEBYP)
 1774              		.loc 1 999 0
 1775 002c 136F     		ldr	r3, [r2, #112]
 1776 002e 13F0040F 		tst	r3, #4
 1777 0032 37D0     		beq	.L204
1000:Drivers/STM32F4xx_HAL_Driver/Src/stm32f4xx_hal_rcc.c ****   {
1001:Drivers/STM32F4xx_HAL_Driver/Src/stm32f4xx_hal_rcc.c ****     RCC_OscInitStruct->LSEState = RCC_LSE_BYPASS;
 1778              		.loc 1 1001 0
 1779 0034 0523     		movs	r3, #5
 1780 0036 8360     		str	r3, [r0, #8]
 1781              	.L205:
1002:Drivers/STM32F4xx_HAL_Driver/Src/stm32f4xx_hal_rcc.c ****   }
1003:Drivers/STM32F4xx_HAL_Driver/Src/stm32f4xx_hal_rcc.c ****   else if((RCC->BDCR &RCC_BDCR_LSEON) == RCC_BDCR_LSEON)
1004:Drivers/STM32F4xx_HAL_Driver/Src/stm32f4xx_hal_rcc.c ****   {
1005:Drivers/STM32F4xx_HAL_Driver/Src/stm32f4xx_hal_rcc.c ****     RCC_OscInitStruct->LSEState = RCC_LSE_ON;
1006:Drivers/STM32F4xx_HAL_Driver/Src/stm32f4xx_hal_rcc.c ****   }
1007:Drivers/STM32F4xx_HAL_Driver/Src/stm32f4xx_hal_rcc.c ****   else
ARM GAS  C:\Users\n-is\AppData\Local\Temp\ccbtDXWy.s 			page 52


1008:Drivers/STM32F4xx_HAL_Driver/Src/stm32f4xx_hal_rcc.c ****   {
1009:Drivers/STM32F4xx_HAL_Driver/Src/stm32f4xx_hal_rcc.c ****     RCC_OscInitStruct->LSEState = RCC_LSE_OFF;
1010:Drivers/STM32F4xx_HAL_Driver/Src/stm32f4xx_hal_rcc.c ****   }
1011:Drivers/STM32F4xx_HAL_Driver/Src/stm32f4xx_hal_rcc.c **** 
1012:Drivers/STM32F4xx_HAL_Driver/Src/stm32f4xx_hal_rcc.c ****   /* Get the LSI configuration -----------------------------------------------*/
1013:Drivers/STM32F4xx_HAL_Driver/Src/stm32f4xx_hal_rcc.c ****   if((RCC->CSR &RCC_CSR_LSION) == RCC_CSR_LSION)
 1782              		.loc 1 1013 0
 1783 0038 234B     		ldr	r3, .L212
 1784 003a 5B6F     		ldr	r3, [r3, #116]
 1785 003c 13F0010F 		tst	r3, #1
 1786 0040 3BD0     		beq	.L207
1014:Drivers/STM32F4xx_HAL_Driver/Src/stm32f4xx_hal_rcc.c ****   {
1015:Drivers/STM32F4xx_HAL_Driver/Src/stm32f4xx_hal_rcc.c ****     RCC_OscInitStruct->LSIState = RCC_LSI_ON;
 1787              		.loc 1 1015 0
 1788 0042 0123     		movs	r3, #1
 1789 0044 4361     		str	r3, [r0, #20]
 1790              	.L208:
1016:Drivers/STM32F4xx_HAL_Driver/Src/stm32f4xx_hal_rcc.c ****   }
1017:Drivers/STM32F4xx_HAL_Driver/Src/stm32f4xx_hal_rcc.c ****   else
1018:Drivers/STM32F4xx_HAL_Driver/Src/stm32f4xx_hal_rcc.c ****   {
1019:Drivers/STM32F4xx_HAL_Driver/Src/stm32f4xx_hal_rcc.c ****     RCC_OscInitStruct->LSIState = RCC_LSI_OFF;
1020:Drivers/STM32F4xx_HAL_Driver/Src/stm32f4xx_hal_rcc.c ****   }
1021:Drivers/STM32F4xx_HAL_Driver/Src/stm32f4xx_hal_rcc.c **** 
1022:Drivers/STM32F4xx_HAL_Driver/Src/stm32f4xx_hal_rcc.c ****   /* Get the PLL configuration -----------------------------------------------*/
1023:Drivers/STM32F4xx_HAL_Driver/Src/stm32f4xx_hal_rcc.c ****   if((RCC->CR &RCC_CR_PLLON) == RCC_CR_PLLON)
 1791              		.loc 1 1023 0
 1792 0046 204B     		ldr	r3, .L212
 1793 0048 1B68     		ldr	r3, [r3]
 1794 004a 13F0807F 		tst	r3, #16777216
 1795 004e 37D1     		bne	.L211
1024:Drivers/STM32F4xx_HAL_Driver/Src/stm32f4xx_hal_rcc.c ****   {
1025:Drivers/STM32F4xx_HAL_Driver/Src/stm32f4xx_hal_rcc.c ****     RCC_OscInitStruct->PLL.PLLState = RCC_PLL_ON;
1026:Drivers/STM32F4xx_HAL_Driver/Src/stm32f4xx_hal_rcc.c ****   }
1027:Drivers/STM32F4xx_HAL_Driver/Src/stm32f4xx_hal_rcc.c ****   else
1028:Drivers/STM32F4xx_HAL_Driver/Src/stm32f4xx_hal_rcc.c ****   {
1029:Drivers/STM32F4xx_HAL_Driver/Src/stm32f4xx_hal_rcc.c ****     RCC_OscInitStruct->PLL.PLLState = RCC_PLL_OFF;
 1796              		.loc 1 1029 0
 1797 0050 0123     		movs	r3, #1
 1798 0052 8361     		str	r3, [r0, #24]
 1799              	.L210:
1030:Drivers/STM32F4xx_HAL_Driver/Src/stm32f4xx_hal_rcc.c ****   }
1031:Drivers/STM32F4xx_HAL_Driver/Src/stm32f4xx_hal_rcc.c ****   RCC_OscInitStruct->PLL.PLLSource = (uint32_t)(RCC->PLLCFGR & RCC_PLLCFGR_PLLSRC);
 1800              		.loc 1 1031 0
 1801 0054 1C4A     		ldr	r2, .L212
 1802 0056 5368     		ldr	r3, [r2, #4]
 1803 0058 03F48003 		and	r3, r3, #4194304
 1804 005c C361     		str	r3, [r0, #28]
1032:Drivers/STM32F4xx_HAL_Driver/Src/stm32f4xx_hal_rcc.c ****   RCC_OscInitStruct->PLL.PLLM = (uint32_t)(RCC->PLLCFGR & RCC_PLLCFGR_PLLM);
 1805              		.loc 1 1032 0
 1806 005e 5368     		ldr	r3, [r2, #4]
 1807 0060 03F03F03 		and	r3, r3, #63
 1808 0064 0362     		str	r3, [r0, #32]
1033:Drivers/STM32F4xx_HAL_Driver/Src/stm32f4xx_hal_rcc.c ****   RCC_OscInitStruct->PLL.PLLN = (uint32_t)((RCC->PLLCFGR & RCC_PLLCFGR_PLLN) >> RCC_PLLCFGR_PLLN_Po
 1809              		.loc 1 1033 0
 1810 0066 5368     		ldr	r3, [r2, #4]
 1811 0068 C3F38813 		ubfx	r3, r3, #6, #9
 1812 006c 4362     		str	r3, [r0, #36]
ARM GAS  C:\Users\n-is\AppData\Local\Temp\ccbtDXWy.s 			page 53


1034:Drivers/STM32F4xx_HAL_Driver/Src/stm32f4xx_hal_rcc.c ****   RCC_OscInitStruct->PLL.PLLP = (uint32_t)((((RCC->PLLCFGR & RCC_PLLCFGR_PLLP) + RCC_PLLCFGR_PLLP_0
 1813              		.loc 1 1034 0
 1814 006e 5368     		ldr	r3, [r2, #4]
 1815 0070 03F44033 		and	r3, r3, #196608
 1816 0074 03F58033 		add	r3, r3, #65536
 1817 0078 DB0B     		lsrs	r3, r3, #15
 1818 007a 8362     		str	r3, [r0, #40]
1035:Drivers/STM32F4xx_HAL_Driver/Src/stm32f4xx_hal_rcc.c ****   RCC_OscInitStruct->PLL.PLLQ = (uint32_t)((RCC->PLLCFGR & RCC_PLLCFGR_PLLQ) >> RCC_PLLCFGR_PLLQ_Po
 1819              		.loc 1 1035 0
 1820 007c 5368     		ldr	r3, [r2, #4]
 1821 007e C3F30363 		ubfx	r3, r3, #24, #4
 1822 0082 C362     		str	r3, [r0, #44]
1036:Drivers/STM32F4xx_HAL_Driver/Src/stm32f4xx_hal_rcc.c **** }
 1823              		.loc 1 1036 0
 1824 0084 7047     		bx	lr
 1825              	.L199:
 977:Drivers/STM32F4xx_HAL_Driver/Src/stm32f4xx_hal_rcc.c ****   {
 1826              		.loc 1 977 0
 1827 0086 104B     		ldr	r3, .L212
 1828 0088 1B68     		ldr	r3, [r3]
 1829 008a 13F4803F 		tst	r3, #65536
 1830 008e 03D0     		beq	.L201
 979:Drivers/STM32F4xx_HAL_Driver/Src/stm32f4xx_hal_rcc.c ****   }
 1831              		.loc 1 979 0
 1832 0090 4FF48033 		mov	r3, #65536
 1833 0094 4360     		str	r3, [r0, #4]
 1834 0096 BDE7     		b	.L200
 1835              	.L201:
 983:Drivers/STM32F4xx_HAL_Driver/Src/stm32f4xx_hal_rcc.c ****   }
 1836              		.loc 1 983 0
 1837 0098 0023     		movs	r3, #0
 1838 009a 4360     		str	r3, [r0, #4]
 1839 009c BAE7     		b	.L200
 1840              	.L202:
 993:Drivers/STM32F4xx_HAL_Driver/Src/stm32f4xx_hal_rcc.c ****   }
 1841              		.loc 1 993 0
 1842 009e 0023     		movs	r3, #0
 1843 00a0 C360     		str	r3, [r0, #12]
 1844 00a2 BEE7     		b	.L203
 1845              	.L204:
1003:Drivers/STM32F4xx_HAL_Driver/Src/stm32f4xx_hal_rcc.c ****   {
 1846              		.loc 1 1003 0
 1847 00a4 084B     		ldr	r3, .L212
 1848 00a6 1B6F     		ldr	r3, [r3, #112]
 1849 00a8 13F0010F 		tst	r3, #1
 1850 00ac 02D0     		beq	.L206
1005:Drivers/STM32F4xx_HAL_Driver/Src/stm32f4xx_hal_rcc.c ****   }
 1851              		.loc 1 1005 0
 1852 00ae 0123     		movs	r3, #1
 1853 00b0 8360     		str	r3, [r0, #8]
 1854 00b2 C1E7     		b	.L205
 1855              	.L206:
1009:Drivers/STM32F4xx_HAL_Driver/Src/stm32f4xx_hal_rcc.c ****   }
 1856              		.loc 1 1009 0
 1857 00b4 0023     		movs	r3, #0
 1858 00b6 8360     		str	r3, [r0, #8]
 1859 00b8 BEE7     		b	.L205
ARM GAS  C:\Users\n-is\AppData\Local\Temp\ccbtDXWy.s 			page 54


 1860              	.L207:
1019:Drivers/STM32F4xx_HAL_Driver/Src/stm32f4xx_hal_rcc.c ****   }
 1861              		.loc 1 1019 0
 1862 00ba 0023     		movs	r3, #0
 1863 00bc 4361     		str	r3, [r0, #20]
 1864 00be C2E7     		b	.L208
 1865              	.L211:
1025:Drivers/STM32F4xx_HAL_Driver/Src/stm32f4xx_hal_rcc.c ****   }
 1866              		.loc 1 1025 0
 1867 00c0 0223     		movs	r3, #2
 1868 00c2 8361     		str	r3, [r0, #24]
 1869 00c4 C6E7     		b	.L210
 1870              	.L213:
 1871 00c6 00BF     		.align	2
 1872              	.L212:
 1873 00c8 00380240 		.word	1073887232
 1874              		.cfi_endproc
 1875              	.LFE136:
 1877              		.section	.text.HAL_RCC_GetClockConfig,"ax",%progbits
 1878              		.align	1
 1879              		.global	HAL_RCC_GetClockConfig
 1880              		.syntax unified
 1881              		.thumb
 1882              		.thumb_func
 1883              		.fpu fpv4-sp-d16
 1885              	HAL_RCC_GetClockConfig:
 1886              	.LFB137:
1037:Drivers/STM32F4xx_HAL_Driver/Src/stm32f4xx_hal_rcc.c **** 
1038:Drivers/STM32F4xx_HAL_Driver/Src/stm32f4xx_hal_rcc.c **** /**
1039:Drivers/STM32F4xx_HAL_Driver/Src/stm32f4xx_hal_rcc.c ****   * @brief  Configures the RCC_ClkInitStruct according to the internal
1040:Drivers/STM32F4xx_HAL_Driver/Src/stm32f4xx_hal_rcc.c ****   * RCC configuration registers.
1041:Drivers/STM32F4xx_HAL_Driver/Src/stm32f4xx_hal_rcc.c ****   * @param  RCC_ClkInitStruct pointer to an RCC_ClkInitTypeDef structure that
1042:Drivers/STM32F4xx_HAL_Driver/Src/stm32f4xx_hal_rcc.c ****   * will be configured.
1043:Drivers/STM32F4xx_HAL_Driver/Src/stm32f4xx_hal_rcc.c ****   * @param  pFLatency Pointer on the Flash Latency.
1044:Drivers/STM32F4xx_HAL_Driver/Src/stm32f4xx_hal_rcc.c ****   * @retval None
1045:Drivers/STM32F4xx_HAL_Driver/Src/stm32f4xx_hal_rcc.c ****   */
1046:Drivers/STM32F4xx_HAL_Driver/Src/stm32f4xx_hal_rcc.c **** void HAL_RCC_GetClockConfig(RCC_ClkInitTypeDef  *RCC_ClkInitStruct, uint32_t *pFLatency)
1047:Drivers/STM32F4xx_HAL_Driver/Src/stm32f4xx_hal_rcc.c **** {
 1887              		.loc 1 1047 0
 1888              		.cfi_startproc
 1889              		@ args = 0, pretend = 0, frame = 0
 1890              		@ frame_needed = 0, uses_anonymous_args = 0
 1891              		@ link register save eliminated.
 1892              	.LVL121:
1048:Drivers/STM32F4xx_HAL_Driver/Src/stm32f4xx_hal_rcc.c ****   /* Set all possible values for the Clock type parameter --------------------*/
1049:Drivers/STM32F4xx_HAL_Driver/Src/stm32f4xx_hal_rcc.c ****   RCC_ClkInitStruct->ClockType = RCC_CLOCKTYPE_SYSCLK | RCC_CLOCKTYPE_HCLK | RCC_CLOCKTYPE_PCLK1 | 
 1893              		.loc 1 1049 0
 1894 0000 0F23     		movs	r3, #15
 1895 0002 0360     		str	r3, [r0]
1050:Drivers/STM32F4xx_HAL_Driver/Src/stm32f4xx_hal_rcc.c **** 
1051:Drivers/STM32F4xx_HAL_Driver/Src/stm32f4xx_hal_rcc.c ****   /* Get the SYSCLK configuration --------------------------------------------*/
1052:Drivers/STM32F4xx_HAL_Driver/Src/stm32f4xx_hal_rcc.c ****   RCC_ClkInitStruct->SYSCLKSource = (uint32_t)(RCC->CFGR & RCC_CFGR_SW);
 1896              		.loc 1 1052 0
 1897 0004 0B4B     		ldr	r3, .L215
 1898 0006 9A68     		ldr	r2, [r3, #8]
 1899 0008 02F00302 		and	r2, r2, #3
 1900 000c 4260     		str	r2, [r0, #4]
ARM GAS  C:\Users\n-is\AppData\Local\Temp\ccbtDXWy.s 			page 55


1053:Drivers/STM32F4xx_HAL_Driver/Src/stm32f4xx_hal_rcc.c **** 
1054:Drivers/STM32F4xx_HAL_Driver/Src/stm32f4xx_hal_rcc.c ****   /* Get the HCLK configuration ----------------------------------------------*/
1055:Drivers/STM32F4xx_HAL_Driver/Src/stm32f4xx_hal_rcc.c ****   RCC_ClkInitStruct->AHBCLKDivider = (uint32_t)(RCC->CFGR & RCC_CFGR_HPRE);
 1901              		.loc 1 1055 0
 1902 000e 9A68     		ldr	r2, [r3, #8]
 1903 0010 02F0F002 		and	r2, r2, #240
 1904 0014 8260     		str	r2, [r0, #8]
1056:Drivers/STM32F4xx_HAL_Driver/Src/stm32f4xx_hal_rcc.c **** 
1057:Drivers/STM32F4xx_HAL_Driver/Src/stm32f4xx_hal_rcc.c ****   /* Get the APB1 configuration ----------------------------------------------*/
1058:Drivers/STM32F4xx_HAL_Driver/Src/stm32f4xx_hal_rcc.c ****   RCC_ClkInitStruct->APB1CLKDivider = (uint32_t)(RCC->CFGR & RCC_CFGR_PPRE1);
 1905              		.loc 1 1058 0
 1906 0016 9A68     		ldr	r2, [r3, #8]
 1907 0018 02F4E052 		and	r2, r2, #7168
 1908 001c C260     		str	r2, [r0, #12]
1059:Drivers/STM32F4xx_HAL_Driver/Src/stm32f4xx_hal_rcc.c **** 
1060:Drivers/STM32F4xx_HAL_Driver/Src/stm32f4xx_hal_rcc.c ****   /* Get the APB2 configuration ----------------------------------------------*/
1061:Drivers/STM32F4xx_HAL_Driver/Src/stm32f4xx_hal_rcc.c ****   RCC_ClkInitStruct->APB2CLKDivider = (uint32_t)((RCC->CFGR & RCC_CFGR_PPRE2) >> 3U);
 1909              		.loc 1 1061 0
 1910 001e 9B68     		ldr	r3, [r3, #8]
 1911 0020 DB08     		lsrs	r3, r3, #3
 1912 0022 03F4E053 		and	r3, r3, #7168
 1913 0026 0361     		str	r3, [r0, #16]
1062:Drivers/STM32F4xx_HAL_Driver/Src/stm32f4xx_hal_rcc.c **** 
1063:Drivers/STM32F4xx_HAL_Driver/Src/stm32f4xx_hal_rcc.c ****   /* Get the Flash Wait State (Latency) configuration ------------------------*/
1064:Drivers/STM32F4xx_HAL_Driver/Src/stm32f4xx_hal_rcc.c ****   *pFLatency = (uint32_t)(FLASH->ACR & FLASH_ACR_LATENCY);
 1914              		.loc 1 1064 0
 1915 0028 034B     		ldr	r3, .L215+4
 1916 002a 1B68     		ldr	r3, [r3]
 1917 002c 03F00F03 		and	r3, r3, #15
 1918 0030 0B60     		str	r3, [r1]
1065:Drivers/STM32F4xx_HAL_Driver/Src/stm32f4xx_hal_rcc.c **** }
 1919              		.loc 1 1065 0
 1920 0032 7047     		bx	lr
 1921              	.L216:
 1922              		.align	2
 1923              	.L215:
 1924 0034 00380240 		.word	1073887232
 1925 0038 003C0240 		.word	1073888256
 1926              		.cfi_endproc
 1927              	.LFE137:
 1929              		.section	.text.HAL_RCC_CSSCallback,"ax",%progbits
 1930              		.align	1
 1931              		.weak	HAL_RCC_CSSCallback
 1932              		.syntax unified
 1933              		.thumb
 1934              		.thumb_func
 1935              		.fpu fpv4-sp-d16
 1937              	HAL_RCC_CSSCallback:
 1938              	.LFB139:
1066:Drivers/STM32F4xx_HAL_Driver/Src/stm32f4xx_hal_rcc.c **** 
1067:Drivers/STM32F4xx_HAL_Driver/Src/stm32f4xx_hal_rcc.c **** /**
1068:Drivers/STM32F4xx_HAL_Driver/Src/stm32f4xx_hal_rcc.c ****   * @brief This function handles the RCC CSS interrupt request.
1069:Drivers/STM32F4xx_HAL_Driver/Src/stm32f4xx_hal_rcc.c ****   * @note This API should be called under the NMI_Handler().
1070:Drivers/STM32F4xx_HAL_Driver/Src/stm32f4xx_hal_rcc.c ****   * @retval None
1071:Drivers/STM32F4xx_HAL_Driver/Src/stm32f4xx_hal_rcc.c ****   */
1072:Drivers/STM32F4xx_HAL_Driver/Src/stm32f4xx_hal_rcc.c **** void HAL_RCC_NMI_IRQHandler(void)
1073:Drivers/STM32F4xx_HAL_Driver/Src/stm32f4xx_hal_rcc.c **** {
ARM GAS  C:\Users\n-is\AppData\Local\Temp\ccbtDXWy.s 			page 56


1074:Drivers/STM32F4xx_HAL_Driver/Src/stm32f4xx_hal_rcc.c ****   /* Check RCC CSSF flag  */
1075:Drivers/STM32F4xx_HAL_Driver/Src/stm32f4xx_hal_rcc.c ****   if(__HAL_RCC_GET_IT(RCC_IT_CSS))
1076:Drivers/STM32F4xx_HAL_Driver/Src/stm32f4xx_hal_rcc.c ****   {
1077:Drivers/STM32F4xx_HAL_Driver/Src/stm32f4xx_hal_rcc.c ****     /* RCC Clock Security System interrupt user callback */
1078:Drivers/STM32F4xx_HAL_Driver/Src/stm32f4xx_hal_rcc.c ****     HAL_RCC_CSSCallback();
1079:Drivers/STM32F4xx_HAL_Driver/Src/stm32f4xx_hal_rcc.c **** 
1080:Drivers/STM32F4xx_HAL_Driver/Src/stm32f4xx_hal_rcc.c ****     /* Clear RCC CSS pending bit */
1081:Drivers/STM32F4xx_HAL_Driver/Src/stm32f4xx_hal_rcc.c ****     __HAL_RCC_CLEAR_IT(RCC_IT_CSS);
1082:Drivers/STM32F4xx_HAL_Driver/Src/stm32f4xx_hal_rcc.c ****   }
1083:Drivers/STM32F4xx_HAL_Driver/Src/stm32f4xx_hal_rcc.c **** }
1084:Drivers/STM32F4xx_HAL_Driver/Src/stm32f4xx_hal_rcc.c **** 
1085:Drivers/STM32F4xx_HAL_Driver/Src/stm32f4xx_hal_rcc.c **** /**
1086:Drivers/STM32F4xx_HAL_Driver/Src/stm32f4xx_hal_rcc.c ****   * @brief  RCC Clock Security System interrupt callback
1087:Drivers/STM32F4xx_HAL_Driver/Src/stm32f4xx_hal_rcc.c ****   * @retval None
1088:Drivers/STM32F4xx_HAL_Driver/Src/stm32f4xx_hal_rcc.c ****   */
1089:Drivers/STM32F4xx_HAL_Driver/Src/stm32f4xx_hal_rcc.c **** __weak void HAL_RCC_CSSCallback(void)
1090:Drivers/STM32F4xx_HAL_Driver/Src/stm32f4xx_hal_rcc.c **** {
 1939              		.loc 1 1090 0
 1940              		.cfi_startproc
 1941              		@ args = 0, pretend = 0, frame = 0
 1942              		@ frame_needed = 0, uses_anonymous_args = 0
 1943              		@ link register save eliminated.
1091:Drivers/STM32F4xx_HAL_Driver/Src/stm32f4xx_hal_rcc.c ****   /* NOTE : This function Should not be modified, when the callback is needed,
1092:Drivers/STM32F4xx_HAL_Driver/Src/stm32f4xx_hal_rcc.c ****             the HAL_RCC_CSSCallback could be implemented in the user file
1093:Drivers/STM32F4xx_HAL_Driver/Src/stm32f4xx_hal_rcc.c ****    */
1094:Drivers/STM32F4xx_HAL_Driver/Src/stm32f4xx_hal_rcc.c **** }
 1944              		.loc 1 1094 0
 1945 0000 7047     		bx	lr
 1946              		.cfi_endproc
 1947              	.LFE139:
 1949              		.section	.text.HAL_RCC_NMI_IRQHandler,"ax",%progbits
 1950              		.align	1
 1951              		.global	HAL_RCC_NMI_IRQHandler
 1952              		.syntax unified
 1953              		.thumb
 1954              		.thumb_func
 1955              		.fpu fpv4-sp-d16
 1957              	HAL_RCC_NMI_IRQHandler:
 1958              	.LFB138:
1073:Drivers/STM32F4xx_HAL_Driver/Src/stm32f4xx_hal_rcc.c ****   /* Check RCC CSSF flag  */
 1959              		.loc 1 1073 0
 1960              		.cfi_startproc
 1961              		@ args = 0, pretend = 0, frame = 0
 1962              		@ frame_needed = 0, uses_anonymous_args = 0
 1963 0000 08B5     		push	{r3, lr}
 1964              	.LCFI17:
 1965              		.cfi_def_cfa_offset 8
 1966              		.cfi_offset 3, -8
 1967              		.cfi_offset 14, -4
1075:Drivers/STM32F4xx_HAL_Driver/Src/stm32f4xx_hal_rcc.c ****   {
 1968              		.loc 1 1075 0
 1969 0002 064B     		ldr	r3, .L222
 1970 0004 DB68     		ldr	r3, [r3, #12]
 1971 0006 13F0800F 		tst	r3, #128
 1972 000a 00D1     		bne	.L221
 1973              	.L218:
1083:Drivers/STM32F4xx_HAL_Driver/Src/stm32f4xx_hal_rcc.c **** 
ARM GAS  C:\Users\n-is\AppData\Local\Temp\ccbtDXWy.s 			page 57


 1974              		.loc 1 1083 0
 1975 000c 08BD     		pop	{r3, pc}
 1976              	.L221:
1078:Drivers/STM32F4xx_HAL_Driver/Src/stm32f4xx_hal_rcc.c **** 
 1977              		.loc 1 1078 0
 1978 000e FFF7FEFF 		bl	HAL_RCC_CSSCallback
 1979              	.LVL122:
1081:Drivers/STM32F4xx_HAL_Driver/Src/stm32f4xx_hal_rcc.c ****   }
 1980              		.loc 1 1081 0
 1981 0012 034B     		ldr	r3, .L222+4
 1982 0014 8022     		movs	r2, #128
 1983 0016 1A70     		strb	r2, [r3]
1083:Drivers/STM32F4xx_HAL_Driver/Src/stm32f4xx_hal_rcc.c **** 
 1984              		.loc 1 1083 0
 1985 0018 F8E7     		b	.L218
 1986              	.L223:
 1987 001a 00BF     		.align	2
 1988              	.L222:
 1989 001c 00380240 		.word	1073887232
 1990 0020 0E380240 		.word	1073887246
 1991              		.cfi_endproc
 1992              	.LFE138:
 1994              		.section	.rodata.HAL_RCC_OscConfig.str1.4,"aMS",%progbits,1
 1995              		.align	2
 1996              	.LC0:
 1997 0000 44726976 		.ascii	"Drivers/STM32F4xx_HAL_Driver/Src/stm32f4xx_hal_rcc."
 1997      6572732F 
 1997      53544D33 
 1997      32463478 
 1997      785F4841 
 1998 0033 6300     		.ascii	"c\000"
 1999              		.text
 2000              	.Letext0:
 2001              		.file 2 "c:\\program files (x86)\\gnu tools arm embedded\\7 2018-q2-update\\arm-none-eabi\\include
 2002              		.file 3 "c:\\program files (x86)\\gnu tools arm embedded\\7 2018-q2-update\\arm-none-eabi\\include
 2003              		.file 4 "Drivers/CMSIS/Include/core_cm4.h"
 2004              		.file 5 "Drivers/CMSIS/Device/ST/STM32F4xx/Include/system_stm32f4xx.h"
 2005              		.file 6 "Drivers/CMSIS/Device/ST/STM32F4xx/Include/stm32f407xx.h"
 2006              		.file 7 "Drivers/CMSIS/Device/ST/STM32F4xx/Include/stm32f4xx.h"
 2007              		.file 8 "c:\\program files (x86)\\gnu tools arm embedded\\7 2018-q2-update\\arm-none-eabi\\include
 2008              		.file 9 "c:\\program files (x86)\\gnu tools arm embedded\\7 2018-q2-update\\arm-none-eabi\\include
 2009              		.file 10 "c:\\program files (x86)\\gnu tools arm embedded\\7 2018-q2-update\\lib\\gcc\\arm-none-ea
 2010              		.file 11 "c:\\program files (x86)\\gnu tools arm embedded\\7 2018-q2-update\\arm-none-eabi\\includ
 2011              		.file 12 "Drivers/STM32F4xx_HAL_Driver/Inc/stm32f4xx_hal_def.h"
 2012              		.file 13 "Drivers/STM32F4xx_HAL_Driver/Inc/stm32f4xx_hal_rcc_ex.h"
 2013              		.file 14 "Drivers/STM32F4xx_HAL_Driver/Inc/stm32f4xx_hal_rcc.h"
 2014              		.file 15 "Drivers/STM32F4xx_HAL_Driver/Inc/stm32f4xx_hal_gpio.h"
 2015              		.file 16 "Core/Inc/stm32f4xx_hal_conf.h"
 2016              		.file 17 "Drivers/STM32F4xx_HAL_Driver/Inc/stm32f4xx_hal.h"
ARM GAS  C:\Users\n-is\AppData\Local\Temp\ccbtDXWy.s 			page 58

