ARM GAS  C:\Users\n-is\AppData\Local\Temp\cczOBJcu.s 			page 1


   1              		.cpu cortex-m4
   2              		.eabi_attribute 27, 1
   3              		.eabi_attribute 28, 1
   4              		.eabi_attribute 20, 1
   5              		.eabi_attribute 21, 1
   6              		.eabi_attribute 23, 3
   7              		.eabi_attribute 24, 1
   8              		.eabi_attribute 25, 1
   9              		.eabi_attribute 26, 1
  10              		.eabi_attribute 30, 1
  11              		.eabi_attribute 34, 1
  12              		.eabi_attribute 18, 4
  13              		.file	"stm32f4xx_hal_gpio.c"
  14              		.text
  15              	.Ltext0:
  16              		.cfi_sections	.debug_frame
  17              		.section	.text.HAL_GPIO_Init,"ax",%progbits
  18              		.align	1
  19              		.global	HAL_GPIO_Init
  20              		.syntax unified
  21              		.thumb
  22              		.thumb_func
  23              		.fpu fpv4-sp-d16
  25              	HAL_GPIO_Init:
  26              	.LFB126:
  27              		.file 1 "Drivers/STM32F4xx_HAL_Driver/Src/stm32f4xx_hal_gpio.c"
   1:Drivers/STM32F4xx_HAL_Driver/Src/stm32f4xx_hal_gpio.c **** /**
   2:Drivers/STM32F4xx_HAL_Driver/Src/stm32f4xx_hal_gpio.c ****   ******************************************************************************
   3:Drivers/STM32F4xx_HAL_Driver/Src/stm32f4xx_hal_gpio.c ****   * @file    stm32f4xx_hal_gpio.c
   4:Drivers/STM32F4xx_HAL_Driver/Src/stm32f4xx_hal_gpio.c ****   * @author  MCD Application Team
   5:Drivers/STM32F4xx_HAL_Driver/Src/stm32f4xx_hal_gpio.c ****   * @brief   GPIO HAL module driver.
   6:Drivers/STM32F4xx_HAL_Driver/Src/stm32f4xx_hal_gpio.c ****   *          This file provides firmware functions to manage the following 
   7:Drivers/STM32F4xx_HAL_Driver/Src/stm32f4xx_hal_gpio.c ****   *          functionalities of the General Purpose Input/Output (GPIO) peripheral:
   8:Drivers/STM32F4xx_HAL_Driver/Src/stm32f4xx_hal_gpio.c ****   *           + Initialization and de-initialization functions
   9:Drivers/STM32F4xx_HAL_Driver/Src/stm32f4xx_hal_gpio.c ****   *           + IO operation functions
  10:Drivers/STM32F4xx_HAL_Driver/Src/stm32f4xx_hal_gpio.c ****   *
  11:Drivers/STM32F4xx_HAL_Driver/Src/stm32f4xx_hal_gpio.c ****   @verbatim
  12:Drivers/STM32F4xx_HAL_Driver/Src/stm32f4xx_hal_gpio.c ****   ==============================================================================
  13:Drivers/STM32F4xx_HAL_Driver/Src/stm32f4xx_hal_gpio.c ****                     ##### GPIO Peripheral features #####
  14:Drivers/STM32F4xx_HAL_Driver/Src/stm32f4xx_hal_gpio.c ****   ==============================================================================
  15:Drivers/STM32F4xx_HAL_Driver/Src/stm32f4xx_hal_gpio.c ****   [..] 
  16:Drivers/STM32F4xx_HAL_Driver/Src/stm32f4xx_hal_gpio.c ****   Subject to the specific hardware characteristics of each I/O port listed in the datasheet, each
  17:Drivers/STM32F4xx_HAL_Driver/Src/stm32f4xx_hal_gpio.c ****   port bit of the General Purpose IO (GPIO) Ports, can be individually configured by software
  18:Drivers/STM32F4xx_HAL_Driver/Src/stm32f4xx_hal_gpio.c ****   in several modes:
  19:Drivers/STM32F4xx_HAL_Driver/Src/stm32f4xx_hal_gpio.c ****   (+) Input mode 
  20:Drivers/STM32F4xx_HAL_Driver/Src/stm32f4xx_hal_gpio.c ****   (+) Analog mode
  21:Drivers/STM32F4xx_HAL_Driver/Src/stm32f4xx_hal_gpio.c ****   (+) Output mode
  22:Drivers/STM32F4xx_HAL_Driver/Src/stm32f4xx_hal_gpio.c ****   (+) Alternate function mode
  23:Drivers/STM32F4xx_HAL_Driver/Src/stm32f4xx_hal_gpio.c ****   (+) External interrupt/event lines
  24:Drivers/STM32F4xx_HAL_Driver/Src/stm32f4xx_hal_gpio.c **** 
  25:Drivers/STM32F4xx_HAL_Driver/Src/stm32f4xx_hal_gpio.c ****   [..]  
  26:Drivers/STM32F4xx_HAL_Driver/Src/stm32f4xx_hal_gpio.c ****   During and just after reset, the alternate functions and external interrupt  
  27:Drivers/STM32F4xx_HAL_Driver/Src/stm32f4xx_hal_gpio.c ****   lines are not active and the I/O ports are configured in input floating mode.
  28:Drivers/STM32F4xx_HAL_Driver/Src/stm32f4xx_hal_gpio.c ****   
  29:Drivers/STM32F4xx_HAL_Driver/Src/stm32f4xx_hal_gpio.c ****   [..]   
  30:Drivers/STM32F4xx_HAL_Driver/Src/stm32f4xx_hal_gpio.c ****   All GPIO pins have weak internal pull-up and pull-down resistors, which can be 
  31:Drivers/STM32F4xx_HAL_Driver/Src/stm32f4xx_hal_gpio.c ****   activated or not.
ARM GAS  C:\Users\n-is\AppData\Local\Temp\cczOBJcu.s 			page 2


  32:Drivers/STM32F4xx_HAL_Driver/Src/stm32f4xx_hal_gpio.c **** 
  33:Drivers/STM32F4xx_HAL_Driver/Src/stm32f4xx_hal_gpio.c ****   [..]
  34:Drivers/STM32F4xx_HAL_Driver/Src/stm32f4xx_hal_gpio.c ****   In Output or Alternate mode, each IO can be configured on open-drain or push-pull
  35:Drivers/STM32F4xx_HAL_Driver/Src/stm32f4xx_hal_gpio.c ****   type and the IO speed can be selected depending on the VDD value.
  36:Drivers/STM32F4xx_HAL_Driver/Src/stm32f4xx_hal_gpio.c **** 
  37:Drivers/STM32F4xx_HAL_Driver/Src/stm32f4xx_hal_gpio.c ****   [..]  
  38:Drivers/STM32F4xx_HAL_Driver/Src/stm32f4xx_hal_gpio.c ****   All ports have external interrupt/event capability. To use external interrupt 
  39:Drivers/STM32F4xx_HAL_Driver/Src/stm32f4xx_hal_gpio.c ****   lines, the port must be configured in input mode. All available GPIO pins are 
  40:Drivers/STM32F4xx_HAL_Driver/Src/stm32f4xx_hal_gpio.c ****   connected to the 16 external interrupt/event lines from EXTI0 to EXTI15.
  41:Drivers/STM32F4xx_HAL_Driver/Src/stm32f4xx_hal_gpio.c ****   
  42:Drivers/STM32F4xx_HAL_Driver/Src/stm32f4xx_hal_gpio.c ****   [..]
  43:Drivers/STM32F4xx_HAL_Driver/Src/stm32f4xx_hal_gpio.c ****   The external interrupt/event controller consists of up to 23 edge detectors 
  44:Drivers/STM32F4xx_HAL_Driver/Src/stm32f4xx_hal_gpio.c ****   (16 lines are connected to GPIO) for generating event/interrupt requests (each 
  45:Drivers/STM32F4xx_HAL_Driver/Src/stm32f4xx_hal_gpio.c ****   input line can be independently configured to select the type (interrupt or event) 
  46:Drivers/STM32F4xx_HAL_Driver/Src/stm32f4xx_hal_gpio.c ****   and the corresponding trigger event (rising or falling or both). Each line can 
  47:Drivers/STM32F4xx_HAL_Driver/Src/stm32f4xx_hal_gpio.c ****   also be masked independently. 
  48:Drivers/STM32F4xx_HAL_Driver/Src/stm32f4xx_hal_gpio.c **** 
  49:Drivers/STM32F4xx_HAL_Driver/Src/stm32f4xx_hal_gpio.c ****                      ##### How to use this driver #####
  50:Drivers/STM32F4xx_HAL_Driver/Src/stm32f4xx_hal_gpio.c ****   ==============================================================================  
  51:Drivers/STM32F4xx_HAL_Driver/Src/stm32f4xx_hal_gpio.c ****   [..]
  52:Drivers/STM32F4xx_HAL_Driver/Src/stm32f4xx_hal_gpio.c ****     (#) Enable the GPIO AHB clock using the following function: __HAL_RCC_GPIOx_CLK_ENABLE(). 
  53:Drivers/STM32F4xx_HAL_Driver/Src/stm32f4xx_hal_gpio.c **** 
  54:Drivers/STM32F4xx_HAL_Driver/Src/stm32f4xx_hal_gpio.c ****     (#) Configure the GPIO pin(s) using HAL_GPIO_Init().
  55:Drivers/STM32F4xx_HAL_Driver/Src/stm32f4xx_hal_gpio.c ****         (++) Configure the IO mode using "Mode" member from GPIO_InitTypeDef structure
  56:Drivers/STM32F4xx_HAL_Driver/Src/stm32f4xx_hal_gpio.c ****         (++) Activate Pull-up, Pull-down resistor using "Pull" member from GPIO_InitTypeDef 
  57:Drivers/STM32F4xx_HAL_Driver/Src/stm32f4xx_hal_gpio.c ****              structure.
  58:Drivers/STM32F4xx_HAL_Driver/Src/stm32f4xx_hal_gpio.c ****         (++) In case of Output or alternate function mode selection: the speed is 
  59:Drivers/STM32F4xx_HAL_Driver/Src/stm32f4xx_hal_gpio.c ****              configured through "Speed" member from GPIO_InitTypeDef structure.
  60:Drivers/STM32F4xx_HAL_Driver/Src/stm32f4xx_hal_gpio.c ****         (++) In alternate mode is selection, the alternate function connected to the IO
  61:Drivers/STM32F4xx_HAL_Driver/Src/stm32f4xx_hal_gpio.c ****              is configured through "Alternate" member from GPIO_InitTypeDef structure.
  62:Drivers/STM32F4xx_HAL_Driver/Src/stm32f4xx_hal_gpio.c ****         (++) Analog mode is required when a pin is to be used as ADC channel 
  63:Drivers/STM32F4xx_HAL_Driver/Src/stm32f4xx_hal_gpio.c ****              or DAC output.
  64:Drivers/STM32F4xx_HAL_Driver/Src/stm32f4xx_hal_gpio.c ****         (++) In case of external interrupt/event selection the "Mode" member from 
  65:Drivers/STM32F4xx_HAL_Driver/Src/stm32f4xx_hal_gpio.c ****              GPIO_InitTypeDef structure select the type (interrupt or event) and 
  66:Drivers/STM32F4xx_HAL_Driver/Src/stm32f4xx_hal_gpio.c ****              the corresponding trigger event (rising or falling or both).
  67:Drivers/STM32F4xx_HAL_Driver/Src/stm32f4xx_hal_gpio.c **** 
  68:Drivers/STM32F4xx_HAL_Driver/Src/stm32f4xx_hal_gpio.c ****     (#) In case of external interrupt/event mode selection, configure NVIC IRQ priority 
  69:Drivers/STM32F4xx_HAL_Driver/Src/stm32f4xx_hal_gpio.c ****         mapped to the EXTI line using HAL_NVIC_SetPriority() and enable it using
  70:Drivers/STM32F4xx_HAL_Driver/Src/stm32f4xx_hal_gpio.c ****         HAL_NVIC_EnableIRQ().
  71:Drivers/STM32F4xx_HAL_Driver/Src/stm32f4xx_hal_gpio.c ****          
  72:Drivers/STM32F4xx_HAL_Driver/Src/stm32f4xx_hal_gpio.c ****     (#) To get the level of a pin configured in input mode use HAL_GPIO_ReadPin().
  73:Drivers/STM32F4xx_HAL_Driver/Src/stm32f4xx_hal_gpio.c ****             
  74:Drivers/STM32F4xx_HAL_Driver/Src/stm32f4xx_hal_gpio.c ****     (#) To set/reset the level of a pin configured in output mode use 
  75:Drivers/STM32F4xx_HAL_Driver/Src/stm32f4xx_hal_gpio.c ****         HAL_GPIO_WritePin()/HAL_GPIO_TogglePin().
  76:Drivers/STM32F4xx_HAL_Driver/Src/stm32f4xx_hal_gpio.c ****     
  77:Drivers/STM32F4xx_HAL_Driver/Src/stm32f4xx_hal_gpio.c ****     (#) To lock pin configuration until next reset use HAL_GPIO_LockPin().
  78:Drivers/STM32F4xx_HAL_Driver/Src/stm32f4xx_hal_gpio.c **** 
  79:Drivers/STM32F4xx_HAL_Driver/Src/stm32f4xx_hal_gpio.c ****                  
  80:Drivers/STM32F4xx_HAL_Driver/Src/stm32f4xx_hal_gpio.c ****     (#) During and just after reset, the alternate functions are not 
  81:Drivers/STM32F4xx_HAL_Driver/Src/stm32f4xx_hal_gpio.c ****         active and the GPIO pins are configured in input floating mode (except JTAG
  82:Drivers/STM32F4xx_HAL_Driver/Src/stm32f4xx_hal_gpio.c ****         pins).
  83:Drivers/STM32F4xx_HAL_Driver/Src/stm32f4xx_hal_gpio.c ****   
  84:Drivers/STM32F4xx_HAL_Driver/Src/stm32f4xx_hal_gpio.c ****     (#) The LSE oscillator pins OSC32_IN and OSC32_OUT can be used as general purpose 
  85:Drivers/STM32F4xx_HAL_Driver/Src/stm32f4xx_hal_gpio.c ****         (PC14 and PC15, respectively) when the LSE oscillator is off. The LSE has 
  86:Drivers/STM32F4xx_HAL_Driver/Src/stm32f4xx_hal_gpio.c ****         priority over the GPIO function.
  87:Drivers/STM32F4xx_HAL_Driver/Src/stm32f4xx_hal_gpio.c ****   
  88:Drivers/STM32F4xx_HAL_Driver/Src/stm32f4xx_hal_gpio.c ****     (#) The HSE oscillator pins OSC_IN/OSC_OUT can be used as 
ARM GAS  C:\Users\n-is\AppData\Local\Temp\cczOBJcu.s 			page 3


  89:Drivers/STM32F4xx_HAL_Driver/Src/stm32f4xx_hal_gpio.c ****         general purpose PH0 and PH1, respectively, when the HSE oscillator is off. 
  90:Drivers/STM32F4xx_HAL_Driver/Src/stm32f4xx_hal_gpio.c ****         The HSE has priority over the GPIO function.
  91:Drivers/STM32F4xx_HAL_Driver/Src/stm32f4xx_hal_gpio.c ****   
  92:Drivers/STM32F4xx_HAL_Driver/Src/stm32f4xx_hal_gpio.c ****   @endverbatim
  93:Drivers/STM32F4xx_HAL_Driver/Src/stm32f4xx_hal_gpio.c ****   ******************************************************************************
  94:Drivers/STM32F4xx_HAL_Driver/Src/stm32f4xx_hal_gpio.c ****   * @attention
  95:Drivers/STM32F4xx_HAL_Driver/Src/stm32f4xx_hal_gpio.c ****   *
  96:Drivers/STM32F4xx_HAL_Driver/Src/stm32f4xx_hal_gpio.c ****   * <h2><center>&copy; COPYRIGHT(c) 2017 STMicroelectronics</center></h2>
  97:Drivers/STM32F4xx_HAL_Driver/Src/stm32f4xx_hal_gpio.c ****   *
  98:Drivers/STM32F4xx_HAL_Driver/Src/stm32f4xx_hal_gpio.c ****   * Redistribution and use in source and binary forms, with or without modification,
  99:Drivers/STM32F4xx_HAL_Driver/Src/stm32f4xx_hal_gpio.c ****   * are permitted provided that the following conditions are met:
 100:Drivers/STM32F4xx_HAL_Driver/Src/stm32f4xx_hal_gpio.c ****   *   1. Redistributions of source code must retain the above copyright notice,
 101:Drivers/STM32F4xx_HAL_Driver/Src/stm32f4xx_hal_gpio.c ****   *      this list of conditions and the following disclaimer.
 102:Drivers/STM32F4xx_HAL_Driver/Src/stm32f4xx_hal_gpio.c ****   *   2. Redistributions in binary form must reproduce the above copyright notice,
 103:Drivers/STM32F4xx_HAL_Driver/Src/stm32f4xx_hal_gpio.c ****   *      this list of conditions and the following disclaimer in the documentation
 104:Drivers/STM32F4xx_HAL_Driver/Src/stm32f4xx_hal_gpio.c ****   *      and/or other materials provided with the distribution.
 105:Drivers/STM32F4xx_HAL_Driver/Src/stm32f4xx_hal_gpio.c ****   *   3. Neither the name of STMicroelectronics nor the names of its contributors
 106:Drivers/STM32F4xx_HAL_Driver/Src/stm32f4xx_hal_gpio.c ****   *      may be used to endorse or promote products derived from this software
 107:Drivers/STM32F4xx_HAL_Driver/Src/stm32f4xx_hal_gpio.c ****   *      without specific prior written permission.
 108:Drivers/STM32F4xx_HAL_Driver/Src/stm32f4xx_hal_gpio.c ****   *
 109:Drivers/STM32F4xx_HAL_Driver/Src/stm32f4xx_hal_gpio.c ****   * THIS SOFTWARE IS PROVIDED BY THE COPYRIGHT HOLDERS AND CONTRIBUTORS "AS IS"
 110:Drivers/STM32F4xx_HAL_Driver/Src/stm32f4xx_hal_gpio.c ****   * AND ANY EXPRESS OR IMPLIED WARRANTIES, INCLUDING, BUT NOT LIMITED TO, THE
 111:Drivers/STM32F4xx_HAL_Driver/Src/stm32f4xx_hal_gpio.c ****   * IMPLIED WARRANTIES OF MERCHANTABILITY AND FITNESS FOR A PARTICULAR PURPOSE ARE
 112:Drivers/STM32F4xx_HAL_Driver/Src/stm32f4xx_hal_gpio.c ****   * DISCLAIMED. IN NO EVENT SHALL THE COPYRIGHT HOLDER OR CONTRIBUTORS BE LIABLE
 113:Drivers/STM32F4xx_HAL_Driver/Src/stm32f4xx_hal_gpio.c ****   * FOR ANY DIRECT, INDIRECT, INCIDENTAL, SPECIAL, EXEMPLARY, OR CONSEQUENTIAL
 114:Drivers/STM32F4xx_HAL_Driver/Src/stm32f4xx_hal_gpio.c ****   * DAMAGES (INCLUDING, BUT NOT LIMITED TO, PROCUREMENT OF SUBSTITUTE GOODS OR
 115:Drivers/STM32F4xx_HAL_Driver/Src/stm32f4xx_hal_gpio.c ****   * SERVICES; LOSS OF USE, DATA, OR PROFITS; OR BUSINESS INTERRUPTION) HOWEVER
 116:Drivers/STM32F4xx_HAL_Driver/Src/stm32f4xx_hal_gpio.c ****   * CAUSED AND ON ANY THEORY OF LIABILITY, WHETHER IN CONTRACT, STRICT LIABILITY,
 117:Drivers/STM32F4xx_HAL_Driver/Src/stm32f4xx_hal_gpio.c ****   * OR TORT (INCLUDING NEGLIGENCE OR OTHERWISE) ARISING IN ANY WAY OUT OF THE USE
 118:Drivers/STM32F4xx_HAL_Driver/Src/stm32f4xx_hal_gpio.c ****   * OF THIS SOFTWARE, EVEN IF ADVISED OF THE POSSIBILITY OF SUCH DAMAGE.
 119:Drivers/STM32F4xx_HAL_Driver/Src/stm32f4xx_hal_gpio.c ****   *
 120:Drivers/STM32F4xx_HAL_Driver/Src/stm32f4xx_hal_gpio.c ****   ******************************************************************************
 121:Drivers/STM32F4xx_HAL_Driver/Src/stm32f4xx_hal_gpio.c ****   */ 
 122:Drivers/STM32F4xx_HAL_Driver/Src/stm32f4xx_hal_gpio.c **** 
 123:Drivers/STM32F4xx_HAL_Driver/Src/stm32f4xx_hal_gpio.c **** /* Includes ------------------------------------------------------------------*/
 124:Drivers/STM32F4xx_HAL_Driver/Src/stm32f4xx_hal_gpio.c **** #include "stm32f4xx_hal.h"
 125:Drivers/STM32F4xx_HAL_Driver/Src/stm32f4xx_hal_gpio.c **** 
 126:Drivers/STM32F4xx_HAL_Driver/Src/stm32f4xx_hal_gpio.c **** /** @addtogroup STM32F4xx_HAL_Driver
 127:Drivers/STM32F4xx_HAL_Driver/Src/stm32f4xx_hal_gpio.c ****   * @{
 128:Drivers/STM32F4xx_HAL_Driver/Src/stm32f4xx_hal_gpio.c ****   */
 129:Drivers/STM32F4xx_HAL_Driver/Src/stm32f4xx_hal_gpio.c **** 
 130:Drivers/STM32F4xx_HAL_Driver/Src/stm32f4xx_hal_gpio.c **** /** @defgroup GPIO GPIO
 131:Drivers/STM32F4xx_HAL_Driver/Src/stm32f4xx_hal_gpio.c ****   * @brief GPIO HAL module driver
 132:Drivers/STM32F4xx_HAL_Driver/Src/stm32f4xx_hal_gpio.c ****   * @{
 133:Drivers/STM32F4xx_HAL_Driver/Src/stm32f4xx_hal_gpio.c ****   */
 134:Drivers/STM32F4xx_HAL_Driver/Src/stm32f4xx_hal_gpio.c **** 
 135:Drivers/STM32F4xx_HAL_Driver/Src/stm32f4xx_hal_gpio.c **** #ifdef HAL_GPIO_MODULE_ENABLED
 136:Drivers/STM32F4xx_HAL_Driver/Src/stm32f4xx_hal_gpio.c **** 
 137:Drivers/STM32F4xx_HAL_Driver/Src/stm32f4xx_hal_gpio.c **** /* Private typedef -----------------------------------------------------------*/
 138:Drivers/STM32F4xx_HAL_Driver/Src/stm32f4xx_hal_gpio.c **** /* Private define ------------------------------------------------------------*/
 139:Drivers/STM32F4xx_HAL_Driver/Src/stm32f4xx_hal_gpio.c **** /** @addtogroup GPIO_Private_Constants GPIO Private Constants
 140:Drivers/STM32F4xx_HAL_Driver/Src/stm32f4xx_hal_gpio.c ****   * @{
 141:Drivers/STM32F4xx_HAL_Driver/Src/stm32f4xx_hal_gpio.c ****   */
 142:Drivers/STM32F4xx_HAL_Driver/Src/stm32f4xx_hal_gpio.c **** #define GPIO_MODE             0x00000003U
 143:Drivers/STM32F4xx_HAL_Driver/Src/stm32f4xx_hal_gpio.c **** #define EXTI_MODE             0x10000000U
 144:Drivers/STM32F4xx_HAL_Driver/Src/stm32f4xx_hal_gpio.c **** #define GPIO_MODE_IT          0x00010000U
 145:Drivers/STM32F4xx_HAL_Driver/Src/stm32f4xx_hal_gpio.c **** #define GPIO_MODE_EVT         0x00020000U
ARM GAS  C:\Users\n-is\AppData\Local\Temp\cczOBJcu.s 			page 4


 146:Drivers/STM32F4xx_HAL_Driver/Src/stm32f4xx_hal_gpio.c **** #define RISING_EDGE           0x00100000U
 147:Drivers/STM32F4xx_HAL_Driver/Src/stm32f4xx_hal_gpio.c **** #define FALLING_EDGE          0x00200000U
 148:Drivers/STM32F4xx_HAL_Driver/Src/stm32f4xx_hal_gpio.c **** #define GPIO_OUTPUT_TYPE      0x00000010U
 149:Drivers/STM32F4xx_HAL_Driver/Src/stm32f4xx_hal_gpio.c **** 
 150:Drivers/STM32F4xx_HAL_Driver/Src/stm32f4xx_hal_gpio.c **** #define GPIO_NUMBER           16U
 151:Drivers/STM32F4xx_HAL_Driver/Src/stm32f4xx_hal_gpio.c **** /**
 152:Drivers/STM32F4xx_HAL_Driver/Src/stm32f4xx_hal_gpio.c ****   * @}
 153:Drivers/STM32F4xx_HAL_Driver/Src/stm32f4xx_hal_gpio.c ****   */
 154:Drivers/STM32F4xx_HAL_Driver/Src/stm32f4xx_hal_gpio.c **** /* Private macro -------------------------------------------------------------*/
 155:Drivers/STM32F4xx_HAL_Driver/Src/stm32f4xx_hal_gpio.c **** /* Private variables ---------------------------------------------------------*/
 156:Drivers/STM32F4xx_HAL_Driver/Src/stm32f4xx_hal_gpio.c **** /* Private function prototypes -----------------------------------------------*/
 157:Drivers/STM32F4xx_HAL_Driver/Src/stm32f4xx_hal_gpio.c **** /* Private functions ---------------------------------------------------------*/
 158:Drivers/STM32F4xx_HAL_Driver/Src/stm32f4xx_hal_gpio.c **** /* Exported functions --------------------------------------------------------*/
 159:Drivers/STM32F4xx_HAL_Driver/Src/stm32f4xx_hal_gpio.c **** /** @defgroup GPIO_Exported_Functions GPIO Exported Functions
 160:Drivers/STM32F4xx_HAL_Driver/Src/stm32f4xx_hal_gpio.c ****   * @{
 161:Drivers/STM32F4xx_HAL_Driver/Src/stm32f4xx_hal_gpio.c ****   */
 162:Drivers/STM32F4xx_HAL_Driver/Src/stm32f4xx_hal_gpio.c **** 
 163:Drivers/STM32F4xx_HAL_Driver/Src/stm32f4xx_hal_gpio.c **** /** @defgroup GPIO_Exported_Functions_Group1 Initialization and de-initialization functions
 164:Drivers/STM32F4xx_HAL_Driver/Src/stm32f4xx_hal_gpio.c ****   *  @brief    Initialization and Configuration functions
 165:Drivers/STM32F4xx_HAL_Driver/Src/stm32f4xx_hal_gpio.c ****   *
 166:Drivers/STM32F4xx_HAL_Driver/Src/stm32f4xx_hal_gpio.c **** @verbatim    
 167:Drivers/STM32F4xx_HAL_Driver/Src/stm32f4xx_hal_gpio.c ****  ===============================================================================
 168:Drivers/STM32F4xx_HAL_Driver/Src/stm32f4xx_hal_gpio.c ****               ##### Initialization and de-initialization functions #####
 169:Drivers/STM32F4xx_HAL_Driver/Src/stm32f4xx_hal_gpio.c ****  ===============================================================================
 170:Drivers/STM32F4xx_HAL_Driver/Src/stm32f4xx_hal_gpio.c ****   [..]
 171:Drivers/STM32F4xx_HAL_Driver/Src/stm32f4xx_hal_gpio.c ****     This section provides functions allowing to initialize and de-initialize the GPIOs
 172:Drivers/STM32F4xx_HAL_Driver/Src/stm32f4xx_hal_gpio.c ****     to be ready for use.
 173:Drivers/STM32F4xx_HAL_Driver/Src/stm32f4xx_hal_gpio.c ****  
 174:Drivers/STM32F4xx_HAL_Driver/Src/stm32f4xx_hal_gpio.c **** @endverbatim
 175:Drivers/STM32F4xx_HAL_Driver/Src/stm32f4xx_hal_gpio.c ****   * @{
 176:Drivers/STM32F4xx_HAL_Driver/Src/stm32f4xx_hal_gpio.c ****   */
 177:Drivers/STM32F4xx_HAL_Driver/Src/stm32f4xx_hal_gpio.c **** 
 178:Drivers/STM32F4xx_HAL_Driver/Src/stm32f4xx_hal_gpio.c **** 
 179:Drivers/STM32F4xx_HAL_Driver/Src/stm32f4xx_hal_gpio.c **** /**
 180:Drivers/STM32F4xx_HAL_Driver/Src/stm32f4xx_hal_gpio.c ****   * @brief  Initializes the GPIOx peripheral according to the specified parameters in the GPIO_Init
 181:Drivers/STM32F4xx_HAL_Driver/Src/stm32f4xx_hal_gpio.c ****   * @param  GPIOx where x can be (A..K) to select the GPIO peripheral for STM32F429X device or
 182:Drivers/STM32F4xx_HAL_Driver/Src/stm32f4xx_hal_gpio.c ****   *                      x can be (A..I) to select the GPIO peripheral for STM32F40XX and STM32F427
 183:Drivers/STM32F4xx_HAL_Driver/Src/stm32f4xx_hal_gpio.c ****   * @param  GPIO_Init pointer to a GPIO_InitTypeDef structure that contains
 184:Drivers/STM32F4xx_HAL_Driver/Src/stm32f4xx_hal_gpio.c ****   *         the configuration information for the specified GPIO peripheral.
 185:Drivers/STM32F4xx_HAL_Driver/Src/stm32f4xx_hal_gpio.c ****   * @retval None
 186:Drivers/STM32F4xx_HAL_Driver/Src/stm32f4xx_hal_gpio.c ****   */
 187:Drivers/STM32F4xx_HAL_Driver/Src/stm32f4xx_hal_gpio.c **** void HAL_GPIO_Init(GPIO_TypeDef  *GPIOx, GPIO_InitTypeDef *GPIO_Init)
 188:Drivers/STM32F4xx_HAL_Driver/Src/stm32f4xx_hal_gpio.c **** {
  28              		.loc 1 188 0
  29              		.cfi_startproc
  30              		@ args = 0, pretend = 0, frame = 8
  31              		@ frame_needed = 0, uses_anonymous_args = 0
  32              	.LVL0:
  33 0000 2DE9F047 		push	{r4, r5, r6, r7, r8, r9, r10, lr}
  34              	.LCFI0:
  35              		.cfi_def_cfa_offset 32
  36              		.cfi_offset 4, -32
  37              		.cfi_offset 5, -28
  38              		.cfi_offset 6, -24
  39              		.cfi_offset 7, -20
  40              		.cfi_offset 8, -16
  41              		.cfi_offset 9, -12
ARM GAS  C:\Users\n-is\AppData\Local\Temp\cczOBJcu.s 			page 5


  42              		.cfi_offset 10, -8
  43              		.cfi_offset 14, -4
  44 0004 82B0     		sub	sp, sp, #8
  45              	.LCFI1:
  46              		.cfi_def_cfa_offset 40
  47 0006 8046     		mov	r8, r0
  48 0008 0E46     		mov	r6, r1
  49              	.LVL1:
 189:Drivers/STM32F4xx_HAL_Driver/Src/stm32f4xx_hal_gpio.c ****   uint32_t position;
 190:Drivers/STM32F4xx_HAL_Driver/Src/stm32f4xx_hal_gpio.c ****   uint32_t ioposition = 0x00U;
 191:Drivers/STM32F4xx_HAL_Driver/Src/stm32f4xx_hal_gpio.c ****   uint32_t iocurrent = 0x00U;
 192:Drivers/STM32F4xx_HAL_Driver/Src/stm32f4xx_hal_gpio.c ****   uint32_t temp = 0x00U;
 193:Drivers/STM32F4xx_HAL_Driver/Src/stm32f4xx_hal_gpio.c **** 
 194:Drivers/STM32F4xx_HAL_Driver/Src/stm32f4xx_hal_gpio.c ****   /* Check the parameters */
 195:Drivers/STM32F4xx_HAL_Driver/Src/stm32f4xx_hal_gpio.c ****   assert_param(IS_GPIO_ALL_INSTANCE(GPIOx));
  50              		.loc 1 195 0
  51 000a B64B     		ldr	r3, .L35
  52 000c 9842     		cmp	r0, r3
  53 000e 23D0     		beq	.L2
  54              		.loc 1 195 0 is_stmt 0 discriminator 1
  55 0010 03F58063 		add	r3, r3, #1024
  56 0014 9842     		cmp	r0, r3
  57 0016 1FD0     		beq	.L2
  58              		.loc 1 195 0 discriminator 2
  59 0018 03F58063 		add	r3, r3, #1024
  60 001c 9842     		cmp	r0, r3
  61 001e 1BD0     		beq	.L2
  62              		.loc 1 195 0 discriminator 3
  63 0020 03F58063 		add	r3, r3, #1024
  64 0024 9842     		cmp	r0, r3
  65 0026 17D0     		beq	.L2
  66              		.loc 1 195 0 discriminator 4
  67 0028 03F58063 		add	r3, r3, #1024
  68 002c 9842     		cmp	r0, r3
  69 002e 13D0     		beq	.L2
  70              		.loc 1 195 0 discriminator 5
  71 0030 03F58063 		add	r3, r3, #1024
  72 0034 9842     		cmp	r0, r3
  73 0036 0FD0     		beq	.L2
  74              		.loc 1 195 0 discriminator 6
  75 0038 03F58063 		add	r3, r3, #1024
  76 003c 9842     		cmp	r0, r3
  77 003e 0BD0     		beq	.L2
  78              		.loc 1 195 0 discriminator 7
  79 0040 03F58063 		add	r3, r3, #1024
  80 0044 9842     		cmp	r0, r3
  81 0046 07D0     		beq	.L2
  82              		.loc 1 195 0 discriminator 8
  83 0048 03F58063 		add	r3, r3, #1024
  84 004c 9842     		cmp	r0, r3
  85 004e 03D0     		beq	.L2
  86              		.loc 1 195 0 discriminator 9
  87 0050 C321     		movs	r1, #195
  88              	.LVL2:
  89 0052 A548     		ldr	r0, .L35+4
  90              	.LVL3:
  91 0054 FFF7FEFF 		bl	assert_failed
ARM GAS  C:\Users\n-is\AppData\Local\Temp\cczOBJcu.s 			page 6


  92              	.LVL4:
  93              	.L2:
 196:Drivers/STM32F4xx_HAL_Driver/Src/stm32f4xx_hal_gpio.c ****   assert_param(IS_GPIO_PIN(GPIO_Init->Pin));
  94              		.loc 1 196 0 is_stmt 1
  95 0058 3368     		ldr	r3, [r6]
  96 005a 9AB2     		uxth	r2, r3
  97 005c 12B1     		cbz	r2, .L3
  98              		.loc 1 196 0 is_stmt 0 discriminator 2
  99 005e 1B0C     		lsrs	r3, r3, #16
 100 0060 1B04     		lsls	r3, r3, #16
 101 0062 1BB1     		cbz	r3, .L4
 102              	.L3:
 103              		.loc 1 196 0 discriminator 3
 104 0064 C421     		movs	r1, #196
 105 0066 A048     		ldr	r0, .L35+4
 106 0068 FFF7FEFF 		bl	assert_failed
 107              	.LVL5:
 108              	.L4:
 197:Drivers/STM32F4xx_HAL_Driver/Src/stm32f4xx_hal_gpio.c ****   assert_param(IS_GPIO_MODE(GPIO_Init->Mode));
 109              		.loc 1 197 0 is_stmt 1
 110 006c 7368     		ldr	r3, [r6, #4]
 111 006e 012B     		cmp	r3, #1
 112 0070 1ED9     		bls	.L5
 113              		.loc 1 197 0 is_stmt 0 discriminator 1
 114 0072 112B     		cmp	r3, #17
 115 0074 1CD0     		beq	.L5
 116              		.loc 1 197 0 discriminator 2
 117 0076 022B     		cmp	r3, #2
 118 0078 1AD0     		beq	.L5
 119              		.loc 1 197 0 discriminator 3
 120 007a 122B     		cmp	r3, #18
 121 007c 18D0     		beq	.L5
 122              		.loc 1 197 0 discriminator 4
 123 007e 9B4A     		ldr	r2, .L35+8
 124 0080 9342     		cmp	r3, r2
 125 0082 15D0     		beq	.L5
 126              		.loc 1 197 0 discriminator 5
 127 0084 02F58012 		add	r2, r2, #1048576
 128 0088 9342     		cmp	r3, r2
 129 008a 11D0     		beq	.L5
 130              		.loc 1 197 0 discriminator 6
 131 008c 02F58012 		add	r2, r2, #1048576
 132 0090 9342     		cmp	r3, r2
 133 0092 0DD0     		beq	.L5
 134              		.loc 1 197 0 discriminator 7
 135 0094 A2F5F812 		sub	r2, r2, #2031616
 136 0098 9342     		cmp	r3, r2
 137 009a 09D0     		beq	.L5
 138              		.loc 1 197 0 discriminator 8
 139 009c 02F58012 		add	r2, r2, #1048576
 140 00a0 9342     		cmp	r3, r2
 141 00a2 05D0     		beq	.L5
 142              		.loc 1 197 0 discriminator 9
 143 00a4 02F58012 		add	r2, r2, #1048576
 144 00a8 9342     		cmp	r3, r2
 145 00aa 01D0     		beq	.L5
 146              		.loc 1 197 0 discriminator 10
ARM GAS  C:\Users\n-is\AppData\Local\Temp\cczOBJcu.s 			page 7


 147 00ac 032B     		cmp	r3, #3
 148 00ae 04D1     		bne	.L30
 149              	.L5:
 198:Drivers/STM32F4xx_HAL_Driver/Src/stm32f4xx_hal_gpio.c ****   assert_param(IS_GPIO_PULL(GPIO_Init->Pull));
 150              		.loc 1 198 0 is_stmt 1
 151 00b0 B368     		ldr	r3, [r6, #8]
 152 00b2 022B     		cmp	r3, #2
 153 00b4 06D8     		bhi	.L31
 154              	.L6:
 199:Drivers/STM32F4xx_HAL_Driver/Src/stm32f4xx_hal_gpio.c **** 
 200:Drivers/STM32F4xx_HAL_Driver/Src/stm32f4xx_hal_gpio.c ****   /* Configure the port pins */
 201:Drivers/STM32F4xx_HAL_Driver/Src/stm32f4xx_hal_gpio.c ****   for(position = 0U; position < GPIO_NUMBER; position++)
 202:Drivers/STM32F4xx_HAL_Driver/Src/stm32f4xx_hal_gpio.c ****   {
 203:Drivers/STM32F4xx_HAL_Driver/Src/stm32f4xx_hal_gpio.c ****     /* Get the IO position */
 204:Drivers/STM32F4xx_HAL_Driver/Src/stm32f4xx_hal_gpio.c ****     ioposition = 0x01U << position;
 205:Drivers/STM32F4xx_HAL_Driver/Src/stm32f4xx_hal_gpio.c ****     /* Get the current IO position */
 206:Drivers/STM32F4xx_HAL_Driver/Src/stm32f4xx_hal_gpio.c ****     iocurrent = (uint32_t)(GPIO_Init->Pin) & ioposition;
 207:Drivers/STM32F4xx_HAL_Driver/Src/stm32f4xx_hal_gpio.c **** 
 208:Drivers/STM32F4xx_HAL_Driver/Src/stm32f4xx_hal_gpio.c ****     if(iocurrent == ioposition)
 209:Drivers/STM32F4xx_HAL_Driver/Src/stm32f4xx_hal_gpio.c ****     {
 210:Drivers/STM32F4xx_HAL_Driver/Src/stm32f4xx_hal_gpio.c ****       /*--------------------- GPIO Mode Configuration ------------------------*/
 211:Drivers/STM32F4xx_HAL_Driver/Src/stm32f4xx_hal_gpio.c ****       /* In case of Alternate function mode selection */
 212:Drivers/STM32F4xx_HAL_Driver/Src/stm32f4xx_hal_gpio.c ****       if((GPIO_Init->Mode == GPIO_MODE_AF_PP) || (GPIO_Init->Mode == GPIO_MODE_AF_OD))
 213:Drivers/STM32F4xx_HAL_Driver/Src/stm32f4xx_hal_gpio.c ****       {
 214:Drivers/STM32F4xx_HAL_Driver/Src/stm32f4xx_hal_gpio.c ****         /* Check the Alternate function parameter */
 215:Drivers/STM32F4xx_HAL_Driver/Src/stm32f4xx_hal_gpio.c ****         assert_param(IS_GPIO_AF(GPIO_Init->Alternate));
 216:Drivers/STM32F4xx_HAL_Driver/Src/stm32f4xx_hal_gpio.c ****         /* Configure Alternate function mapped with the current IO */
 217:Drivers/STM32F4xx_HAL_Driver/Src/stm32f4xx_hal_gpio.c ****         temp = GPIOx->AFR[position >> 3U];
 218:Drivers/STM32F4xx_HAL_Driver/Src/stm32f4xx_hal_gpio.c ****         temp &= ~(0xFU << ((uint32_t)(position & 0x07U) * 4U)) ;
 219:Drivers/STM32F4xx_HAL_Driver/Src/stm32f4xx_hal_gpio.c ****         temp |= ((uint32_t)(GPIO_Init->Alternate) << (((uint32_t)position & 0x07U) * 4U));
 220:Drivers/STM32F4xx_HAL_Driver/Src/stm32f4xx_hal_gpio.c ****         GPIOx->AFR[position >> 3U] = temp;
 221:Drivers/STM32F4xx_HAL_Driver/Src/stm32f4xx_hal_gpio.c ****       }
 222:Drivers/STM32F4xx_HAL_Driver/Src/stm32f4xx_hal_gpio.c **** 
 223:Drivers/STM32F4xx_HAL_Driver/Src/stm32f4xx_hal_gpio.c ****       /* Configure IO Direction mode (Input, Output, Alternate or Analog) */
 224:Drivers/STM32F4xx_HAL_Driver/Src/stm32f4xx_hal_gpio.c ****       temp = GPIOx->MODER;
 225:Drivers/STM32F4xx_HAL_Driver/Src/stm32f4xx_hal_gpio.c ****       temp &= ~(GPIO_MODER_MODER0 << (position * 2U));
 226:Drivers/STM32F4xx_HAL_Driver/Src/stm32f4xx_hal_gpio.c ****       temp |= ((GPIO_Init->Mode & GPIO_MODE) << (position * 2U));
 227:Drivers/STM32F4xx_HAL_Driver/Src/stm32f4xx_hal_gpio.c ****       GPIOx->MODER = temp;
 228:Drivers/STM32F4xx_HAL_Driver/Src/stm32f4xx_hal_gpio.c **** 
 229:Drivers/STM32F4xx_HAL_Driver/Src/stm32f4xx_hal_gpio.c ****       /* In case of Output or Alternate function mode selection */
 230:Drivers/STM32F4xx_HAL_Driver/Src/stm32f4xx_hal_gpio.c ****       if((GPIO_Init->Mode == GPIO_MODE_OUTPUT_PP) || (GPIO_Init->Mode == GPIO_MODE_AF_PP) ||
 231:Drivers/STM32F4xx_HAL_Driver/Src/stm32f4xx_hal_gpio.c ****          (GPIO_Init->Mode == GPIO_MODE_OUTPUT_OD) || (GPIO_Init->Mode == GPIO_MODE_AF_OD))
 232:Drivers/STM32F4xx_HAL_Driver/Src/stm32f4xx_hal_gpio.c ****       {
 233:Drivers/STM32F4xx_HAL_Driver/Src/stm32f4xx_hal_gpio.c ****         /* Check the Speed parameter */
 234:Drivers/STM32F4xx_HAL_Driver/Src/stm32f4xx_hal_gpio.c ****         assert_param(IS_GPIO_SPEED(GPIO_Init->Speed));
 235:Drivers/STM32F4xx_HAL_Driver/Src/stm32f4xx_hal_gpio.c ****         /* Configure the IO Speed */
 236:Drivers/STM32F4xx_HAL_Driver/Src/stm32f4xx_hal_gpio.c ****         temp = GPIOx->OSPEEDR; 
 237:Drivers/STM32F4xx_HAL_Driver/Src/stm32f4xx_hal_gpio.c ****         temp &= ~(GPIO_OSPEEDER_OSPEEDR0 << (position * 2U));
 238:Drivers/STM32F4xx_HAL_Driver/Src/stm32f4xx_hal_gpio.c ****         temp |= (GPIO_Init->Speed << (position * 2U));
 239:Drivers/STM32F4xx_HAL_Driver/Src/stm32f4xx_hal_gpio.c ****         GPIOx->OSPEEDR = temp;
 240:Drivers/STM32F4xx_HAL_Driver/Src/stm32f4xx_hal_gpio.c **** 
 241:Drivers/STM32F4xx_HAL_Driver/Src/stm32f4xx_hal_gpio.c ****         /* Configure the IO Output Type */
 242:Drivers/STM32F4xx_HAL_Driver/Src/stm32f4xx_hal_gpio.c ****         temp = GPIOx->OTYPER;
 243:Drivers/STM32F4xx_HAL_Driver/Src/stm32f4xx_hal_gpio.c ****         temp &= ~(GPIO_OTYPER_OT_0 << position) ;
 244:Drivers/STM32F4xx_HAL_Driver/Src/stm32f4xx_hal_gpio.c ****         temp |= (((GPIO_Init->Mode & GPIO_OUTPUT_TYPE) >> 4U) << position);
 245:Drivers/STM32F4xx_HAL_Driver/Src/stm32f4xx_hal_gpio.c ****         GPIOx->OTYPER = temp;
 246:Drivers/STM32F4xx_HAL_Driver/Src/stm32f4xx_hal_gpio.c ****       }
ARM GAS  C:\Users\n-is\AppData\Local\Temp\cczOBJcu.s 			page 8


 247:Drivers/STM32F4xx_HAL_Driver/Src/stm32f4xx_hal_gpio.c **** 
 248:Drivers/STM32F4xx_HAL_Driver/Src/stm32f4xx_hal_gpio.c ****       /* Activate the Pull-up or Pull down resistor for the current IO */
 249:Drivers/STM32F4xx_HAL_Driver/Src/stm32f4xx_hal_gpio.c ****       temp = GPIOx->PUPDR;
 250:Drivers/STM32F4xx_HAL_Driver/Src/stm32f4xx_hal_gpio.c ****       temp &= ~(GPIO_PUPDR_PUPDR0 << (position * 2U));
 251:Drivers/STM32F4xx_HAL_Driver/Src/stm32f4xx_hal_gpio.c ****       temp |= ((GPIO_Init->Pull) << (position * 2U));
 252:Drivers/STM32F4xx_HAL_Driver/Src/stm32f4xx_hal_gpio.c ****       GPIOx->PUPDR = temp;
 253:Drivers/STM32F4xx_HAL_Driver/Src/stm32f4xx_hal_gpio.c **** 
 254:Drivers/STM32F4xx_HAL_Driver/Src/stm32f4xx_hal_gpio.c ****       /*--------------------- EXTI Mode Configuration ------------------------*/
 255:Drivers/STM32F4xx_HAL_Driver/Src/stm32f4xx_hal_gpio.c ****       /* Configure the External Interrupt or event for the current IO */
 256:Drivers/STM32F4xx_HAL_Driver/Src/stm32f4xx_hal_gpio.c ****       if((GPIO_Init->Mode & EXTI_MODE) == EXTI_MODE)
 257:Drivers/STM32F4xx_HAL_Driver/Src/stm32f4xx_hal_gpio.c ****       {
 258:Drivers/STM32F4xx_HAL_Driver/Src/stm32f4xx_hal_gpio.c ****         /* Enable SYSCFG Clock */
 259:Drivers/STM32F4xx_HAL_Driver/Src/stm32f4xx_hal_gpio.c ****         __HAL_RCC_SYSCFG_CLK_ENABLE();
 260:Drivers/STM32F4xx_HAL_Driver/Src/stm32f4xx_hal_gpio.c **** 
 261:Drivers/STM32F4xx_HAL_Driver/Src/stm32f4xx_hal_gpio.c ****         temp = SYSCFG->EXTICR[position >> 2U];
 262:Drivers/STM32F4xx_HAL_Driver/Src/stm32f4xx_hal_gpio.c ****         temp &= ~(0x0FU << (4U * (position & 0x03U)));
 263:Drivers/STM32F4xx_HAL_Driver/Src/stm32f4xx_hal_gpio.c ****         temp |= ((uint32_t)(GPIO_GET_INDEX(GPIOx)) << (4U * (position & 0x03U)));
 155              		.loc 1 263 0 discriminator 1
 156 00b6 0024     		movs	r4, #0
 157 00b8 45E0     		b	.L7
 158              	.L30:
 197:Drivers/STM32F4xx_HAL_Driver/Src/stm32f4xx_hal_gpio.c ****   assert_param(IS_GPIO_PULL(GPIO_Init->Pull));
 159              		.loc 1 197 0 discriminator 11
 160 00ba C521     		movs	r1, #197
 161 00bc 8A48     		ldr	r0, .L35+4
 162 00be FFF7FEFF 		bl	assert_failed
 163              	.LVL6:
 164 00c2 F5E7     		b	.L5
 165              	.L31:
 198:Drivers/STM32F4xx_HAL_Driver/Src/stm32f4xx_hal_gpio.c ****   assert_param(IS_GPIO_PULL(GPIO_Init->Pull));
 166              		.loc 1 198 0 discriminator 1
 167 00c4 C621     		movs	r1, #198
 168 00c6 8848     		ldr	r0, .L35+4
 169 00c8 FFF7FEFF 		bl	assert_failed
 170              	.LVL7:
 171 00cc F3E7     		b	.L6
 172              	.LVL8:
 173              	.L33:
 234:Drivers/STM32F4xx_HAL_Driver/Src/stm32f4xx_hal_gpio.c ****         /* Configure the IO Speed */
 174              		.loc 1 234 0 discriminator 1
 175 00ce EA21     		movs	r1, #234
 176 00d0 8548     		ldr	r0, .L35+4
 177 00d2 FFF7FEFF 		bl	assert_failed
 178              	.LVL9:
 179 00d6 96E0     		b	.L14
 180              	.LVL10:
 181              	.L34:
 182              		.loc 1 263 0
 183 00d8 0723     		movs	r3, #7
 184 00da 00E0     		b	.L15
 185              	.L21:
 186 00dc 0023     		movs	r3, #0
 187              	.L15:
 188              		.loc 1 263 0 is_stmt 0 discriminator 32
 189 00de 8B40     		lsls	r3, r3, r1
 190 00e0 0343     		orrs	r3, r3, r0
 191              	.LVL11:
ARM GAS  C:\Users\n-is\AppData\Local\Temp\cczOBJcu.s 			page 9


 264:Drivers/STM32F4xx_HAL_Driver/Src/stm32f4xx_hal_gpio.c ****         SYSCFG->EXTICR[position >> 2U] = temp;
 192              		.loc 1 264 0 is_stmt 1 discriminator 32
 193 00e2 0232     		adds	r2, r2, #2
 194 00e4 8249     		ldr	r1, .L35+12
 195 00e6 41F82230 		str	r3, [r1, r2, lsl #2]
 265:Drivers/STM32F4xx_HAL_Driver/Src/stm32f4xx_hal_gpio.c **** 
 266:Drivers/STM32F4xx_HAL_Driver/Src/stm32f4xx_hal_gpio.c ****         /* Clear EXTI line configuration */
 267:Drivers/STM32F4xx_HAL_Driver/Src/stm32f4xx_hal_gpio.c ****         temp = EXTI->IMR;
 196              		.loc 1 267 0 discriminator 32
 197 00ea 824B     		ldr	r3, .L35+16
 198              	.LVL12:
 199 00ec 1A68     		ldr	r2, [r3]
 200              	.LVL13:
 268:Drivers/STM32F4xx_HAL_Driver/Src/stm32f4xx_hal_gpio.c ****         temp &= ~((uint32_t)iocurrent);
 201              		.loc 1 268 0 discriminator 32
 202 00ee FB43     		mvns	r3, r7
 203 00f0 03EA0201 		and	r1, r3, r2
 204              	.LVL14:
 269:Drivers/STM32F4xx_HAL_Driver/Src/stm32f4xx_hal_gpio.c ****         if((GPIO_Init->Mode & GPIO_MODE_IT) == GPIO_MODE_IT)
 205              		.loc 1 269 0 discriminator 32
 206 00f4 7068     		ldr	r0, [r6, #4]
 207 00f6 10F4803F 		tst	r0, #65536
 208 00fa 01D0     		beq	.L16
 270:Drivers/STM32F4xx_HAL_Driver/Src/stm32f4xx_hal_gpio.c ****         {
 271:Drivers/STM32F4xx_HAL_Driver/Src/stm32f4xx_hal_gpio.c ****           temp |= iocurrent;
 209              		.loc 1 271 0
 210 00fc 47EA0201 		orr	r1, r7, r2
 211              	.LVL15:
 212              	.L16:
 272:Drivers/STM32F4xx_HAL_Driver/Src/stm32f4xx_hal_gpio.c ****         }
 273:Drivers/STM32F4xx_HAL_Driver/Src/stm32f4xx_hal_gpio.c ****         EXTI->IMR = temp;
 213              		.loc 1 273 0
 214 0100 7C4A     		ldr	r2, .L35+16
 215 0102 1160     		str	r1, [r2]
 274:Drivers/STM32F4xx_HAL_Driver/Src/stm32f4xx_hal_gpio.c **** 
 275:Drivers/STM32F4xx_HAL_Driver/Src/stm32f4xx_hal_gpio.c ****         temp = EXTI->EMR;
 216              		.loc 1 275 0
 217 0104 5268     		ldr	r2, [r2, #4]
 218              	.LVL16:
 276:Drivers/STM32F4xx_HAL_Driver/Src/stm32f4xx_hal_gpio.c ****         temp &= ~((uint32_t)iocurrent);
 219              		.loc 1 276 0
 220 0106 03EA0201 		and	r1, r3, r2
 221              	.LVL17:
 277:Drivers/STM32F4xx_HAL_Driver/Src/stm32f4xx_hal_gpio.c ****         if((GPIO_Init->Mode & GPIO_MODE_EVT) == GPIO_MODE_EVT)
 222              		.loc 1 277 0
 223 010a 7068     		ldr	r0, [r6, #4]
 224 010c 10F4003F 		tst	r0, #131072
 225 0110 01D0     		beq	.L17
 278:Drivers/STM32F4xx_HAL_Driver/Src/stm32f4xx_hal_gpio.c ****         {
 279:Drivers/STM32F4xx_HAL_Driver/Src/stm32f4xx_hal_gpio.c ****           temp |= iocurrent;
 226              		.loc 1 279 0
 227 0112 47EA0201 		orr	r1, r7, r2
 228              	.LVL18:
 229              	.L17:
 280:Drivers/STM32F4xx_HAL_Driver/Src/stm32f4xx_hal_gpio.c ****         }
 281:Drivers/STM32F4xx_HAL_Driver/Src/stm32f4xx_hal_gpio.c ****         EXTI->EMR = temp;
 230              		.loc 1 281 0
ARM GAS  C:\Users\n-is\AppData\Local\Temp\cczOBJcu.s 			page 10


 231 0116 774A     		ldr	r2, .L35+16
 232 0118 5160     		str	r1, [r2, #4]
 282:Drivers/STM32F4xx_HAL_Driver/Src/stm32f4xx_hal_gpio.c **** 
 283:Drivers/STM32F4xx_HAL_Driver/Src/stm32f4xx_hal_gpio.c ****         /* Clear Rising Falling edge configuration */
 284:Drivers/STM32F4xx_HAL_Driver/Src/stm32f4xx_hal_gpio.c ****         temp = EXTI->RTSR;
 233              		.loc 1 284 0
 234 011a 9268     		ldr	r2, [r2, #8]
 235              	.LVL19:
 285:Drivers/STM32F4xx_HAL_Driver/Src/stm32f4xx_hal_gpio.c ****         temp &= ~((uint32_t)iocurrent);
 236              		.loc 1 285 0
 237 011c 03EA0201 		and	r1, r3, r2
 238              	.LVL20:
 286:Drivers/STM32F4xx_HAL_Driver/Src/stm32f4xx_hal_gpio.c ****         if((GPIO_Init->Mode & RISING_EDGE) == RISING_EDGE)
 239              		.loc 1 286 0
 240 0120 7068     		ldr	r0, [r6, #4]
 241 0122 10F4801F 		tst	r0, #1048576
 242 0126 01D0     		beq	.L18
 287:Drivers/STM32F4xx_HAL_Driver/Src/stm32f4xx_hal_gpio.c ****         {
 288:Drivers/STM32F4xx_HAL_Driver/Src/stm32f4xx_hal_gpio.c ****           temp |= iocurrent;
 243              		.loc 1 288 0
 244 0128 47EA0201 		orr	r1, r7, r2
 245              	.LVL21:
 246              	.L18:
 289:Drivers/STM32F4xx_HAL_Driver/Src/stm32f4xx_hal_gpio.c ****         }
 290:Drivers/STM32F4xx_HAL_Driver/Src/stm32f4xx_hal_gpio.c ****         EXTI->RTSR = temp;
 247              		.loc 1 290 0
 248 012c 714A     		ldr	r2, .L35+16
 249 012e 9160     		str	r1, [r2, #8]
 291:Drivers/STM32F4xx_HAL_Driver/Src/stm32f4xx_hal_gpio.c **** 
 292:Drivers/STM32F4xx_HAL_Driver/Src/stm32f4xx_hal_gpio.c ****         temp = EXTI->FTSR;
 250              		.loc 1 292 0
 251 0130 D268     		ldr	r2, [r2, #12]
 252              	.LVL22:
 293:Drivers/STM32F4xx_HAL_Driver/Src/stm32f4xx_hal_gpio.c ****         temp &= ~((uint32_t)iocurrent);
 253              		.loc 1 293 0
 254 0132 1340     		ands	r3, r3, r2
 255              	.LVL23:
 294:Drivers/STM32F4xx_HAL_Driver/Src/stm32f4xx_hal_gpio.c ****         if((GPIO_Init->Mode & FALLING_EDGE) == FALLING_EDGE)
 256              		.loc 1 294 0
 257 0134 7168     		ldr	r1, [r6, #4]
 258 0136 11F4001F 		tst	r1, #2097152
 259 013a 01D0     		beq	.L19
 295:Drivers/STM32F4xx_HAL_Driver/Src/stm32f4xx_hal_gpio.c ****         {
 296:Drivers/STM32F4xx_HAL_Driver/Src/stm32f4xx_hal_gpio.c ****           temp |= iocurrent;
 260              		.loc 1 296 0
 261 013c 47EA0203 		orr	r3, r7, r2
 262              	.LVL24:
 263              	.L19:
 297:Drivers/STM32F4xx_HAL_Driver/Src/stm32f4xx_hal_gpio.c ****         }
 298:Drivers/STM32F4xx_HAL_Driver/Src/stm32f4xx_hal_gpio.c ****         EXTI->FTSR = temp;
 264              		.loc 1 298 0
 265 0140 6C4A     		ldr	r2, .L35+16
 266 0142 D360     		str	r3, [r2, #12]
 267              	.LVL25:
 268              	.L8:
 201:Drivers/STM32F4xx_HAL_Driver/Src/stm32f4xx_hal_gpio.c ****   {
 269              		.loc 1 201 0 discriminator 2
ARM GAS  C:\Users\n-is\AppData\Local\Temp\cczOBJcu.s 			page 11


 270 0144 0134     		adds	r4, r4, #1
 271              	.LVL26:
 272              	.L7:
 201:Drivers/STM32F4xx_HAL_Driver/Src/stm32f4xx_hal_gpio.c ****   {
 273              		.loc 1 201 0 is_stmt 0 discriminator 1
 274 0146 0F2C     		cmp	r4, #15
 275 0148 00F2C980 		bhi	.L32
 204:Drivers/STM32F4xx_HAL_Driver/Src/stm32f4xx_hal_gpio.c ****     /* Get the current IO position */
 276              		.loc 1 204 0 is_stmt 1
 277 014c 0125     		movs	r5, #1
 278 014e A540     		lsls	r5, r5, r4
 279              	.LVL27:
 206:Drivers/STM32F4xx_HAL_Driver/Src/stm32f4xx_hal_gpio.c **** 
 280              		.loc 1 206 0
 281 0150 3768     		ldr	r7, [r6]
 282 0152 2F40     		ands	r7, r7, r5
 283              	.LVL28:
 208:Drivers/STM32F4xx_HAL_Driver/Src/stm32f4xx_hal_gpio.c ****     {
 284              		.loc 1 208 0
 285 0154 BD42     		cmp	r5, r7
 286 0156 F5D1     		bne	.L8
 212:Drivers/STM32F4xx_HAL_Driver/Src/stm32f4xx_hal_gpio.c ****       {
 287              		.loc 1 212 0
 288 0158 7368     		ldr	r3, [r6, #4]
 289 015a 022B     		cmp	r3, #2
 290 015c 01D0     		beq	.L9
 212:Drivers/STM32F4xx_HAL_Driver/Src/stm32f4xx_hal_gpio.c ****       {
 291              		.loc 1 212 0 is_stmt 0 discriminator 1
 292 015e 122B     		cmp	r3, #18
 293 0160 31D1     		bne	.L10
 294              	.L9:
 215:Drivers/STM32F4xx_HAL_Driver/Src/stm32f4xx_hal_gpio.c ****         /* Configure Alternate function mapped with the current IO */
 295              		.loc 1 215 0 is_stmt 1
 296 0162 3369     		ldr	r3, [r6, #16]
 297 0164 FBB1     		cbz	r3, .L11
 215:Drivers/STM32F4xx_HAL_Driver/Src/stm32f4xx_hal_gpio.c ****         /* Configure Alternate function mapped with the current IO */
 298              		.loc 1 215 0 is_stmt 0 discriminator 1
 299 0166 092B     		cmp	r3, #9
 300 0168 1DD0     		beq	.L11
 215:Drivers/STM32F4xx_HAL_Driver/Src/stm32f4xx_hal_gpio.c ****         /* Configure Alternate function mapped with the current IO */
 301              		.loc 1 215 0 discriminator 6
 302 016a 012B     		cmp	r3, #1
 303 016c 1BD0     		beq	.L11
 215:Drivers/STM32F4xx_HAL_Driver/Src/stm32f4xx_hal_gpio.c ****         /* Configure Alternate function mapped with the current IO */
 304              		.loc 1 215 0 discriminator 8
 305 016e 022B     		cmp	r3, #2
 306 0170 19D0     		beq	.L11
 215:Drivers/STM32F4xx_HAL_Driver/Src/stm32f4xx_hal_gpio.c ****         /* Configure Alternate function mapped with the current IO */
 307              		.loc 1 215 0 discriminator 11
 308 0172 032B     		cmp	r3, #3
 309 0174 17D0     		beq	.L11
 215:Drivers/STM32F4xx_HAL_Driver/Src/stm32f4xx_hal_gpio.c ****         /* Configure Alternate function mapped with the current IO */
 310              		.loc 1 215 0 discriminator 12
 311 0176 042B     		cmp	r3, #4
 312 0178 15D0     		beq	.L11
 215:Drivers/STM32F4xx_HAL_Driver/Src/stm32f4xx_hal_gpio.c ****         /* Configure Alternate function mapped with the current IO */
 313              		.loc 1 215 0 discriminator 15
ARM GAS  C:\Users\n-is\AppData\Local\Temp\cczOBJcu.s 			page 12


 314 017a 052B     		cmp	r3, #5
 315 017c 13D0     		beq	.L11
 215:Drivers/STM32F4xx_HAL_Driver/Src/stm32f4xx_hal_gpio.c ****         /* Configure Alternate function mapped with the current IO */
 316              		.loc 1 215 0 discriminator 18
 317 017e 062B     		cmp	r3, #6
 318 0180 11D0     		beq	.L11
 215:Drivers/STM32F4xx_HAL_Driver/Src/stm32f4xx_hal_gpio.c ****         /* Configure Alternate function mapped with the current IO */
 319              		.loc 1 215 0 discriminator 20
 320 0182 072B     		cmp	r3, #7
 321 0184 0FD0     		beq	.L11
 215:Drivers/STM32F4xx_HAL_Driver/Src/stm32f4xx_hal_gpio.c ****         /* Configure Alternate function mapped with the current IO */
 322              		.loc 1 215 0 discriminator 23
 323 0186 082B     		cmp	r3, #8
 324 0188 0DD0     		beq	.L11
 215:Drivers/STM32F4xx_HAL_Driver/Src/stm32f4xx_hal_gpio.c ****         /* Configure Alternate function mapped with the current IO */
 325              		.loc 1 215 0 discriminator 28
 326 018a 0A2B     		cmp	r3, #10
 327 018c 0BD0     		beq	.L11
 215:Drivers/STM32F4xx_HAL_Driver/Src/stm32f4xx_hal_gpio.c ****         /* Configure Alternate function mapped with the current IO */
 328              		.loc 1 215 0 discriminator 30
 329 018e 0B2B     		cmp	r3, #11
 330 0190 09D0     		beq	.L11
 215:Drivers/STM32F4xx_HAL_Driver/Src/stm32f4xx_hal_gpio.c ****         /* Configure Alternate function mapped with the current IO */
 331              		.loc 1 215 0 discriminator 31
 332 0192 0C2B     		cmp	r3, #12
 333 0194 07D0     		beq	.L11
 215:Drivers/STM32F4xx_HAL_Driver/Src/stm32f4xx_hal_gpio.c ****         /* Configure Alternate function mapped with the current IO */
 334              		.loc 1 215 0 discriminator 33
 335 0196 0D2B     		cmp	r3, #13
 336 0198 05D0     		beq	.L11
 215:Drivers/STM32F4xx_HAL_Driver/Src/stm32f4xx_hal_gpio.c ****         /* Configure Alternate function mapped with the current IO */
 337              		.loc 1 215 0 discriminator 35
 338 019a 0F2B     		cmp	r3, #15
 339 019c 03D0     		beq	.L11
 215:Drivers/STM32F4xx_HAL_Driver/Src/stm32f4xx_hal_gpio.c ****         /* Configure Alternate function mapped with the current IO */
 340              		.loc 1 215 0 discriminator 36
 341 019e D721     		movs	r1, #215
 342 01a0 5148     		ldr	r0, .L35+4
 343 01a2 FFF7FEFF 		bl	assert_failed
 344              	.LVL29:
 345              	.L11:
 217:Drivers/STM32F4xx_HAL_Driver/Src/stm32f4xx_hal_gpio.c ****         temp &= ~(0xFU << ((uint32_t)(position & 0x07U) * 4U)) ;
 346              		.loc 1 217 0 is_stmt 1
 347 01a6 E208     		lsrs	r2, r4, #3
 348 01a8 0832     		adds	r2, r2, #8
 349 01aa 58F82200 		ldr	r0, [r8, r2, lsl #2]
 350              	.LVL30:
 218:Drivers/STM32F4xx_HAL_Driver/Src/stm32f4xx_hal_gpio.c ****         temp |= ((uint32_t)(GPIO_Init->Alternate) << (((uint32_t)position & 0x07U) * 4U));
 351              		.loc 1 218 0
 352 01ae 04F00703 		and	r3, r4, #7
 353 01b2 9900     		lsls	r1, r3, #2
 354 01b4 0F23     		movs	r3, #15
 355 01b6 8B40     		lsls	r3, r3, r1
 356 01b8 20EA0300 		bic	r0, r0, r3
 357              	.LVL31:
 219:Drivers/STM32F4xx_HAL_Driver/Src/stm32f4xx_hal_gpio.c ****         GPIOx->AFR[position >> 3U] = temp;
 358              		.loc 1 219 0
ARM GAS  C:\Users\n-is\AppData\Local\Temp\cczOBJcu.s 			page 13


 359 01bc 3369     		ldr	r3, [r6, #16]
 360 01be 8B40     		lsls	r3, r3, r1
 361 01c0 0343     		orrs	r3, r3, r0
 362              	.LVL32:
 220:Drivers/STM32F4xx_HAL_Driver/Src/stm32f4xx_hal_gpio.c ****       }
 363              		.loc 1 220 0
 364 01c2 48F82230 		str	r3, [r8, r2, lsl #2]
 365              	.LVL33:
 366              	.L10:
 224:Drivers/STM32F4xx_HAL_Driver/Src/stm32f4xx_hal_gpio.c ****       temp &= ~(GPIO_MODER_MODER0 << (position * 2U));
 367              		.loc 1 224 0
 368 01c6 D8F80020 		ldr	r2, [r8]
 369              	.LVL34:
 225:Drivers/STM32F4xx_HAL_Driver/Src/stm32f4xx_hal_gpio.c ****       temp |= ((GPIO_Init->Mode & GPIO_MODE) << (position * 2U));
 370              		.loc 1 225 0
 371 01ca 4FEA440A 		lsl	r10, r4, #1
 372 01ce 4FF00309 		mov	r9, #3
 373 01d2 09FA0AF9 		lsl	r9, r9, r10
 374 01d6 6FEA0909 		mvn	r9, r9
 375 01da 09EA0202 		and	r2, r9, r2
 376              	.LVL35:
 226:Drivers/STM32F4xx_HAL_Driver/Src/stm32f4xx_hal_gpio.c ****       GPIOx->MODER = temp;
 377              		.loc 1 226 0
 378 01de 7368     		ldr	r3, [r6, #4]
 379 01e0 03F00303 		and	r3, r3, #3
 380 01e4 03FA0AF3 		lsl	r3, r3, r10
 381 01e8 1343     		orrs	r3, r3, r2
 382              	.LVL36:
 227:Drivers/STM32F4xx_HAL_Driver/Src/stm32f4xx_hal_gpio.c **** 
 383              		.loc 1 227 0
 384 01ea C8F80030 		str	r3, [r8]
 230:Drivers/STM32F4xx_HAL_Driver/Src/stm32f4xx_hal_gpio.c ****          (GPIO_Init->Mode == GPIO_MODE_OUTPUT_OD) || (GPIO_Init->Mode == GPIO_MODE_AF_OD))
 385              		.loc 1 230 0
 386 01ee 7368     		ldr	r3, [r6, #4]
 387              	.LVL37:
 388 01f0 5A1E     		subs	r2, r3, #1
 389 01f2 012A     		cmp	r2, #1
 390 01f4 03D9     		bls	.L12
 230:Drivers/STM32F4xx_HAL_Driver/Src/stm32f4xx_hal_gpio.c ****          (GPIO_Init->Mode == GPIO_MODE_OUTPUT_OD) || (GPIO_Init->Mode == GPIO_MODE_AF_OD))
 391              		.loc 1 230 0 is_stmt 0 discriminator 1
 392 01f6 112B     		cmp	r3, #17
 393 01f8 01D0     		beq	.L12
 231:Drivers/STM32F4xx_HAL_Driver/Src/stm32f4xx_hal_gpio.c ****       {
 394              		.loc 1 231 0 is_stmt 1
 395 01fa 122B     		cmp	r3, #18
 396 01fc 18D1     		bne	.L13
 397              	.L12:
 234:Drivers/STM32F4xx_HAL_Driver/Src/stm32f4xx_hal_gpio.c ****         /* Configure the IO Speed */
 398              		.loc 1 234 0
 399 01fe F368     		ldr	r3, [r6, #12]
 400 0200 032B     		cmp	r3, #3
 401 0202 3FF664AF 		bhi	.L33
 402              	.LVL38:
 403              	.L14:
 236:Drivers/STM32F4xx_HAL_Driver/Src/stm32f4xx_hal_gpio.c ****         temp &= ~(GPIO_OSPEEDER_OSPEEDR0 << (position * 2U));
 404              		.loc 1 236 0
 405 0206 D8F80820 		ldr	r2, [r8, #8]
ARM GAS  C:\Users\n-is\AppData\Local\Temp\cczOBJcu.s 			page 14


 406              	.LVL39:
 237:Drivers/STM32F4xx_HAL_Driver/Src/stm32f4xx_hal_gpio.c ****         temp |= (GPIO_Init->Speed << (position * 2U));
 407              		.loc 1 237 0
 408 020a 09EA0202 		and	r2, r9, r2
 409              	.LVL40:
 238:Drivers/STM32F4xx_HAL_Driver/Src/stm32f4xx_hal_gpio.c ****         GPIOx->OSPEEDR = temp;
 410              		.loc 1 238 0
 411 020e F368     		ldr	r3, [r6, #12]
 412 0210 03FA0AF3 		lsl	r3, r3, r10
 413 0214 1343     		orrs	r3, r3, r2
 414              	.LVL41:
 239:Drivers/STM32F4xx_HAL_Driver/Src/stm32f4xx_hal_gpio.c **** 
 415              		.loc 1 239 0
 416 0216 C8F80830 		str	r3, [r8, #8]
 242:Drivers/STM32F4xx_HAL_Driver/Src/stm32f4xx_hal_gpio.c ****         temp &= ~(GPIO_OTYPER_OT_0 << position) ;
 417              		.loc 1 242 0
 418 021a D8F80420 		ldr	r2, [r8, #4]
 419              	.LVL42:
 243:Drivers/STM32F4xx_HAL_Driver/Src/stm32f4xx_hal_gpio.c ****         temp |= (((GPIO_Init->Mode & GPIO_OUTPUT_TYPE) >> 4U) << position);
 420              		.loc 1 243 0
 421 021e 22EA0502 		bic	r2, r2, r5
 422              	.LVL43:
 244:Drivers/STM32F4xx_HAL_Driver/Src/stm32f4xx_hal_gpio.c ****         GPIOx->OTYPER = temp;
 423              		.loc 1 244 0
 424 0222 7368     		ldr	r3, [r6, #4]
 425 0224 C3F30015 		ubfx	r5, r3, #4, #1
 426              	.LVL44:
 427 0228 A540     		lsls	r5, r5, r4
 428 022a 1543     		orrs	r5, r5, r2
 429              	.LVL45:
 245:Drivers/STM32F4xx_HAL_Driver/Src/stm32f4xx_hal_gpio.c ****       }
 430              		.loc 1 245 0
 431 022c C8F80450 		str	r5, [r8, #4]
 432              	.LVL46:
 433              	.L13:
 249:Drivers/STM32F4xx_HAL_Driver/Src/stm32f4xx_hal_gpio.c ****       temp &= ~(GPIO_PUPDR_PUPDR0 << (position * 2U));
 434              		.loc 1 249 0
 435 0230 D8F80C30 		ldr	r3, [r8, #12]
 436              	.LVL47:
 250:Drivers/STM32F4xx_HAL_Driver/Src/stm32f4xx_hal_gpio.c ****       temp |= ((GPIO_Init->Pull) << (position * 2U));
 437              		.loc 1 250 0
 438 0234 09EA0309 		and	r9, r9, r3
 439              	.LVL48:
 251:Drivers/STM32F4xx_HAL_Driver/Src/stm32f4xx_hal_gpio.c ****       GPIOx->PUPDR = temp;
 440              		.loc 1 251 0
 441 0238 B368     		ldr	r3, [r6, #8]
 442 023a 03FA0AF3 		lsl	r3, r3, r10
 443 023e 43EA0903 		orr	r3, r3, r9
 444              	.LVL49:
 252:Drivers/STM32F4xx_HAL_Driver/Src/stm32f4xx_hal_gpio.c **** 
 445              		.loc 1 252 0
 446 0242 C8F80C30 		str	r3, [r8, #12]
 256:Drivers/STM32F4xx_HAL_Driver/Src/stm32f4xx_hal_gpio.c ****       {
 447              		.loc 1 256 0
 448 0246 7368     		ldr	r3, [r6, #4]
 449              	.LVL50:
 450 0248 13F0805F 		tst	r3, #268435456
ARM GAS  C:\Users\n-is\AppData\Local\Temp\cczOBJcu.s 			page 15


 451 024c 3FF47AAF 		beq	.L8
 452              	.LBB2:
 259:Drivers/STM32F4xx_HAL_Driver/Src/stm32f4xx_hal_gpio.c **** 
 453              		.loc 1 259 0
 454 0250 0023     		movs	r3, #0
 455 0252 0193     		str	r3, [sp, #4]
 456              	.LVL51:
 457 0254 284B     		ldr	r3, .L35+20
 458 0256 5A6C     		ldr	r2, [r3, #68]
 459 0258 42F48042 		orr	r2, r2, #16384
 460 025c 5A64     		str	r2, [r3, #68]
 461 025e 5B6C     		ldr	r3, [r3, #68]
 462 0260 03F48043 		and	r3, r3, #16384
 463 0264 0193     		str	r3, [sp, #4]
 464 0266 019B     		ldr	r3, [sp, #4]
 465              	.LBE2:
 261:Drivers/STM32F4xx_HAL_Driver/Src/stm32f4xx_hal_gpio.c ****         temp &= ~(0x0FU << (4U * (position & 0x03U)));
 466              		.loc 1 261 0
 467 0268 A208     		lsrs	r2, r4, #2
 468 026a 911C     		adds	r1, r2, #2
 469 026c 204B     		ldr	r3, .L35+12
 470 026e 53F82100 		ldr	r0, [r3, r1, lsl #2]
 471              	.LVL52:
 262:Drivers/STM32F4xx_HAL_Driver/Src/stm32f4xx_hal_gpio.c ****         temp |= ((uint32_t)(GPIO_GET_INDEX(GPIOx)) << (4U * (position & 0x03U)));
 472              		.loc 1 262 0
 473 0272 04F00303 		and	r3, r4, #3
 474 0276 9900     		lsls	r1, r3, #2
 475 0278 0F23     		movs	r3, #15
 476 027a 8B40     		lsls	r3, r3, r1
 477 027c 20EA0300 		bic	r0, r0, r3
 478              	.LVL53:
 263:Drivers/STM32F4xx_HAL_Driver/Src/stm32f4xx_hal_gpio.c ****         SYSCFG->EXTICR[position >> 2U] = temp;
 479              		.loc 1 263 0
 480 0280 184B     		ldr	r3, .L35
 481 0282 9845     		cmp	r8, r3
 482 0284 3FF42AAF 		beq	.L21
 263:Drivers/STM32F4xx_HAL_Driver/Src/stm32f4xx_hal_gpio.c ****         SYSCFG->EXTICR[position >> 2U] = temp;
 483              		.loc 1 263 0 is_stmt 0 discriminator 1
 484 0288 03F58063 		add	r3, r3, #1024
 485 028c 9845     		cmp	r8, r3
 486 028e 1AD0     		beq	.L22
 263:Drivers/STM32F4xx_HAL_Driver/Src/stm32f4xx_hal_gpio.c ****         SYSCFG->EXTICR[position >> 2U] = temp;
 487              		.loc 1 263 0 discriminator 3
 488 0290 03F58063 		add	r3, r3, #1024
 489 0294 9845     		cmp	r8, r3
 490 0296 18D0     		beq	.L23
 263:Drivers/STM32F4xx_HAL_Driver/Src/stm32f4xx_hal_gpio.c ****         SYSCFG->EXTICR[position >> 2U] = temp;
 491              		.loc 1 263 0 discriminator 5
 492 0298 03F58063 		add	r3, r3, #1024
 493 029c 9845     		cmp	r8, r3
 494 029e 16D0     		beq	.L24
 263:Drivers/STM32F4xx_HAL_Driver/Src/stm32f4xx_hal_gpio.c ****         SYSCFG->EXTICR[position >> 2U] = temp;
 495              		.loc 1 263 0 discriminator 7
 496 02a0 03F58063 		add	r3, r3, #1024
 497 02a4 9845     		cmp	r8, r3
 498 02a6 14D0     		beq	.L25
 263:Drivers/STM32F4xx_HAL_Driver/Src/stm32f4xx_hal_gpio.c ****         SYSCFG->EXTICR[position >> 2U] = temp;
ARM GAS  C:\Users\n-is\AppData\Local\Temp\cczOBJcu.s 			page 16


 499              		.loc 1 263 0 discriminator 9
 500 02a8 03F58063 		add	r3, r3, #1024
 501 02ac 9845     		cmp	r8, r3
 502 02ae 12D0     		beq	.L26
 263:Drivers/STM32F4xx_HAL_Driver/Src/stm32f4xx_hal_gpio.c ****         SYSCFG->EXTICR[position >> 2U] = temp;
 503              		.loc 1 263 0 discriminator 11
 504 02b0 03F58063 		add	r3, r3, #1024
 505 02b4 9845     		cmp	r8, r3
 506 02b6 10D0     		beq	.L27
 263:Drivers/STM32F4xx_HAL_Driver/Src/stm32f4xx_hal_gpio.c ****         SYSCFG->EXTICR[position >> 2U] = temp;
 507              		.loc 1 263 0 discriminator 13
 508 02b8 03F58063 		add	r3, r3, #1024
 509 02bc 9845     		cmp	r8, r3
 510 02be 3FF40BAF 		beq	.L34
 263:Drivers/STM32F4xx_HAL_Driver/Src/stm32f4xx_hal_gpio.c ****         SYSCFG->EXTICR[position >> 2U] = temp;
 511              		.loc 1 263 0
 512 02c2 0823     		movs	r3, #8
 513 02c4 0BE7     		b	.L15
 514              	.L22:
 515 02c6 0123     		movs	r3, #1
 516              	.LVL54:
 517 02c8 09E7     		b	.L15
 518              	.LVL55:
 519              	.L23:
 520 02ca 0223     		movs	r3, #2
 521 02cc 07E7     		b	.L15
 522              	.L24:
 523 02ce 0323     		movs	r3, #3
 524 02d0 05E7     		b	.L15
 525              	.L25:
 526 02d2 0423     		movs	r3, #4
 527 02d4 03E7     		b	.L15
 528              	.L26:
 529 02d6 0523     		movs	r3, #5
 530 02d8 01E7     		b	.L15
 531              	.L27:
 532 02da 0623     		movs	r3, #6
 533 02dc FFE6     		b	.L15
 534              	.LVL56:
 535              	.L32:
 299:Drivers/STM32F4xx_HAL_Driver/Src/stm32f4xx_hal_gpio.c ****       }
 300:Drivers/STM32F4xx_HAL_Driver/Src/stm32f4xx_hal_gpio.c ****     }
 301:Drivers/STM32F4xx_HAL_Driver/Src/stm32f4xx_hal_gpio.c ****   }
 302:Drivers/STM32F4xx_HAL_Driver/Src/stm32f4xx_hal_gpio.c **** }
 536              		.loc 1 302 0 is_stmt 1
 537 02de 02B0     		add	sp, sp, #8
 538              	.LCFI2:
 539              		.cfi_def_cfa_offset 32
 540              		@ sp needed
 541 02e0 BDE8F087 		pop	{r4, r5, r6, r7, r8, r9, r10, pc}
 542              	.LVL57:
 543              	.L36:
 544              		.align	2
 545              	.L35:
 546 02e4 00000240 		.word	1073872896
 547 02e8 00000000 		.word	.LC0
 548 02ec 00001110 		.word	269549568
ARM GAS  C:\Users\n-is\AppData\Local\Temp\cczOBJcu.s 			page 17


 549 02f0 00380140 		.word	1073821696
 550 02f4 003C0140 		.word	1073822720
 551 02f8 00380240 		.word	1073887232
 552              		.cfi_endproc
 553              	.LFE126:
 555              		.section	.text.HAL_GPIO_DeInit,"ax",%progbits
 556              		.align	1
 557              		.global	HAL_GPIO_DeInit
 558              		.syntax unified
 559              		.thumb
 560              		.thumb_func
 561              		.fpu fpv4-sp-d16
 563              	HAL_GPIO_DeInit:
 564              	.LFB127:
 303:Drivers/STM32F4xx_HAL_Driver/Src/stm32f4xx_hal_gpio.c **** 
 304:Drivers/STM32F4xx_HAL_Driver/Src/stm32f4xx_hal_gpio.c **** /**
 305:Drivers/STM32F4xx_HAL_Driver/Src/stm32f4xx_hal_gpio.c ****   * @brief  De-initializes the GPIOx peripheral registers to their default reset values.
 306:Drivers/STM32F4xx_HAL_Driver/Src/stm32f4xx_hal_gpio.c ****   * @param  GPIOx where x can be (A..K) to select the GPIO peripheral for STM32F429X device or
 307:Drivers/STM32F4xx_HAL_Driver/Src/stm32f4xx_hal_gpio.c ****   *                      x can be (A..I) to select the GPIO peripheral for STM32F40XX and STM32F427
 308:Drivers/STM32F4xx_HAL_Driver/Src/stm32f4xx_hal_gpio.c ****   * @param  GPIO_Pin specifies the port bit to be written.
 309:Drivers/STM32F4xx_HAL_Driver/Src/stm32f4xx_hal_gpio.c ****   *          This parameter can be one of GPIO_PIN_x where x can be (0..15).
 310:Drivers/STM32F4xx_HAL_Driver/Src/stm32f4xx_hal_gpio.c ****   * @retval None
 311:Drivers/STM32F4xx_HAL_Driver/Src/stm32f4xx_hal_gpio.c ****   */
 312:Drivers/STM32F4xx_HAL_Driver/Src/stm32f4xx_hal_gpio.c **** void HAL_GPIO_DeInit(GPIO_TypeDef  *GPIOx, uint32_t GPIO_Pin)
 313:Drivers/STM32F4xx_HAL_Driver/Src/stm32f4xx_hal_gpio.c **** {
 565              		.loc 1 313 0
 566              		.cfi_startproc
 567              		@ args = 0, pretend = 0, frame = 0
 568              		@ frame_needed = 0, uses_anonymous_args = 0
 569              	.LVL58:
 570 0000 F8B5     		push	{r3, r4, r5, r6, r7, lr}
 571              	.LCFI3:
 572              		.cfi_def_cfa_offset 24
 573              		.cfi_offset 3, -24
 574              		.cfi_offset 4, -20
 575              		.cfi_offset 5, -16
 576              		.cfi_offset 6, -12
 577              		.cfi_offset 7, -8
 578              		.cfi_offset 14, -4
 579 0002 0446     		mov	r4, r0
 580 0004 0D46     		mov	r5, r1
 581              	.LVL59:
 314:Drivers/STM32F4xx_HAL_Driver/Src/stm32f4xx_hal_gpio.c ****   uint32_t position;
 315:Drivers/STM32F4xx_HAL_Driver/Src/stm32f4xx_hal_gpio.c ****   uint32_t ioposition = 0x00U;
 316:Drivers/STM32F4xx_HAL_Driver/Src/stm32f4xx_hal_gpio.c ****   uint32_t iocurrent = 0x00U;
 317:Drivers/STM32F4xx_HAL_Driver/Src/stm32f4xx_hal_gpio.c ****   uint32_t tmp = 0x00U;
 318:Drivers/STM32F4xx_HAL_Driver/Src/stm32f4xx_hal_gpio.c **** 
 319:Drivers/STM32F4xx_HAL_Driver/Src/stm32f4xx_hal_gpio.c ****   /* Check the parameters */
 320:Drivers/STM32F4xx_HAL_Driver/Src/stm32f4xx_hal_gpio.c ****   assert_param(IS_GPIO_ALL_INSTANCE(GPIOx));
 582              		.loc 1 320 0
 583 0006 564B     		ldr	r3, .L55
 584 0008 9842     		cmp	r0, r3
 585 000a 24D0     		beq	.L38
 586              		.loc 1 320 0 is_stmt 0 discriminator 1
 587 000c 03F58063 		add	r3, r3, #1024
 588 0010 9842     		cmp	r0, r3
 589 0012 20D0     		beq	.L38
ARM GAS  C:\Users\n-is\AppData\Local\Temp\cczOBJcu.s 			page 18


 590              		.loc 1 320 0 discriminator 2
 591 0014 03F58063 		add	r3, r3, #1024
 592 0018 9842     		cmp	r0, r3
 593 001a 1CD0     		beq	.L38
 594              		.loc 1 320 0 discriminator 3
 595 001c 03F58063 		add	r3, r3, #1024
 596 0020 9842     		cmp	r0, r3
 597 0022 18D0     		beq	.L38
 598              		.loc 1 320 0 discriminator 4
 599 0024 03F58063 		add	r3, r3, #1024
 600 0028 9842     		cmp	r0, r3
 601 002a 14D0     		beq	.L38
 602              		.loc 1 320 0 discriminator 5
 603 002c 03F58063 		add	r3, r3, #1024
 604 0030 9842     		cmp	r0, r3
 605 0032 10D0     		beq	.L38
 606              		.loc 1 320 0 discriminator 6
 607 0034 03F58063 		add	r3, r3, #1024
 608 0038 9842     		cmp	r0, r3
 609 003a 0CD0     		beq	.L38
 610              		.loc 1 320 0 discriminator 7
 611 003c 03F58063 		add	r3, r3, #1024
 612 0040 9842     		cmp	r0, r3
 613 0042 08D0     		beq	.L38
 614              		.loc 1 320 0 discriminator 8
 615 0044 03F58063 		add	r3, r3, #1024
 616 0048 9842     		cmp	r0, r3
 617 004a 04D0     		beq	.L38
 618              		.loc 1 320 0 discriminator 9
 619 004c 4FF4A071 		mov	r1, #320
 620              	.LVL60:
 621 0050 4448     		ldr	r0, .L55+4
 622              	.LVL61:
 623 0052 FFF7FEFF 		bl	assert_failed
 624              	.LVL62:
 625              	.L38:
 321:Drivers/STM32F4xx_HAL_Driver/Src/stm32f4xx_hal_gpio.c ****   
 322:Drivers/STM32F4xx_HAL_Driver/Src/stm32f4xx_hal_gpio.c ****   /* Configure the port pins */
 323:Drivers/STM32F4xx_HAL_Driver/Src/stm32f4xx_hal_gpio.c ****   for(position = 0U; position < GPIO_NUMBER; position++)
 324:Drivers/STM32F4xx_HAL_Driver/Src/stm32f4xx_hal_gpio.c ****   {
 325:Drivers/STM32F4xx_HAL_Driver/Src/stm32f4xx_hal_gpio.c ****     /* Get the IO position */
 326:Drivers/STM32F4xx_HAL_Driver/Src/stm32f4xx_hal_gpio.c ****     ioposition = 0x01U << position;
 327:Drivers/STM32F4xx_HAL_Driver/Src/stm32f4xx_hal_gpio.c ****     /* Get the current IO position */
 328:Drivers/STM32F4xx_HAL_Driver/Src/stm32f4xx_hal_gpio.c ****     iocurrent = (GPIO_Pin) & ioposition;
 329:Drivers/STM32F4xx_HAL_Driver/Src/stm32f4xx_hal_gpio.c **** 
 330:Drivers/STM32F4xx_HAL_Driver/Src/stm32f4xx_hal_gpio.c ****     if(iocurrent == ioposition)
 331:Drivers/STM32F4xx_HAL_Driver/Src/stm32f4xx_hal_gpio.c ****     {
 332:Drivers/STM32F4xx_HAL_Driver/Src/stm32f4xx_hal_gpio.c ****       /*------------------------- GPIO Mode Configuration --------------------*/
 333:Drivers/STM32F4xx_HAL_Driver/Src/stm32f4xx_hal_gpio.c ****       /* Configure IO Direction in Input Floating Mode */
 334:Drivers/STM32F4xx_HAL_Driver/Src/stm32f4xx_hal_gpio.c ****       GPIOx->MODER &= ~(GPIO_MODER_MODER0 << (position * 2U));
 335:Drivers/STM32F4xx_HAL_Driver/Src/stm32f4xx_hal_gpio.c **** 
 336:Drivers/STM32F4xx_HAL_Driver/Src/stm32f4xx_hal_gpio.c ****       /* Configure the default Alternate Function in current IO */
 337:Drivers/STM32F4xx_HAL_Driver/Src/stm32f4xx_hal_gpio.c ****       GPIOx->AFR[position >> 3U] &= ~(0xFU << ((uint32_t)(position & 0x07U) * 4U)) ;
 338:Drivers/STM32F4xx_HAL_Driver/Src/stm32f4xx_hal_gpio.c **** 
 339:Drivers/STM32F4xx_HAL_Driver/Src/stm32f4xx_hal_gpio.c ****       /* Configure the default value for IO Speed */
 340:Drivers/STM32F4xx_HAL_Driver/Src/stm32f4xx_hal_gpio.c ****       GPIOx->OSPEEDR &= ~(GPIO_OSPEEDER_OSPEEDR0 << (position * 2U));
 341:Drivers/STM32F4xx_HAL_Driver/Src/stm32f4xx_hal_gpio.c **** 
ARM GAS  C:\Users\n-is\AppData\Local\Temp\cczOBJcu.s 			page 19


 342:Drivers/STM32F4xx_HAL_Driver/Src/stm32f4xx_hal_gpio.c ****       /* Configure the default value IO Output Type */
 343:Drivers/STM32F4xx_HAL_Driver/Src/stm32f4xx_hal_gpio.c ****       GPIOx->OTYPER  &= ~(GPIO_OTYPER_OT_0 << position) ;
 344:Drivers/STM32F4xx_HAL_Driver/Src/stm32f4xx_hal_gpio.c **** 
 345:Drivers/STM32F4xx_HAL_Driver/Src/stm32f4xx_hal_gpio.c ****       /* Deactivate the Pull-up and Pull-down resistor for the current IO */
 346:Drivers/STM32F4xx_HAL_Driver/Src/stm32f4xx_hal_gpio.c ****       GPIOx->PUPDR &= ~(GPIO_PUPDR_PUPDR0 << (position * 2U));
 347:Drivers/STM32F4xx_HAL_Driver/Src/stm32f4xx_hal_gpio.c **** 
 348:Drivers/STM32F4xx_HAL_Driver/Src/stm32f4xx_hal_gpio.c ****       /*------------------------- EXTI Mode Configuration --------------------*/
 349:Drivers/STM32F4xx_HAL_Driver/Src/stm32f4xx_hal_gpio.c ****       tmp = SYSCFG->EXTICR[position >> 2U];
 350:Drivers/STM32F4xx_HAL_Driver/Src/stm32f4xx_hal_gpio.c ****       tmp &= (0x0FU << (4U * (position & 0x03U)));
 351:Drivers/STM32F4xx_HAL_Driver/Src/stm32f4xx_hal_gpio.c ****       if(tmp == ((uint32_t)(GPIO_GET_INDEX(GPIOx)) << (4U * (position & 0x03U))))
 626              		.loc 1 351 0 is_stmt 1 discriminator 1
 627 0056 0023     		movs	r3, #0
 628 0058 07E0     		b	.L39
 629              	.LVL63:
 630              	.L54:
 631              		.loc 1 351 0 is_stmt 0
 632 005a 0720     		movs	r0, #7
 633 005c 00E0     		b	.L41
 634              	.L43:
 635 005e 0020     		movs	r0, #0
 636              	.L41:
 637              		.loc 1 351 0 discriminator 32
 638 0060 00FA02F2 		lsl	r2, r0, r2
 639 0064 8A42     		cmp	r2, r1
 640 0066 62D0     		beq	.L52
 641              	.LVL64:
 642              	.L40:
 323:Drivers/STM32F4xx_HAL_Driver/Src/stm32f4xx_hal_gpio.c ****   {
 643              		.loc 1 323 0 is_stmt 1 discriminator 2
 644 0068 0133     		adds	r3, r3, #1
 645              	.LVL65:
 646              	.L39:
 323:Drivers/STM32F4xx_HAL_Driver/Src/stm32f4xx_hal_gpio.c ****   {
 647              		.loc 1 323 0 is_stmt 0 discriminator 1
 648 006a 0F2B     		cmp	r3, #15
 649 006c 77D8     		bhi	.L53
 326:Drivers/STM32F4xx_HAL_Driver/Src/stm32f4xx_hal_gpio.c ****     /* Get the current IO position */
 650              		.loc 1 326 0 is_stmt 1
 651 006e 0122     		movs	r2, #1
 652 0070 9A40     		lsls	r2, r2, r3
 653              	.LVL66:
 328:Drivers/STM32F4xx_HAL_Driver/Src/stm32f4xx_hal_gpio.c **** 
 654              		.loc 1 328 0
 655 0072 02EA0506 		and	r6, r2, r5
 656              	.LVL67:
 330:Drivers/STM32F4xx_HAL_Driver/Src/stm32f4xx_hal_gpio.c ****     {
 657              		.loc 1 330 0
 658 0076 B242     		cmp	r2, r6
 659 0078 F6D1     		bne	.L40
 334:Drivers/STM32F4xx_HAL_Driver/Src/stm32f4xx_hal_gpio.c **** 
 660              		.loc 1 334 0
 661 007a 2068     		ldr	r0, [r4]
 662 007c 5F00     		lsls	r7, r3, #1
 663 007e 0321     		movs	r1, #3
 664 0080 B940     		lsls	r1, r1, r7
 665 0082 C943     		mvns	r1, r1
 666 0084 0840     		ands	r0, r0, r1
ARM GAS  C:\Users\n-is\AppData\Local\Temp\cczOBJcu.s 			page 20


 667 0086 2060     		str	r0, [r4]
 337:Drivers/STM32F4xx_HAL_Driver/Src/stm32f4xx_hal_gpio.c **** 
 668              		.loc 1 337 0
 669 0088 4FEAD30C 		lsr	ip, r3, #3
 670 008c 0CF1080C 		add	ip, ip, #8
 671 0090 54F82CE0 		ldr	lr, [r4, ip, lsl #2]
 672 0094 03F00700 		and	r0, r3, #7
 673 0098 8000     		lsls	r0, r0, #2
 674 009a 0F27     		movs	r7, #15
 675 009c 07FA00F0 		lsl	r0, r7, r0
 676 00a0 2EEA0000 		bic	r0, lr, r0
 677 00a4 44F82C00 		str	r0, [r4, ip, lsl #2]
 340:Drivers/STM32F4xx_HAL_Driver/Src/stm32f4xx_hal_gpio.c **** 
 678              		.loc 1 340 0
 679 00a8 A068     		ldr	r0, [r4, #8]
 680 00aa 0840     		ands	r0, r0, r1
 681 00ac A060     		str	r0, [r4, #8]
 343:Drivers/STM32F4xx_HAL_Driver/Src/stm32f4xx_hal_gpio.c **** 
 682              		.loc 1 343 0
 683 00ae 6068     		ldr	r0, [r4, #4]
 684 00b0 20EA0202 		bic	r2, r0, r2
 685              	.LVL68:
 686 00b4 6260     		str	r2, [r4, #4]
 346:Drivers/STM32F4xx_HAL_Driver/Src/stm32f4xx_hal_gpio.c **** 
 687              		.loc 1 346 0
 688 00b6 E268     		ldr	r2, [r4, #12]
 689 00b8 1140     		ands	r1, r1, r2
 690 00ba E160     		str	r1, [r4, #12]
 349:Drivers/STM32F4xx_HAL_Driver/Src/stm32f4xx_hal_gpio.c ****       tmp &= (0x0FU << (4U * (position & 0x03U)));
 691              		.loc 1 349 0
 692 00bc 4FEA930C 		lsr	ip, r3, #2
 693 00c0 0CF10201 		add	r1, ip, #2
 694 00c4 284A     		ldr	r2, .L55+8
 695 00c6 52F82110 		ldr	r1, [r2, r1, lsl #2]
 696              	.LVL69:
 350:Drivers/STM32F4xx_HAL_Driver/Src/stm32f4xx_hal_gpio.c ****       if(tmp == ((uint32_t)(GPIO_GET_INDEX(GPIOx)) << (4U * (position & 0x03U))))
 697              		.loc 1 350 0
 698 00ca 03F00302 		and	r2, r3, #3
 699 00ce 9200     		lsls	r2, r2, #2
 700 00d0 9740     		lsls	r7, r7, r2
 701 00d2 3940     		ands	r1, r1, r7
 702              	.LVL70:
 703              		.loc 1 351 0
 704 00d4 2248     		ldr	r0, .L55
 705 00d6 8442     		cmp	r4, r0
 706 00d8 C1D0     		beq	.L43
 707              		.loc 1 351 0 is_stmt 0 discriminator 1
 708 00da 00F58060 		add	r0, r0, #1024
 709 00de 8442     		cmp	r4, r0
 710 00e0 19D0     		beq	.L44
 711              		.loc 1 351 0 discriminator 3
 712 00e2 00F58060 		add	r0, r0, #1024
 713 00e6 8442     		cmp	r4, r0
 714 00e8 17D0     		beq	.L45
 715              		.loc 1 351 0 discriminator 5
 716 00ea 00F58060 		add	r0, r0, #1024
 717 00ee 8442     		cmp	r4, r0
ARM GAS  C:\Users\n-is\AppData\Local\Temp\cczOBJcu.s 			page 21


 718 00f0 15D0     		beq	.L46
 719              		.loc 1 351 0 discriminator 7
 720 00f2 00F58060 		add	r0, r0, #1024
 721 00f6 8442     		cmp	r4, r0
 722 00f8 13D0     		beq	.L47
 723              		.loc 1 351 0 discriminator 9
 724 00fa 00F58060 		add	r0, r0, #1024
 725 00fe 8442     		cmp	r4, r0
 726 0100 11D0     		beq	.L48
 727              		.loc 1 351 0 discriminator 11
 728 0102 00F58060 		add	r0, r0, #1024
 729 0106 8442     		cmp	r4, r0
 730 0108 0FD0     		beq	.L49
 731              		.loc 1 351 0 discriminator 13
 732 010a 00F58060 		add	r0, r0, #1024
 733 010e 8442     		cmp	r4, r0
 734 0110 A3D0     		beq	.L54
 735              		.loc 1 351 0
 736 0112 0820     		movs	r0, #8
 737 0114 A4E7     		b	.L41
 738              	.L44:
 739 0116 0120     		movs	r0, #1
 740              	.LVL71:
 741 0118 A2E7     		b	.L41
 742              	.LVL72:
 743              	.L45:
 744 011a 0220     		movs	r0, #2
 745 011c A0E7     		b	.L41
 746              	.L46:
 747 011e 0320     		movs	r0, #3
 748 0120 9EE7     		b	.L41
 749              	.L47:
 750 0122 0420     		movs	r0, #4
 751 0124 9CE7     		b	.L41
 752              	.L48:
 753 0126 0520     		movs	r0, #5
 754 0128 9AE7     		b	.L41
 755              	.L49:
 756 012a 0620     		movs	r0, #6
 757 012c 98E7     		b	.L41
 758              	.L52:
 759              	.LVL73:
 352:Drivers/STM32F4xx_HAL_Driver/Src/stm32f4xx_hal_gpio.c ****       {
 353:Drivers/STM32F4xx_HAL_Driver/Src/stm32f4xx_hal_gpio.c ****         /* Configure the External Interrupt or event for the current IO */
 354:Drivers/STM32F4xx_HAL_Driver/Src/stm32f4xx_hal_gpio.c ****         tmp = 0x0FU << (4U * (position & 0x03U));
 355:Drivers/STM32F4xx_HAL_Driver/Src/stm32f4xx_hal_gpio.c ****         SYSCFG->EXTICR[position >> 2U] &= ~tmp;
 760              		.loc 1 355 0 is_stmt 1
 761 012e 0E48     		ldr	r0, .L55+8
 762 0130 0CF10202 		add	r2, ip, #2
 763 0134 50F82210 		ldr	r1, [r0, r2, lsl #2]
 764 0138 21EA0707 		bic	r7, r1, r7
 765              	.LVL74:
 766 013c 40F82270 		str	r7, [r0, r2, lsl #2]
 356:Drivers/STM32F4xx_HAL_Driver/Src/stm32f4xx_hal_gpio.c **** 
 357:Drivers/STM32F4xx_HAL_Driver/Src/stm32f4xx_hal_gpio.c ****         /* Clear EXTI line configuration */
 358:Drivers/STM32F4xx_HAL_Driver/Src/stm32f4xx_hal_gpio.c ****         EXTI->IMR &= ~((uint32_t)iocurrent);
 767              		.loc 1 358 0
ARM GAS  C:\Users\n-is\AppData\Local\Temp\cczOBJcu.s 			page 22


 768 0140 0A49     		ldr	r1, .L55+12
 769 0142 0868     		ldr	r0, [r1]
 770 0144 F243     		mvns	r2, r6
 771 0146 1040     		ands	r0, r0, r2
 772 0148 0860     		str	r0, [r1]
 359:Drivers/STM32F4xx_HAL_Driver/Src/stm32f4xx_hal_gpio.c ****         EXTI->EMR &= ~((uint32_t)iocurrent);
 773              		.loc 1 359 0
 774 014a 4868     		ldr	r0, [r1, #4]
 775 014c 1040     		ands	r0, r0, r2
 776 014e 4860     		str	r0, [r1, #4]
 360:Drivers/STM32F4xx_HAL_Driver/Src/stm32f4xx_hal_gpio.c ****         
 361:Drivers/STM32F4xx_HAL_Driver/Src/stm32f4xx_hal_gpio.c ****         /* Clear Rising Falling edge configuration */
 362:Drivers/STM32F4xx_HAL_Driver/Src/stm32f4xx_hal_gpio.c ****         EXTI->RTSR &= ~((uint32_t)iocurrent);
 777              		.loc 1 362 0
 778 0150 8868     		ldr	r0, [r1, #8]
 779 0152 1040     		ands	r0, r0, r2
 780 0154 8860     		str	r0, [r1, #8]
 363:Drivers/STM32F4xx_HAL_Driver/Src/stm32f4xx_hal_gpio.c ****         EXTI->FTSR &= ~((uint32_t)iocurrent);
 781              		.loc 1 363 0
 782 0156 C868     		ldr	r0, [r1, #12]
 783 0158 0240     		ands	r2, r2, r0
 784 015a CA60     		str	r2, [r1, #12]
 785 015c 84E7     		b	.L40
 786              	.LVL75:
 787              	.L53:
 364:Drivers/STM32F4xx_HAL_Driver/Src/stm32f4xx_hal_gpio.c ****       }
 365:Drivers/STM32F4xx_HAL_Driver/Src/stm32f4xx_hal_gpio.c ****     }
 366:Drivers/STM32F4xx_HAL_Driver/Src/stm32f4xx_hal_gpio.c ****   }
 367:Drivers/STM32F4xx_HAL_Driver/Src/stm32f4xx_hal_gpio.c **** }
 788              		.loc 1 367 0
 789 015e F8BD     		pop	{r3, r4, r5, r6, r7, pc}
 790              	.LVL76:
 791              	.L56:
 792              		.align	2
 793              	.L55:
 794 0160 00000240 		.word	1073872896
 795 0164 00000000 		.word	.LC0
 796 0168 00380140 		.word	1073821696
 797 016c 003C0140 		.word	1073822720
 798              		.cfi_endproc
 799              	.LFE127:
 801              		.section	.text.HAL_GPIO_ReadPin,"ax",%progbits
 802              		.align	1
 803              		.global	HAL_GPIO_ReadPin
 804              		.syntax unified
 805              		.thumb
 806              		.thumb_func
 807              		.fpu fpv4-sp-d16
 809              	HAL_GPIO_ReadPin:
 810              	.LFB128:
 368:Drivers/STM32F4xx_HAL_Driver/Src/stm32f4xx_hal_gpio.c **** 
 369:Drivers/STM32F4xx_HAL_Driver/Src/stm32f4xx_hal_gpio.c **** /**
 370:Drivers/STM32F4xx_HAL_Driver/Src/stm32f4xx_hal_gpio.c ****   * @}
 371:Drivers/STM32F4xx_HAL_Driver/Src/stm32f4xx_hal_gpio.c ****   */
 372:Drivers/STM32F4xx_HAL_Driver/Src/stm32f4xx_hal_gpio.c **** 
 373:Drivers/STM32F4xx_HAL_Driver/Src/stm32f4xx_hal_gpio.c **** /** @defgroup GPIO_Exported_Functions_Group2 IO operation functions 
 374:Drivers/STM32F4xx_HAL_Driver/Src/stm32f4xx_hal_gpio.c ****   *  @brief   GPIO Read and Write
ARM GAS  C:\Users\n-is\AppData\Local\Temp\cczOBJcu.s 			page 23


 375:Drivers/STM32F4xx_HAL_Driver/Src/stm32f4xx_hal_gpio.c ****   *
 376:Drivers/STM32F4xx_HAL_Driver/Src/stm32f4xx_hal_gpio.c **** @verbatim
 377:Drivers/STM32F4xx_HAL_Driver/Src/stm32f4xx_hal_gpio.c ****  ===============================================================================
 378:Drivers/STM32F4xx_HAL_Driver/Src/stm32f4xx_hal_gpio.c ****                        ##### IO operation functions #####
 379:Drivers/STM32F4xx_HAL_Driver/Src/stm32f4xx_hal_gpio.c ****  ===============================================================================
 380:Drivers/STM32F4xx_HAL_Driver/Src/stm32f4xx_hal_gpio.c **** 
 381:Drivers/STM32F4xx_HAL_Driver/Src/stm32f4xx_hal_gpio.c **** @endverbatim
 382:Drivers/STM32F4xx_HAL_Driver/Src/stm32f4xx_hal_gpio.c ****   * @{
 383:Drivers/STM32F4xx_HAL_Driver/Src/stm32f4xx_hal_gpio.c ****   */
 384:Drivers/STM32F4xx_HAL_Driver/Src/stm32f4xx_hal_gpio.c **** 
 385:Drivers/STM32F4xx_HAL_Driver/Src/stm32f4xx_hal_gpio.c **** /**
 386:Drivers/STM32F4xx_HAL_Driver/Src/stm32f4xx_hal_gpio.c ****   * @brief  Reads the specified input port pin.
 387:Drivers/STM32F4xx_HAL_Driver/Src/stm32f4xx_hal_gpio.c ****   * @param  GPIOx where x can be (A..K) to select the GPIO peripheral for STM32F429X device or
 388:Drivers/STM32F4xx_HAL_Driver/Src/stm32f4xx_hal_gpio.c ****   *                      x can be (A..I) to select the GPIO peripheral for STM32F40XX and STM32F427
 389:Drivers/STM32F4xx_HAL_Driver/Src/stm32f4xx_hal_gpio.c ****   * @param  GPIO_Pin specifies the port bit to read.
 390:Drivers/STM32F4xx_HAL_Driver/Src/stm32f4xx_hal_gpio.c ****   *         This parameter can be GPIO_PIN_x where x can be (0..15).
 391:Drivers/STM32F4xx_HAL_Driver/Src/stm32f4xx_hal_gpio.c ****   * @retval The input port pin value.
 392:Drivers/STM32F4xx_HAL_Driver/Src/stm32f4xx_hal_gpio.c ****   */
 393:Drivers/STM32F4xx_HAL_Driver/Src/stm32f4xx_hal_gpio.c **** GPIO_PinState HAL_GPIO_ReadPin(GPIO_TypeDef* GPIOx, uint16_t GPIO_Pin)
 394:Drivers/STM32F4xx_HAL_Driver/Src/stm32f4xx_hal_gpio.c **** {
 811              		.loc 1 394 0
 812              		.cfi_startproc
 813              		@ args = 0, pretend = 0, frame = 0
 814              		@ frame_needed = 0, uses_anonymous_args = 0
 815              	.LVL77:
 816 0000 38B5     		push	{r3, r4, r5, lr}
 817              	.LCFI4:
 818              		.cfi_def_cfa_offset 16
 819              		.cfi_offset 3, -16
 820              		.cfi_offset 4, -12
 821              		.cfi_offset 5, -8
 822              		.cfi_offset 14, -4
 823 0002 0546     		mov	r5, r0
 395:Drivers/STM32F4xx_HAL_Driver/Src/stm32f4xx_hal_gpio.c ****   GPIO_PinState bitstatus;
 396:Drivers/STM32F4xx_HAL_Driver/Src/stm32f4xx_hal_gpio.c **** 
 397:Drivers/STM32F4xx_HAL_Driver/Src/stm32f4xx_hal_gpio.c ****   /* Check the parameters */
 398:Drivers/STM32F4xx_HAL_Driver/Src/stm32f4xx_hal_gpio.c ****   assert_param(IS_GPIO_PIN(GPIO_Pin));
 824              		.loc 1 398 0
 825 0004 0C46     		mov	r4, r1
 826 0006 21B1     		cbz	r1, .L63
 827              	.LVL78:
 828              	.L59:
 399:Drivers/STM32F4xx_HAL_Driver/Src/stm32f4xx_hal_gpio.c **** 
 400:Drivers/STM32F4xx_HAL_Driver/Src/stm32f4xx_hal_gpio.c ****   if((GPIOx->IDR & GPIO_Pin) != (uint32_t)GPIO_PIN_RESET)
 829              		.loc 1 400 0
 830 0008 2B69     		ldr	r3, [r5, #16]
 831 000a 1C42     		tst	r4, r3
 832 000c 07D1     		bne	.L64
 401:Drivers/STM32F4xx_HAL_Driver/Src/stm32f4xx_hal_gpio.c ****   {
 402:Drivers/STM32F4xx_HAL_Driver/Src/stm32f4xx_hal_gpio.c ****     bitstatus = GPIO_PIN_SET;
 403:Drivers/STM32F4xx_HAL_Driver/Src/stm32f4xx_hal_gpio.c ****   }
 404:Drivers/STM32F4xx_HAL_Driver/Src/stm32f4xx_hal_gpio.c ****   else
 405:Drivers/STM32F4xx_HAL_Driver/Src/stm32f4xx_hal_gpio.c ****   {
 406:Drivers/STM32F4xx_HAL_Driver/Src/stm32f4xx_hal_gpio.c ****     bitstatus = GPIO_PIN_RESET;
 833              		.loc 1 406 0
 834 000e 0020     		movs	r0, #0
 835              	.L60:
ARM GAS  C:\Users\n-is\AppData\Local\Temp\cczOBJcu.s 			page 24


 836              	.LVL79:
 407:Drivers/STM32F4xx_HAL_Driver/Src/stm32f4xx_hal_gpio.c ****   }
 408:Drivers/STM32F4xx_HAL_Driver/Src/stm32f4xx_hal_gpio.c ****   return bitstatus;
 409:Drivers/STM32F4xx_HAL_Driver/Src/stm32f4xx_hal_gpio.c **** }
 837              		.loc 1 409 0
 838 0010 38BD     		pop	{r3, r4, r5, pc}
 839              	.LVL80:
 840              	.L63:
 398:Drivers/STM32F4xx_HAL_Driver/Src/stm32f4xx_hal_gpio.c **** 
 841              		.loc 1 398 0 discriminator 3
 842 0012 4FF4C771 		mov	r1, #398
 843              	.LVL81:
 844 0016 0348     		ldr	r0, .L65
 845              	.LVL82:
 846 0018 FFF7FEFF 		bl	assert_failed
 847              	.LVL83:
 848 001c F4E7     		b	.L59
 849              	.L64:
 402:Drivers/STM32F4xx_HAL_Driver/Src/stm32f4xx_hal_gpio.c ****   }
 850              		.loc 1 402 0
 851 001e 0120     		movs	r0, #1
 852 0020 F6E7     		b	.L60
 853              	.L66:
 854 0022 00BF     		.align	2
 855              	.L65:
 856 0024 00000000 		.word	.LC0
 857              		.cfi_endproc
 858              	.LFE128:
 860              		.section	.text.HAL_GPIO_WritePin,"ax",%progbits
 861              		.align	1
 862              		.global	HAL_GPIO_WritePin
 863              		.syntax unified
 864              		.thumb
 865              		.thumb_func
 866              		.fpu fpv4-sp-d16
 868              	HAL_GPIO_WritePin:
 869              	.LFB129:
 410:Drivers/STM32F4xx_HAL_Driver/Src/stm32f4xx_hal_gpio.c **** 
 411:Drivers/STM32F4xx_HAL_Driver/Src/stm32f4xx_hal_gpio.c **** /**
 412:Drivers/STM32F4xx_HAL_Driver/Src/stm32f4xx_hal_gpio.c ****   * @brief  Sets or clears the selected data port bit.
 413:Drivers/STM32F4xx_HAL_Driver/Src/stm32f4xx_hal_gpio.c ****   *
 414:Drivers/STM32F4xx_HAL_Driver/Src/stm32f4xx_hal_gpio.c ****   * @note   This function uses GPIOx_BSRR register to allow atomic read/modify
 415:Drivers/STM32F4xx_HAL_Driver/Src/stm32f4xx_hal_gpio.c ****   *         accesses. In this way, there is no risk of an IRQ occurring between
 416:Drivers/STM32F4xx_HAL_Driver/Src/stm32f4xx_hal_gpio.c ****   *         the read and the modify access.
 417:Drivers/STM32F4xx_HAL_Driver/Src/stm32f4xx_hal_gpio.c ****   *
 418:Drivers/STM32F4xx_HAL_Driver/Src/stm32f4xx_hal_gpio.c ****   * @param  GPIOx where x can be (A..K) to select the GPIO peripheral for STM32F429X device or
 419:Drivers/STM32F4xx_HAL_Driver/Src/stm32f4xx_hal_gpio.c ****   *                      x can be (A..I) to select the GPIO peripheral for STM32F40XX and STM32F427
 420:Drivers/STM32F4xx_HAL_Driver/Src/stm32f4xx_hal_gpio.c ****   * @param  GPIO_Pin specifies the port bit to be written.
 421:Drivers/STM32F4xx_HAL_Driver/Src/stm32f4xx_hal_gpio.c ****   *          This parameter can be one of GPIO_PIN_x where x can be (0..15).
 422:Drivers/STM32F4xx_HAL_Driver/Src/stm32f4xx_hal_gpio.c ****   * @param  PinState specifies the value to be written to the selected bit.
 423:Drivers/STM32F4xx_HAL_Driver/Src/stm32f4xx_hal_gpio.c ****   *          This parameter can be one of the GPIO_PinState enum values:
 424:Drivers/STM32F4xx_HAL_Driver/Src/stm32f4xx_hal_gpio.c ****   *            @arg GPIO_PIN_RESET: to clear the port pin
 425:Drivers/STM32F4xx_HAL_Driver/Src/stm32f4xx_hal_gpio.c ****   *            @arg GPIO_PIN_SET: to set the port pin
 426:Drivers/STM32F4xx_HAL_Driver/Src/stm32f4xx_hal_gpio.c ****   * @retval None
 427:Drivers/STM32F4xx_HAL_Driver/Src/stm32f4xx_hal_gpio.c ****   */
 428:Drivers/STM32F4xx_HAL_Driver/Src/stm32f4xx_hal_gpio.c **** void HAL_GPIO_WritePin(GPIO_TypeDef* GPIOx, uint16_t GPIO_Pin, GPIO_PinState PinState)
 429:Drivers/STM32F4xx_HAL_Driver/Src/stm32f4xx_hal_gpio.c **** {
ARM GAS  C:\Users\n-is\AppData\Local\Temp\cczOBJcu.s 			page 25


 870              		.loc 1 429 0
 871              		.cfi_startproc
 872              		@ args = 0, pretend = 0, frame = 0
 873              		@ frame_needed = 0, uses_anonymous_args = 0
 874              	.LVL84:
 875 0000 70B5     		push	{r4, r5, r6, lr}
 876              	.LCFI5:
 877              		.cfi_def_cfa_offset 16
 878              		.cfi_offset 4, -16
 879              		.cfi_offset 5, -12
 880              		.cfi_offset 6, -8
 881              		.cfi_offset 14, -4
 882 0002 0646     		mov	r6, r0
 883 0004 1546     		mov	r5, r2
 430:Drivers/STM32F4xx_HAL_Driver/Src/stm32f4xx_hal_gpio.c ****   /* Check the parameters */
 431:Drivers/STM32F4xx_HAL_Driver/Src/stm32f4xx_hal_gpio.c ****   assert_param(IS_GPIO_PIN(GPIO_Pin));
 884              		.loc 1 431 0
 885 0006 0C46     		mov	r4, r1
 886 0008 29B1     		cbz	r1, .L74
 887              	.LVL85:
 888              	.L69:
 432:Drivers/STM32F4xx_HAL_Driver/Src/stm32f4xx_hal_gpio.c ****   assert_param(IS_GPIO_PIN_ACTION(PinState));
 889              		.loc 1 432 0
 890 000a 012D     		cmp	r5, #1
 891 000c 09D8     		bhi	.L75
 892              	.L70:
 433:Drivers/STM32F4xx_HAL_Driver/Src/stm32f4xx_hal_gpio.c **** 
 434:Drivers/STM32F4xx_HAL_Driver/Src/stm32f4xx_hal_gpio.c ****   if(PinState != GPIO_PIN_RESET)
 893              		.loc 1 434 0
 894 000e 75B9     		cbnz	r5, .L76
 435:Drivers/STM32F4xx_HAL_Driver/Src/stm32f4xx_hal_gpio.c ****   {
 436:Drivers/STM32F4xx_HAL_Driver/Src/stm32f4xx_hal_gpio.c ****     GPIOx->BSRR = GPIO_Pin;
 437:Drivers/STM32F4xx_HAL_Driver/Src/stm32f4xx_hal_gpio.c ****   }
 438:Drivers/STM32F4xx_HAL_Driver/Src/stm32f4xx_hal_gpio.c ****   else
 439:Drivers/STM32F4xx_HAL_Driver/Src/stm32f4xx_hal_gpio.c ****   {
 440:Drivers/STM32F4xx_HAL_Driver/Src/stm32f4xx_hal_gpio.c ****     GPIOx->BSRR = (uint32_t)GPIO_Pin << 16U;
 895              		.loc 1 440 0
 896 0010 2404     		lsls	r4, r4, #16
 897 0012 B461     		str	r4, [r6, #24]
 898              	.L67:
 441:Drivers/STM32F4xx_HAL_Driver/Src/stm32f4xx_hal_gpio.c ****   }
 442:Drivers/STM32F4xx_HAL_Driver/Src/stm32f4xx_hal_gpio.c **** }
 899              		.loc 1 442 0
 900 0014 70BD     		pop	{r4, r5, r6, pc}
 901              	.LVL86:
 902              	.L74:
 431:Drivers/STM32F4xx_HAL_Driver/Src/stm32f4xx_hal_gpio.c ****   assert_param(IS_GPIO_PIN_ACTION(PinState));
 903              		.loc 1 431 0 discriminator 3
 904 0016 40F2AF11 		movw	r1, #431
 905              	.LVL87:
 906 001a 0648     		ldr	r0, .L77
 907              	.LVL88:
 908 001c FFF7FEFF 		bl	assert_failed
 909              	.LVL89:
 910 0020 F3E7     		b	.L69
 911              	.L75:
 432:Drivers/STM32F4xx_HAL_Driver/Src/stm32f4xx_hal_gpio.c **** 
ARM GAS  C:\Users\n-is\AppData\Local\Temp\cczOBJcu.s 			page 26


 912              		.loc 1 432 0 discriminator 1
 913 0022 4FF4D871 		mov	r1, #432
 914 0026 0348     		ldr	r0, .L77
 915 0028 FFF7FEFF 		bl	assert_failed
 916              	.LVL90:
 917 002c EFE7     		b	.L70
 918              	.L76:
 436:Drivers/STM32F4xx_HAL_Driver/Src/stm32f4xx_hal_gpio.c ****   }
 919              		.loc 1 436 0
 920 002e B461     		str	r4, [r6, #24]
 921 0030 F0E7     		b	.L67
 922              	.L78:
 923 0032 00BF     		.align	2
 924              	.L77:
 925 0034 00000000 		.word	.LC0
 926              		.cfi_endproc
 927              	.LFE129:
 929              		.section	.text.HAL_GPIO_TogglePin,"ax",%progbits
 930              		.align	1
 931              		.global	HAL_GPIO_TogglePin
 932              		.syntax unified
 933              		.thumb
 934              		.thumb_func
 935              		.fpu fpv4-sp-d16
 937              	HAL_GPIO_TogglePin:
 938              	.LFB130:
 443:Drivers/STM32F4xx_HAL_Driver/Src/stm32f4xx_hal_gpio.c **** 
 444:Drivers/STM32F4xx_HAL_Driver/Src/stm32f4xx_hal_gpio.c **** /**
 445:Drivers/STM32F4xx_HAL_Driver/Src/stm32f4xx_hal_gpio.c ****   * @brief  Toggles the specified GPIO pins.
 446:Drivers/STM32F4xx_HAL_Driver/Src/stm32f4xx_hal_gpio.c ****   * @param  GPIOx Where x can be (A..K) to select the GPIO peripheral for STM32F429X device or
 447:Drivers/STM32F4xx_HAL_Driver/Src/stm32f4xx_hal_gpio.c ****   *                      x can be (A..I) to select the GPIO peripheral for STM32F40XX and STM32F427
 448:Drivers/STM32F4xx_HAL_Driver/Src/stm32f4xx_hal_gpio.c ****   * @param  GPIO_Pin Specifies the pins to be toggled.
 449:Drivers/STM32F4xx_HAL_Driver/Src/stm32f4xx_hal_gpio.c ****   * @retval None
 450:Drivers/STM32F4xx_HAL_Driver/Src/stm32f4xx_hal_gpio.c ****   */
 451:Drivers/STM32F4xx_HAL_Driver/Src/stm32f4xx_hal_gpio.c **** void HAL_GPIO_TogglePin(GPIO_TypeDef* GPIOx, uint16_t GPIO_Pin)
 452:Drivers/STM32F4xx_HAL_Driver/Src/stm32f4xx_hal_gpio.c **** {
 939              		.loc 1 452 0
 940              		.cfi_startproc
 941              		@ args = 0, pretend = 0, frame = 0
 942              		@ frame_needed = 0, uses_anonymous_args = 0
 943              	.LVL91:
 944 0000 38B5     		push	{r3, r4, r5, lr}
 945              	.LCFI6:
 946              		.cfi_def_cfa_offset 16
 947              		.cfi_offset 3, -16
 948              		.cfi_offset 4, -12
 949              		.cfi_offset 5, -8
 950              		.cfi_offset 14, -4
 951 0002 0546     		mov	r5, r0
 453:Drivers/STM32F4xx_HAL_Driver/Src/stm32f4xx_hal_gpio.c ****   /* Check the parameters */
 454:Drivers/STM32F4xx_HAL_Driver/Src/stm32f4xx_hal_gpio.c ****   assert_param(IS_GPIO_PIN(GPIO_Pin));
 952              		.loc 1 454 0
 953 0004 0C46     		mov	r4, r1
 954 0006 21B9     		cbnz	r1, .L81
 955              		.loc 1 454 0 is_stmt 0 discriminator 3
 956 0008 4FF4E371 		mov	r1, #454
 957              	.LVL92:
ARM GAS  C:\Users\n-is\AppData\Local\Temp\cczOBJcu.s 			page 27


 958 000c 0348     		ldr	r0, .L83
 959              	.LVL93:
 960 000e FFF7FEFF 		bl	assert_failed
 961              	.LVL94:
 962              	.L81:
 455:Drivers/STM32F4xx_HAL_Driver/Src/stm32f4xx_hal_gpio.c **** 
 456:Drivers/STM32F4xx_HAL_Driver/Src/stm32f4xx_hal_gpio.c ****   GPIOx->ODR ^= GPIO_Pin;
 963              		.loc 1 456 0 is_stmt 1
 964 0012 6B69     		ldr	r3, [r5, #20]
 965 0014 5C40     		eors	r4, r4, r3
 966 0016 6C61     		str	r4, [r5, #20]
 457:Drivers/STM32F4xx_HAL_Driver/Src/stm32f4xx_hal_gpio.c **** }
 967              		.loc 1 457 0
 968 0018 38BD     		pop	{r3, r4, r5, pc}
 969              	.LVL95:
 970              	.L84:
 971 001a 00BF     		.align	2
 972              	.L83:
 973 001c 00000000 		.word	.LC0
 974              		.cfi_endproc
 975              	.LFE130:
 977              		.section	.text.HAL_GPIO_LockPin,"ax",%progbits
 978              		.align	1
 979              		.global	HAL_GPIO_LockPin
 980              		.syntax unified
 981              		.thumb
 982              		.thumb_func
 983              		.fpu fpv4-sp-d16
 985              	HAL_GPIO_LockPin:
 986              	.LFB131:
 458:Drivers/STM32F4xx_HAL_Driver/Src/stm32f4xx_hal_gpio.c **** 
 459:Drivers/STM32F4xx_HAL_Driver/Src/stm32f4xx_hal_gpio.c **** /**
 460:Drivers/STM32F4xx_HAL_Driver/Src/stm32f4xx_hal_gpio.c ****   * @brief  Locks GPIO Pins configuration registers.
 461:Drivers/STM32F4xx_HAL_Driver/Src/stm32f4xx_hal_gpio.c ****   * @note   The locked registers are GPIOx_MODER, GPIOx_OTYPER, GPIOx_OSPEEDR,
 462:Drivers/STM32F4xx_HAL_Driver/Src/stm32f4xx_hal_gpio.c ****   *         GPIOx_PUPDR, GPIOx_AFRL and GPIOx_AFRH.
 463:Drivers/STM32F4xx_HAL_Driver/Src/stm32f4xx_hal_gpio.c ****   * @note   The configuration of the locked GPIO pins can no longer be modified
 464:Drivers/STM32F4xx_HAL_Driver/Src/stm32f4xx_hal_gpio.c ****   *         until the next reset.
 465:Drivers/STM32F4xx_HAL_Driver/Src/stm32f4xx_hal_gpio.c ****   * @param  GPIOx where x can be (A..F) to select the GPIO peripheral for STM32F4 family
 466:Drivers/STM32F4xx_HAL_Driver/Src/stm32f4xx_hal_gpio.c ****   * @param  GPIO_Pin specifies the port bit to be locked.
 467:Drivers/STM32F4xx_HAL_Driver/Src/stm32f4xx_hal_gpio.c ****   *         This parameter can be any combination of GPIO_PIN_x where x can be (0..15).
 468:Drivers/STM32F4xx_HAL_Driver/Src/stm32f4xx_hal_gpio.c ****   * @retval None
 469:Drivers/STM32F4xx_HAL_Driver/Src/stm32f4xx_hal_gpio.c ****   */
 470:Drivers/STM32F4xx_HAL_Driver/Src/stm32f4xx_hal_gpio.c **** HAL_StatusTypeDef HAL_GPIO_LockPin(GPIO_TypeDef* GPIOx, uint16_t GPIO_Pin)
 471:Drivers/STM32F4xx_HAL_Driver/Src/stm32f4xx_hal_gpio.c **** {
 987              		.loc 1 471 0
 988              		.cfi_startproc
 989              		@ args = 0, pretend = 0, frame = 8
 990              		@ frame_needed = 0, uses_anonymous_args = 0
 991              	.LVL96:
 992 0000 30B5     		push	{r4, r5, lr}
 993              	.LCFI7:
 994              		.cfi_def_cfa_offset 12
 995              		.cfi_offset 4, -12
 996              		.cfi_offset 5, -8
 997              		.cfi_offset 14, -4
 998 0002 83B0     		sub	sp, sp, #12
 999              	.LCFI8:
ARM GAS  C:\Users\n-is\AppData\Local\Temp\cczOBJcu.s 			page 28


 1000              		.cfi_def_cfa_offset 24
 1001 0004 0446     		mov	r4, r0
 472:Drivers/STM32F4xx_HAL_Driver/Src/stm32f4xx_hal_gpio.c ****   __IO uint32_t tmp = GPIO_LCKR_LCKK;
 1002              		.loc 1 472 0
 1003 0006 4FF48033 		mov	r3, #65536
 1004 000a 0193     		str	r3, [sp, #4]
 473:Drivers/STM32F4xx_HAL_Driver/Src/stm32f4xx_hal_gpio.c **** 
 474:Drivers/STM32F4xx_HAL_Driver/Src/stm32f4xx_hal_gpio.c ****   /* Check the parameters */
 475:Drivers/STM32F4xx_HAL_Driver/Src/stm32f4xx_hal_gpio.c ****   assert_param(IS_GPIO_PIN(GPIO_Pin));
 1005              		.loc 1 475 0
 1006 000c 0D46     		mov	r5, r1
 1007 000e 81B1     		cbz	r1, .L91
 1008              	.LVL97:
 1009              	.L87:
 476:Drivers/STM32F4xx_HAL_Driver/Src/stm32f4xx_hal_gpio.c **** 
 477:Drivers/STM32F4xx_HAL_Driver/Src/stm32f4xx_hal_gpio.c ****   /* Apply lock key write sequence */
 478:Drivers/STM32F4xx_HAL_Driver/Src/stm32f4xx_hal_gpio.c ****   tmp |= GPIO_Pin;
 1010              		.loc 1 478 0
 1011 0010 019B     		ldr	r3, [sp, #4]
 1012 0012 2B43     		orrs	r3, r3, r5
 1013 0014 0193     		str	r3, [sp, #4]
 479:Drivers/STM32F4xx_HAL_Driver/Src/stm32f4xx_hal_gpio.c ****   /* Set LCKx bit(s): LCKK='1' + LCK[15-0] */
 480:Drivers/STM32F4xx_HAL_Driver/Src/stm32f4xx_hal_gpio.c ****   GPIOx->LCKR = tmp;
 1014              		.loc 1 480 0
 1015 0016 019B     		ldr	r3, [sp, #4]
 1016 0018 E361     		str	r3, [r4, #28]
 481:Drivers/STM32F4xx_HAL_Driver/Src/stm32f4xx_hal_gpio.c ****   /* Reset LCKx bit(s): LCKK='0' + LCK[15-0] */
 482:Drivers/STM32F4xx_HAL_Driver/Src/stm32f4xx_hal_gpio.c ****   GPIOx->LCKR = GPIO_Pin;
 1017              		.loc 1 482 0
 1018 001a E561     		str	r5, [r4, #28]
 483:Drivers/STM32F4xx_HAL_Driver/Src/stm32f4xx_hal_gpio.c ****   /* Set LCKx bit(s): LCKK='1' + LCK[15-0] */
 484:Drivers/STM32F4xx_HAL_Driver/Src/stm32f4xx_hal_gpio.c ****   GPIOx->LCKR = tmp;
 1019              		.loc 1 484 0
 1020 001c 019B     		ldr	r3, [sp, #4]
 1021 001e E361     		str	r3, [r4, #28]
 485:Drivers/STM32F4xx_HAL_Driver/Src/stm32f4xx_hal_gpio.c ****   /* Read LCKK bit*/
 486:Drivers/STM32F4xx_HAL_Driver/Src/stm32f4xx_hal_gpio.c ****   tmp = GPIOx->LCKR;
 1022              		.loc 1 486 0
 1023 0020 E369     		ldr	r3, [r4, #28]
 1024 0022 0193     		str	r3, [sp, #4]
 487:Drivers/STM32F4xx_HAL_Driver/Src/stm32f4xx_hal_gpio.c **** 
 488:Drivers/STM32F4xx_HAL_Driver/Src/stm32f4xx_hal_gpio.c ****  if((GPIOx->LCKR & GPIO_LCKR_LCKK) != RESET)
 1025              		.loc 1 488 0
 1026 0024 E369     		ldr	r3, [r4, #28]
 1027 0026 13F4803F 		tst	r3, #65536
 1028 002a 08D1     		bne	.L92
 489:Drivers/STM32F4xx_HAL_Driver/Src/stm32f4xx_hal_gpio.c ****   {
 490:Drivers/STM32F4xx_HAL_Driver/Src/stm32f4xx_hal_gpio.c ****     return HAL_OK;
 491:Drivers/STM32F4xx_HAL_Driver/Src/stm32f4xx_hal_gpio.c ****   }
 492:Drivers/STM32F4xx_HAL_Driver/Src/stm32f4xx_hal_gpio.c ****   else
 493:Drivers/STM32F4xx_HAL_Driver/Src/stm32f4xx_hal_gpio.c ****   {
 494:Drivers/STM32F4xx_HAL_Driver/Src/stm32f4xx_hal_gpio.c ****     return HAL_ERROR;
 1029              		.loc 1 494 0
 1030 002c 0120     		movs	r0, #1
 1031              	.L88:
 495:Drivers/STM32F4xx_HAL_Driver/Src/stm32f4xx_hal_gpio.c ****   }
 496:Drivers/STM32F4xx_HAL_Driver/Src/stm32f4xx_hal_gpio.c **** }
ARM GAS  C:\Users\n-is\AppData\Local\Temp\cczOBJcu.s 			page 29


 1032              		.loc 1 496 0
 1033 002e 03B0     		add	sp, sp, #12
 1034              	.LCFI9:
 1035              		.cfi_remember_state
 1036              		.cfi_def_cfa_offset 12
 1037              		@ sp needed
 1038 0030 30BD     		pop	{r4, r5, pc}
 1039              	.LVL98:
 1040              	.L91:
 1041              	.LCFI10:
 1042              		.cfi_restore_state
 475:Drivers/STM32F4xx_HAL_Driver/Src/stm32f4xx_hal_gpio.c **** 
 1043              		.loc 1 475 0 discriminator 3
 1044 0032 40F2DB11 		movw	r1, #475
 1045              	.LVL99:
 1046 0036 0348     		ldr	r0, .L93
 1047              	.LVL100:
 1048 0038 FFF7FEFF 		bl	assert_failed
 1049              	.LVL101:
 1050 003c E8E7     		b	.L87
 1051              	.L92:
 490:Drivers/STM32F4xx_HAL_Driver/Src/stm32f4xx_hal_gpio.c ****   }
 1052              		.loc 1 490 0
 1053 003e 0020     		movs	r0, #0
 1054 0040 F5E7     		b	.L88
 1055              	.L94:
 1056 0042 00BF     		.align	2
 1057              	.L93:
 1058 0044 00000000 		.word	.LC0
 1059              		.cfi_endproc
 1060              	.LFE131:
 1062              		.section	.text.HAL_GPIO_EXTI_Callback,"ax",%progbits
 1063              		.align	1
 1064              		.weak	HAL_GPIO_EXTI_Callback
 1065              		.syntax unified
 1066              		.thumb
 1067              		.thumb_func
 1068              		.fpu fpv4-sp-d16
 1070              	HAL_GPIO_EXTI_Callback:
 1071              	.LFB133:
 497:Drivers/STM32F4xx_HAL_Driver/Src/stm32f4xx_hal_gpio.c **** 
 498:Drivers/STM32F4xx_HAL_Driver/Src/stm32f4xx_hal_gpio.c **** /**
 499:Drivers/STM32F4xx_HAL_Driver/Src/stm32f4xx_hal_gpio.c ****   * @brief  This function handles EXTI interrupt request.
 500:Drivers/STM32F4xx_HAL_Driver/Src/stm32f4xx_hal_gpio.c ****   * @param  GPIO_Pin Specifies the pins connected EXTI line
 501:Drivers/STM32F4xx_HAL_Driver/Src/stm32f4xx_hal_gpio.c ****   * @retval None
 502:Drivers/STM32F4xx_HAL_Driver/Src/stm32f4xx_hal_gpio.c ****   */
 503:Drivers/STM32F4xx_HAL_Driver/Src/stm32f4xx_hal_gpio.c **** void HAL_GPIO_EXTI_IRQHandler(uint16_t GPIO_Pin)
 504:Drivers/STM32F4xx_HAL_Driver/Src/stm32f4xx_hal_gpio.c **** {
 505:Drivers/STM32F4xx_HAL_Driver/Src/stm32f4xx_hal_gpio.c ****   /* EXTI line interrupt detected */
 506:Drivers/STM32F4xx_HAL_Driver/Src/stm32f4xx_hal_gpio.c ****   if(__HAL_GPIO_EXTI_GET_IT(GPIO_Pin) != RESET)
 507:Drivers/STM32F4xx_HAL_Driver/Src/stm32f4xx_hal_gpio.c ****   {
 508:Drivers/STM32F4xx_HAL_Driver/Src/stm32f4xx_hal_gpio.c ****     __HAL_GPIO_EXTI_CLEAR_IT(GPIO_Pin);
 509:Drivers/STM32F4xx_HAL_Driver/Src/stm32f4xx_hal_gpio.c ****     HAL_GPIO_EXTI_Callback(GPIO_Pin);
 510:Drivers/STM32F4xx_HAL_Driver/Src/stm32f4xx_hal_gpio.c ****   }
 511:Drivers/STM32F4xx_HAL_Driver/Src/stm32f4xx_hal_gpio.c **** }
 512:Drivers/STM32F4xx_HAL_Driver/Src/stm32f4xx_hal_gpio.c **** 
 513:Drivers/STM32F4xx_HAL_Driver/Src/stm32f4xx_hal_gpio.c **** /**
ARM GAS  C:\Users\n-is\AppData\Local\Temp\cczOBJcu.s 			page 30


 514:Drivers/STM32F4xx_HAL_Driver/Src/stm32f4xx_hal_gpio.c ****   * @brief  EXTI line detection callbacks.
 515:Drivers/STM32F4xx_HAL_Driver/Src/stm32f4xx_hal_gpio.c ****   * @param  GPIO_Pin Specifies the pins connected EXTI line
 516:Drivers/STM32F4xx_HAL_Driver/Src/stm32f4xx_hal_gpio.c ****   * @retval None
 517:Drivers/STM32F4xx_HAL_Driver/Src/stm32f4xx_hal_gpio.c ****   */
 518:Drivers/STM32F4xx_HAL_Driver/Src/stm32f4xx_hal_gpio.c **** __weak void HAL_GPIO_EXTI_Callback(uint16_t GPIO_Pin)
 519:Drivers/STM32F4xx_HAL_Driver/Src/stm32f4xx_hal_gpio.c **** {
 1072              		.loc 1 519 0
 1073              		.cfi_startproc
 1074              		@ args = 0, pretend = 0, frame = 0
 1075              		@ frame_needed = 0, uses_anonymous_args = 0
 1076              		@ link register save eliminated.
 1077              	.LVL102:
 520:Drivers/STM32F4xx_HAL_Driver/Src/stm32f4xx_hal_gpio.c ****   /* Prevent unused argument(s) compilation warning */
 521:Drivers/STM32F4xx_HAL_Driver/Src/stm32f4xx_hal_gpio.c ****   UNUSED(GPIO_Pin);
 522:Drivers/STM32F4xx_HAL_Driver/Src/stm32f4xx_hal_gpio.c ****   /* NOTE: This function Should not be modified, when the callback is needed,
 523:Drivers/STM32F4xx_HAL_Driver/Src/stm32f4xx_hal_gpio.c ****            the HAL_GPIO_EXTI_Callback could be implemented in the user file
 524:Drivers/STM32F4xx_HAL_Driver/Src/stm32f4xx_hal_gpio.c ****    */
 525:Drivers/STM32F4xx_HAL_Driver/Src/stm32f4xx_hal_gpio.c **** }
 1078              		.loc 1 525 0
 1079 0000 7047     		bx	lr
 1080              		.cfi_endproc
 1081              	.LFE133:
 1083              		.section	.text.HAL_GPIO_EXTI_IRQHandler,"ax",%progbits
 1084              		.align	1
 1085              		.global	HAL_GPIO_EXTI_IRQHandler
 1086              		.syntax unified
 1087              		.thumb
 1088              		.thumb_func
 1089              		.fpu fpv4-sp-d16
 1091              	HAL_GPIO_EXTI_IRQHandler:
 1092              	.LFB132:
 504:Drivers/STM32F4xx_HAL_Driver/Src/stm32f4xx_hal_gpio.c ****   /* EXTI line interrupt detected */
 1093              		.loc 1 504 0
 1094              		.cfi_startproc
 1095              		@ args = 0, pretend = 0, frame = 0
 1096              		@ frame_needed = 0, uses_anonymous_args = 0
 1097              	.LVL103:
 1098 0000 08B5     		push	{r3, lr}
 1099              	.LCFI11:
 1100              		.cfi_def_cfa_offset 8
 1101              		.cfi_offset 3, -8
 1102              		.cfi_offset 14, -4
 506:Drivers/STM32F4xx_HAL_Driver/Src/stm32f4xx_hal_gpio.c ****   {
 1103              		.loc 1 506 0
 1104 0002 054B     		ldr	r3, .L100
 1105 0004 5B69     		ldr	r3, [r3, #20]
 1106 0006 0342     		tst	r3, r0
 1107 0008 00D1     		bne	.L99
 1108              	.LVL104:
 1109              	.L96:
 511:Drivers/STM32F4xx_HAL_Driver/Src/stm32f4xx_hal_gpio.c **** 
 1110              		.loc 1 511 0
 1111 000a 08BD     		pop	{r3, pc}
 1112              	.LVL105:
 1113              	.L99:
 508:Drivers/STM32F4xx_HAL_Driver/Src/stm32f4xx_hal_gpio.c ****     HAL_GPIO_EXTI_Callback(GPIO_Pin);
 1114              		.loc 1 508 0
ARM GAS  C:\Users\n-is\AppData\Local\Temp\cczOBJcu.s 			page 31


 1115 000c 024B     		ldr	r3, .L100
 1116 000e 5861     		str	r0, [r3, #20]
 509:Drivers/STM32F4xx_HAL_Driver/Src/stm32f4xx_hal_gpio.c ****   }
 1117              		.loc 1 509 0
 1118 0010 FFF7FEFF 		bl	HAL_GPIO_EXTI_Callback
 1119              	.LVL106:
 511:Drivers/STM32F4xx_HAL_Driver/Src/stm32f4xx_hal_gpio.c **** 
 1120              		.loc 1 511 0
 1121 0014 F9E7     		b	.L96
 1122              	.L101:
 1123 0016 00BF     		.align	2
 1124              	.L100:
 1125 0018 003C0140 		.word	1073822720
 1126              		.cfi_endproc
 1127              	.LFE132:
 1129              		.section	.rodata.HAL_GPIO_Init.str1.4,"aMS",%progbits,1
 1130              		.align	2
 1131              	.LC0:
 1132 0000 44726976 		.ascii	"Drivers/STM32F4xx_HAL_Driver/Src/stm32f4xx_hal_gpio"
 1132      6572732F 
 1132      53544D33 
 1132      32463478 
 1132      785F4841 
 1133 0033 2E6300   		.ascii	".c\000"
 1134              		.text
 1135              	.Letext0:
 1136              		.file 2 "c:\\program files (x86)\\gnu tools arm embedded\\7 2018-q2-update\\arm-none-eabi\\include
 1137              		.file 3 "c:\\program files (x86)\\gnu tools arm embedded\\7 2018-q2-update\\arm-none-eabi\\include
 1138              		.file 4 "Drivers/CMSIS/Include/core_cm4.h"
 1139              		.file 5 "Drivers/CMSIS/Device/ST/STM32F4xx/Include/system_stm32f4xx.h"
 1140              		.file 6 "Drivers/CMSIS/Device/ST/STM32F4xx/Include/stm32f407xx.h"
 1141              		.file 7 "c:\\program files (x86)\\gnu tools arm embedded\\7 2018-q2-update\\arm-none-eabi\\include
 1142              		.file 8 "c:\\program files (x86)\\gnu tools arm embedded\\7 2018-q2-update\\arm-none-eabi\\include
 1143              		.file 9 "c:\\program files (x86)\\gnu tools arm embedded\\7 2018-q2-update\\lib\\gcc\\arm-none-eab
 1144              		.file 10 "c:\\program files (x86)\\gnu tools arm embedded\\7 2018-q2-update\\arm-none-eabi\\includ
 1145              		.file 11 "Drivers/CMSIS/Device/ST/STM32F4xx/Include/stm32f4xx.h"
 1146              		.file 12 "Drivers/STM32F4xx_HAL_Driver/Inc/stm32f4xx_hal_def.h"
 1147              		.file 13 "Drivers/STM32F4xx_HAL_Driver/Inc/stm32f4xx_hal_gpio.h"
 1148              		.file 14 "Core/Inc/stm32f4xx_hal_conf.h"
ARM GAS  C:\Users\n-is\AppData\Local\Temp\cczOBJcu.s 			page 32

